   1              		.syntax unified
   2              		.cpu cortex-m3
   3              		.fpu softvfp
   4              		.eabi_attribute 20, 1
   5              		.eabi_attribute 21, 1
   6              		.eabi_attribute 23, 3
   7              		.eabi_attribute 24, 1
   8              		.eabi_attribute 25, 1
   9              		.eabi_attribute 26, 1
  10              		.eabi_attribute 30, 6
  11              		.eabi_attribute 34, 1
  12              		.eabi_attribute 18, 4
  13              		.thumb
  14              		.file	"stm32f10x_tim.c"
  15              		.text
  16              	.Ltext0:
  17              		.cfi_sections	.debug_frame
  18              		.align	2
  19              		.global	TIM_DeInit
  20              		.thumb
  21              		.thumb_func
  23              	TIM_DeInit:
  24              	.LFB29:
  25              		.file 1 "../lib/STM32F10x_StdPeriph_Driver/src/stm32f10x_tim.c"
   1:../lib/STM32F10x_StdPeriph_Driver/src/stm32f10x_tim.c **** /**
   2:../lib/STM32F10x_StdPeriph_Driver/src/stm32f10x_tim.c ****   ******************************************************************************
   3:../lib/STM32F10x_StdPeriph_Driver/src/stm32f10x_tim.c ****   * @file    stm32f10x_tim.c
   4:../lib/STM32F10x_StdPeriph_Driver/src/stm32f10x_tim.c ****   * @author  MCD Application Team
   5:../lib/STM32F10x_StdPeriph_Driver/src/stm32f10x_tim.c ****   * @version V3.5.0
   6:../lib/STM32F10x_StdPeriph_Driver/src/stm32f10x_tim.c ****   * @date    11-March-2011
   7:../lib/STM32F10x_StdPeriph_Driver/src/stm32f10x_tim.c ****   * @brief   This file provides all the TIM firmware functions.
   8:../lib/STM32F10x_StdPeriph_Driver/src/stm32f10x_tim.c ****   ******************************************************************************
   9:../lib/STM32F10x_StdPeriph_Driver/src/stm32f10x_tim.c ****   * @attention
  10:../lib/STM32F10x_StdPeriph_Driver/src/stm32f10x_tim.c ****   *
  11:../lib/STM32F10x_StdPeriph_Driver/src/stm32f10x_tim.c ****   * THE PRESENT FIRMWARE WHICH IS FOR GUIDANCE ONLY AIMS AT PROVIDING CUSTOMERS
  12:../lib/STM32F10x_StdPeriph_Driver/src/stm32f10x_tim.c ****   * WITH CODING INFORMATION REGARDING THEIR PRODUCTS IN ORDER FOR THEM TO SAVE
  13:../lib/STM32F10x_StdPeriph_Driver/src/stm32f10x_tim.c ****   * TIME. AS A RESULT, STMICROELECTRONICS SHALL NOT BE HELD LIABLE FOR ANY
  14:../lib/STM32F10x_StdPeriph_Driver/src/stm32f10x_tim.c ****   * DIRECT, INDIRECT OR CONSEQUENTIAL DAMAGES WITH RESPECT TO ANY CLAIMS ARISING
  15:../lib/STM32F10x_StdPeriph_Driver/src/stm32f10x_tim.c ****   * FROM THE CONTENT OF SUCH FIRMWARE AND/OR THE USE MADE BY CUSTOMERS OF THE
  16:../lib/STM32F10x_StdPeriph_Driver/src/stm32f10x_tim.c ****   * CODING INFORMATION CONTAINED HEREIN IN CONNECTION WITH THEIR PRODUCTS.
  17:../lib/STM32F10x_StdPeriph_Driver/src/stm32f10x_tim.c ****   *
  18:../lib/STM32F10x_StdPeriph_Driver/src/stm32f10x_tim.c ****   * <h2><center>&copy; COPYRIGHT 2011 STMicroelectronics</center></h2>
  19:../lib/STM32F10x_StdPeriph_Driver/src/stm32f10x_tim.c ****   ******************************************************************************
  20:../lib/STM32F10x_StdPeriph_Driver/src/stm32f10x_tim.c ****   */
  21:../lib/STM32F10x_StdPeriph_Driver/src/stm32f10x_tim.c **** 
  22:../lib/STM32F10x_StdPeriph_Driver/src/stm32f10x_tim.c **** /* Includes ------------------------------------------------------------------*/
  23:../lib/STM32F10x_StdPeriph_Driver/src/stm32f10x_tim.c **** #include "stm32f10x_tim.h"
  24:../lib/STM32F10x_StdPeriph_Driver/src/stm32f10x_tim.c **** #include "stm32f10x_rcc.h"
  25:../lib/STM32F10x_StdPeriph_Driver/src/stm32f10x_tim.c **** 
  26:../lib/STM32F10x_StdPeriph_Driver/src/stm32f10x_tim.c **** /** @addtogroup STM32F10x_StdPeriph_Driver
  27:../lib/STM32F10x_StdPeriph_Driver/src/stm32f10x_tim.c ****   * @{
  28:../lib/STM32F10x_StdPeriph_Driver/src/stm32f10x_tim.c ****   */
  29:../lib/STM32F10x_StdPeriph_Driver/src/stm32f10x_tim.c **** 
  30:../lib/STM32F10x_StdPeriph_Driver/src/stm32f10x_tim.c **** /** @defgroup TIM 
  31:../lib/STM32F10x_StdPeriph_Driver/src/stm32f10x_tim.c ****   * @brief TIM driver modules
  32:../lib/STM32F10x_StdPeriph_Driver/src/stm32f10x_tim.c ****   * @{
  33:../lib/STM32F10x_StdPeriph_Driver/src/stm32f10x_tim.c ****   */
  34:../lib/STM32F10x_StdPeriph_Driver/src/stm32f10x_tim.c **** 
  35:../lib/STM32F10x_StdPeriph_Driver/src/stm32f10x_tim.c **** /** @defgroup TIM_Private_TypesDefinitions
  36:../lib/STM32F10x_StdPeriph_Driver/src/stm32f10x_tim.c ****   * @{
  37:../lib/STM32F10x_StdPeriph_Driver/src/stm32f10x_tim.c ****   */
  38:../lib/STM32F10x_StdPeriph_Driver/src/stm32f10x_tim.c **** 
  39:../lib/STM32F10x_StdPeriph_Driver/src/stm32f10x_tim.c **** /**
  40:../lib/STM32F10x_StdPeriph_Driver/src/stm32f10x_tim.c ****   * @}
  41:../lib/STM32F10x_StdPeriph_Driver/src/stm32f10x_tim.c ****   */
  42:../lib/STM32F10x_StdPeriph_Driver/src/stm32f10x_tim.c **** 
  43:../lib/STM32F10x_StdPeriph_Driver/src/stm32f10x_tim.c **** /** @defgroup TIM_Private_Defines
  44:../lib/STM32F10x_StdPeriph_Driver/src/stm32f10x_tim.c ****   * @{
  45:../lib/STM32F10x_StdPeriph_Driver/src/stm32f10x_tim.c ****   */
  46:../lib/STM32F10x_StdPeriph_Driver/src/stm32f10x_tim.c **** 
  47:../lib/STM32F10x_StdPeriph_Driver/src/stm32f10x_tim.c **** /* ---------------------- TIM registers bit mask ------------------------ */
  48:../lib/STM32F10x_StdPeriph_Driver/src/stm32f10x_tim.c **** #define SMCR_ETR_Mask               ((uint16_t)0x00FF) 
  49:../lib/STM32F10x_StdPeriph_Driver/src/stm32f10x_tim.c **** #define CCMR_Offset                 ((uint16_t)0x0018)
  50:../lib/STM32F10x_StdPeriph_Driver/src/stm32f10x_tim.c **** #define CCER_CCE_Set                ((uint16_t)0x0001)  
  51:../lib/STM32F10x_StdPeriph_Driver/src/stm32f10x_tim.c **** #define	CCER_CCNE_Set               ((uint16_t)0x0004) 
  52:../lib/STM32F10x_StdPeriph_Driver/src/stm32f10x_tim.c **** 
  53:../lib/STM32F10x_StdPeriph_Driver/src/stm32f10x_tim.c **** /**
  54:../lib/STM32F10x_StdPeriph_Driver/src/stm32f10x_tim.c ****   * @}
  55:../lib/STM32F10x_StdPeriph_Driver/src/stm32f10x_tim.c ****   */
  56:../lib/STM32F10x_StdPeriph_Driver/src/stm32f10x_tim.c **** 
  57:../lib/STM32F10x_StdPeriph_Driver/src/stm32f10x_tim.c **** /** @defgroup TIM_Private_Macros
  58:../lib/STM32F10x_StdPeriph_Driver/src/stm32f10x_tim.c ****   * @{
  59:../lib/STM32F10x_StdPeriph_Driver/src/stm32f10x_tim.c ****   */
  60:../lib/STM32F10x_StdPeriph_Driver/src/stm32f10x_tim.c **** 
  61:../lib/STM32F10x_StdPeriph_Driver/src/stm32f10x_tim.c **** /**
  62:../lib/STM32F10x_StdPeriph_Driver/src/stm32f10x_tim.c ****   * @}
  63:../lib/STM32F10x_StdPeriph_Driver/src/stm32f10x_tim.c ****   */
  64:../lib/STM32F10x_StdPeriph_Driver/src/stm32f10x_tim.c **** 
  65:../lib/STM32F10x_StdPeriph_Driver/src/stm32f10x_tim.c **** /** @defgroup TIM_Private_Variables
  66:../lib/STM32F10x_StdPeriph_Driver/src/stm32f10x_tim.c ****   * @{
  67:../lib/STM32F10x_StdPeriph_Driver/src/stm32f10x_tim.c ****   */
  68:../lib/STM32F10x_StdPeriph_Driver/src/stm32f10x_tim.c **** 
  69:../lib/STM32F10x_StdPeriph_Driver/src/stm32f10x_tim.c **** /**
  70:../lib/STM32F10x_StdPeriph_Driver/src/stm32f10x_tim.c ****   * @}
  71:../lib/STM32F10x_StdPeriph_Driver/src/stm32f10x_tim.c ****   */
  72:../lib/STM32F10x_StdPeriph_Driver/src/stm32f10x_tim.c **** 
  73:../lib/STM32F10x_StdPeriph_Driver/src/stm32f10x_tim.c **** /** @defgroup TIM_Private_FunctionPrototypes
  74:../lib/STM32F10x_StdPeriph_Driver/src/stm32f10x_tim.c ****   * @{
  75:../lib/STM32F10x_StdPeriph_Driver/src/stm32f10x_tim.c ****   */
  76:../lib/STM32F10x_StdPeriph_Driver/src/stm32f10x_tim.c **** 
  77:../lib/STM32F10x_StdPeriph_Driver/src/stm32f10x_tim.c **** static void TI1_Config(TIM_TypeDef* TIMx, uint16_t TIM_ICPolarity, uint16_t TIM_ICSelection,
  78:../lib/STM32F10x_StdPeriph_Driver/src/stm32f10x_tim.c ****                        uint16_t TIM_ICFilter);
  79:../lib/STM32F10x_StdPeriph_Driver/src/stm32f10x_tim.c **** static void TI2_Config(TIM_TypeDef* TIMx, uint16_t TIM_ICPolarity, uint16_t TIM_ICSelection,
  80:../lib/STM32F10x_StdPeriph_Driver/src/stm32f10x_tim.c ****                        uint16_t TIM_ICFilter);
  81:../lib/STM32F10x_StdPeriph_Driver/src/stm32f10x_tim.c **** static void TI3_Config(TIM_TypeDef* TIMx, uint16_t TIM_ICPolarity, uint16_t TIM_ICSelection,
  82:../lib/STM32F10x_StdPeriph_Driver/src/stm32f10x_tim.c ****                        uint16_t TIM_ICFilter);
  83:../lib/STM32F10x_StdPeriph_Driver/src/stm32f10x_tim.c **** static void TI4_Config(TIM_TypeDef* TIMx, uint16_t TIM_ICPolarity, uint16_t TIM_ICSelection,
  84:../lib/STM32F10x_StdPeriph_Driver/src/stm32f10x_tim.c ****                        uint16_t TIM_ICFilter);
  85:../lib/STM32F10x_StdPeriph_Driver/src/stm32f10x_tim.c **** /**
  86:../lib/STM32F10x_StdPeriph_Driver/src/stm32f10x_tim.c ****   * @}
  87:../lib/STM32F10x_StdPeriph_Driver/src/stm32f10x_tim.c ****   */
  88:../lib/STM32F10x_StdPeriph_Driver/src/stm32f10x_tim.c **** 
  89:../lib/STM32F10x_StdPeriph_Driver/src/stm32f10x_tim.c **** /** @defgroup TIM_Private_Macros
  90:../lib/STM32F10x_StdPeriph_Driver/src/stm32f10x_tim.c ****   * @{
  91:../lib/STM32F10x_StdPeriph_Driver/src/stm32f10x_tim.c ****   */
  92:../lib/STM32F10x_StdPeriph_Driver/src/stm32f10x_tim.c **** 
  93:../lib/STM32F10x_StdPeriph_Driver/src/stm32f10x_tim.c **** /**
  94:../lib/STM32F10x_StdPeriph_Driver/src/stm32f10x_tim.c ****   * @}
  95:../lib/STM32F10x_StdPeriph_Driver/src/stm32f10x_tim.c ****   */
  96:../lib/STM32F10x_StdPeriph_Driver/src/stm32f10x_tim.c **** 
  97:../lib/STM32F10x_StdPeriph_Driver/src/stm32f10x_tim.c **** /** @defgroup TIM_Private_Variables
  98:../lib/STM32F10x_StdPeriph_Driver/src/stm32f10x_tim.c ****   * @{
  99:../lib/STM32F10x_StdPeriph_Driver/src/stm32f10x_tim.c ****   */
 100:../lib/STM32F10x_StdPeriph_Driver/src/stm32f10x_tim.c **** 
 101:../lib/STM32F10x_StdPeriph_Driver/src/stm32f10x_tim.c **** /**
 102:../lib/STM32F10x_StdPeriph_Driver/src/stm32f10x_tim.c ****   * @}
 103:../lib/STM32F10x_StdPeriph_Driver/src/stm32f10x_tim.c ****   */
 104:../lib/STM32F10x_StdPeriph_Driver/src/stm32f10x_tim.c **** 
 105:../lib/STM32F10x_StdPeriph_Driver/src/stm32f10x_tim.c **** /** @defgroup TIM_Private_FunctionPrototypes
 106:../lib/STM32F10x_StdPeriph_Driver/src/stm32f10x_tim.c ****   * @{
 107:../lib/STM32F10x_StdPeriph_Driver/src/stm32f10x_tim.c ****   */
 108:../lib/STM32F10x_StdPeriph_Driver/src/stm32f10x_tim.c **** 
 109:../lib/STM32F10x_StdPeriph_Driver/src/stm32f10x_tim.c **** /**
 110:../lib/STM32F10x_StdPeriph_Driver/src/stm32f10x_tim.c ****   * @}
 111:../lib/STM32F10x_StdPeriph_Driver/src/stm32f10x_tim.c ****   */
 112:../lib/STM32F10x_StdPeriph_Driver/src/stm32f10x_tim.c **** 
 113:../lib/STM32F10x_StdPeriph_Driver/src/stm32f10x_tim.c **** /** @defgroup TIM_Private_Functions
 114:../lib/STM32F10x_StdPeriph_Driver/src/stm32f10x_tim.c ****   * @{
 115:../lib/STM32F10x_StdPeriph_Driver/src/stm32f10x_tim.c ****   */
 116:../lib/STM32F10x_StdPeriph_Driver/src/stm32f10x_tim.c **** 
 117:../lib/STM32F10x_StdPeriph_Driver/src/stm32f10x_tim.c **** /**
 118:../lib/STM32F10x_StdPeriph_Driver/src/stm32f10x_tim.c ****   * @brief  Deinitializes the TIMx peripheral registers to their default reset values.
 119:../lib/STM32F10x_StdPeriph_Driver/src/stm32f10x_tim.c ****   * @param  TIMx: where x can be 1 to 17 to select the TIM peripheral.
 120:../lib/STM32F10x_StdPeriph_Driver/src/stm32f10x_tim.c ****   * @retval None
 121:../lib/STM32F10x_StdPeriph_Driver/src/stm32f10x_tim.c ****   */
 122:../lib/STM32F10x_StdPeriph_Driver/src/stm32f10x_tim.c **** void TIM_DeInit(TIM_TypeDef* TIMx)
 123:../lib/STM32F10x_StdPeriph_Driver/src/stm32f10x_tim.c **** {
  26              		.loc 1 123 0
  27              		.cfi_startproc
  28              		@ args = 0, pretend = 0, frame = 8
  29              		@ frame_needed = 1, uses_anonymous_args = 0
  30 0000 80B5     		push	{r7, lr}
  31              	.LCFI0:
  32              		.cfi_def_cfa_offset 8
  33              		.cfi_offset 7, -8
  34              		.cfi_offset 14, -4
  35 0002 82B0     		sub	sp, sp, #8
  36              	.LCFI1:
  37              		.cfi_def_cfa_offset 16
  38 0004 00AF     		add	r7, sp, #0
  39              	.LCFI2:
  40              		.cfi_def_cfa_register 7
  41 0006 7860     		str	r0, [r7, #4]
 124:../lib/STM32F10x_StdPeriph_Driver/src/stm32f10x_tim.c ****   /* Check the parameters */
 125:../lib/STM32F10x_StdPeriph_Driver/src/stm32f10x_tim.c ****   assert_param(IS_TIM_ALL_PERIPH(TIMx)); 
 126:../lib/STM32F10x_StdPeriph_Driver/src/stm32f10x_tim.c ****  
 127:../lib/STM32F10x_StdPeriph_Driver/src/stm32f10x_tim.c ****   if (TIMx == TIM1)
  42              		.loc 1 127 0
  43 0008 7A68     		ldr	r2, [r7, #4]
  44 000a 914B     		ldr	r3, .L19
  45 000c 9A42     		cmp	r2, r3
  46 000e 0CD1     		bne	.L2
 128:../lib/STM32F10x_StdPeriph_Driver/src/stm32f10x_tim.c ****   {
 129:../lib/STM32F10x_StdPeriph_Driver/src/stm32f10x_tim.c ****     RCC_APB2PeriphResetCmd(RCC_APB2Periph_TIM1, ENABLE);
  47              		.loc 1 129 0
  48 0010 4FF40060 		mov	r0, #2048
  49 0014 4FF00101 		mov	r1, #1
  50 0018 FFF7FEFF 		bl	RCC_APB2PeriphResetCmd
 130:../lib/STM32F10x_StdPeriph_Driver/src/stm32f10x_tim.c ****     RCC_APB2PeriphResetCmd(RCC_APB2Periph_TIM1, DISABLE);  
  51              		.loc 1 130 0
  52 001c 4FF40060 		mov	r0, #2048
  53 0020 4FF00001 		mov	r1, #0
  54 0024 FFF7FEFF 		bl	RCC_APB2PeriphResetCmd
  55 0028 0EE1     		b	.L1
  56              	.L2:
 131:../lib/STM32F10x_StdPeriph_Driver/src/stm32f10x_tim.c ****   }     
 132:../lib/STM32F10x_StdPeriph_Driver/src/stm32f10x_tim.c ****   else if (TIMx == TIM2)
  57              		.loc 1 132 0
  58 002a 7B68     		ldr	r3, [r7, #4]
  59 002c B3F1804F 		cmp	r3, #1073741824
  60 0030 0CD1     		bne	.L4
 133:../lib/STM32F10x_StdPeriph_Driver/src/stm32f10x_tim.c ****   {
 134:../lib/STM32F10x_StdPeriph_Driver/src/stm32f10x_tim.c ****     RCC_APB1PeriphResetCmd(RCC_APB1Periph_TIM2, ENABLE);
  61              		.loc 1 134 0
  62 0032 4FF00100 		mov	r0, #1
  63 0036 4FF00101 		mov	r1, #1
  64 003a FFF7FEFF 		bl	RCC_APB1PeriphResetCmd
 135:../lib/STM32F10x_StdPeriph_Driver/src/stm32f10x_tim.c ****     RCC_APB1PeriphResetCmd(RCC_APB1Periph_TIM2, DISABLE);
  65              		.loc 1 135 0
  66 003e 4FF00100 		mov	r0, #1
  67 0042 4FF00001 		mov	r1, #0
  68 0046 FFF7FEFF 		bl	RCC_APB1PeriphResetCmd
  69 004a FDE0     		b	.L1
  70              	.L4:
 136:../lib/STM32F10x_StdPeriph_Driver/src/stm32f10x_tim.c ****   }
 137:../lib/STM32F10x_StdPeriph_Driver/src/stm32f10x_tim.c ****   else if (TIMx == TIM3)
  71              		.loc 1 137 0
  72 004c 7A68     		ldr	r2, [r7, #4]
  73 004e 814B     		ldr	r3, .L19+4
  74 0050 9A42     		cmp	r2, r3
  75 0052 0CD1     		bne	.L5
 138:../lib/STM32F10x_StdPeriph_Driver/src/stm32f10x_tim.c ****   {
 139:../lib/STM32F10x_StdPeriph_Driver/src/stm32f10x_tim.c ****     RCC_APB1PeriphResetCmd(RCC_APB1Periph_TIM3, ENABLE);
  76              		.loc 1 139 0
  77 0054 4FF00200 		mov	r0, #2
  78 0058 4FF00101 		mov	r1, #1
  79 005c FFF7FEFF 		bl	RCC_APB1PeriphResetCmd
 140:../lib/STM32F10x_StdPeriph_Driver/src/stm32f10x_tim.c ****     RCC_APB1PeriphResetCmd(RCC_APB1Periph_TIM3, DISABLE);
  80              		.loc 1 140 0
  81 0060 4FF00200 		mov	r0, #2
  82 0064 4FF00001 		mov	r1, #0
  83 0068 FFF7FEFF 		bl	RCC_APB1PeriphResetCmd
  84 006c ECE0     		b	.L1
  85              	.L5:
 141:../lib/STM32F10x_StdPeriph_Driver/src/stm32f10x_tim.c ****   }
 142:../lib/STM32F10x_StdPeriph_Driver/src/stm32f10x_tim.c ****   else if (TIMx == TIM4)
  86              		.loc 1 142 0
  87 006e 7A68     		ldr	r2, [r7, #4]
  88 0070 794B     		ldr	r3, .L19+8
  89 0072 9A42     		cmp	r2, r3
  90 0074 0CD1     		bne	.L6
 143:../lib/STM32F10x_StdPeriph_Driver/src/stm32f10x_tim.c ****   {
 144:../lib/STM32F10x_StdPeriph_Driver/src/stm32f10x_tim.c ****     RCC_APB1PeriphResetCmd(RCC_APB1Periph_TIM4, ENABLE);
  91              		.loc 1 144 0
  92 0076 4FF00400 		mov	r0, #4
  93 007a 4FF00101 		mov	r1, #1
  94 007e FFF7FEFF 		bl	RCC_APB1PeriphResetCmd
 145:../lib/STM32F10x_StdPeriph_Driver/src/stm32f10x_tim.c ****     RCC_APB1PeriphResetCmd(RCC_APB1Periph_TIM4, DISABLE);
  95              		.loc 1 145 0
  96 0082 4FF00400 		mov	r0, #4
  97 0086 4FF00001 		mov	r1, #0
  98 008a FFF7FEFF 		bl	RCC_APB1PeriphResetCmd
  99 008e DBE0     		b	.L1
 100              	.L6:
 146:../lib/STM32F10x_StdPeriph_Driver/src/stm32f10x_tim.c ****   } 
 147:../lib/STM32F10x_StdPeriph_Driver/src/stm32f10x_tim.c ****   else if (TIMx == TIM5)
 101              		.loc 1 147 0
 102 0090 7A68     		ldr	r2, [r7, #4]
 103 0092 724B     		ldr	r3, .L19+12
 104 0094 9A42     		cmp	r2, r3
 105 0096 0CD1     		bne	.L7
 148:../lib/STM32F10x_StdPeriph_Driver/src/stm32f10x_tim.c ****   {
 149:../lib/STM32F10x_StdPeriph_Driver/src/stm32f10x_tim.c ****     RCC_APB1PeriphResetCmd(RCC_APB1Periph_TIM5, ENABLE);
 106              		.loc 1 149 0
 107 0098 4FF00800 		mov	r0, #8
 108 009c 4FF00101 		mov	r1, #1
 109 00a0 FFF7FEFF 		bl	RCC_APB1PeriphResetCmd
 150:../lib/STM32F10x_StdPeriph_Driver/src/stm32f10x_tim.c ****     RCC_APB1PeriphResetCmd(RCC_APB1Periph_TIM5, DISABLE);
 110              		.loc 1 150 0
 111 00a4 4FF00800 		mov	r0, #8
 112 00a8 4FF00001 		mov	r1, #0
 113 00ac FFF7FEFF 		bl	RCC_APB1PeriphResetCmd
 114 00b0 CAE0     		b	.L1
 115              	.L7:
 151:../lib/STM32F10x_StdPeriph_Driver/src/stm32f10x_tim.c ****   } 
 152:../lib/STM32F10x_StdPeriph_Driver/src/stm32f10x_tim.c ****   else if (TIMx == TIM6)
 116              		.loc 1 152 0
 117 00b2 7A68     		ldr	r2, [r7, #4]
 118 00b4 6A4B     		ldr	r3, .L19+16
 119 00b6 9A42     		cmp	r2, r3
 120 00b8 0CD1     		bne	.L8
 153:../lib/STM32F10x_StdPeriph_Driver/src/stm32f10x_tim.c ****   {
 154:../lib/STM32F10x_StdPeriph_Driver/src/stm32f10x_tim.c ****     RCC_APB1PeriphResetCmd(RCC_APB1Periph_TIM6, ENABLE);
 121              		.loc 1 154 0
 122 00ba 4FF01000 		mov	r0, #16
 123 00be 4FF00101 		mov	r1, #1
 124 00c2 FFF7FEFF 		bl	RCC_APB1PeriphResetCmd
 155:../lib/STM32F10x_StdPeriph_Driver/src/stm32f10x_tim.c ****     RCC_APB1PeriphResetCmd(RCC_APB1Periph_TIM6, DISABLE);
 125              		.loc 1 155 0
 126 00c6 4FF01000 		mov	r0, #16
 127 00ca 4FF00001 		mov	r1, #0
 128 00ce FFF7FEFF 		bl	RCC_APB1PeriphResetCmd
 129 00d2 B9E0     		b	.L1
 130              	.L8:
 156:../lib/STM32F10x_StdPeriph_Driver/src/stm32f10x_tim.c ****   } 
 157:../lib/STM32F10x_StdPeriph_Driver/src/stm32f10x_tim.c ****   else if (TIMx == TIM7)
 131              		.loc 1 157 0
 132 00d4 7A68     		ldr	r2, [r7, #4]
 133 00d6 634B     		ldr	r3, .L19+20
 134 00d8 9A42     		cmp	r2, r3
 135 00da 0CD1     		bne	.L9
 158:../lib/STM32F10x_StdPeriph_Driver/src/stm32f10x_tim.c ****   {
 159:../lib/STM32F10x_StdPeriph_Driver/src/stm32f10x_tim.c ****     RCC_APB1PeriphResetCmd(RCC_APB1Periph_TIM7, ENABLE);
 136              		.loc 1 159 0
 137 00dc 4FF02000 		mov	r0, #32
 138 00e0 4FF00101 		mov	r1, #1
 139 00e4 FFF7FEFF 		bl	RCC_APB1PeriphResetCmd
 160:../lib/STM32F10x_StdPeriph_Driver/src/stm32f10x_tim.c ****     RCC_APB1PeriphResetCmd(RCC_APB1Periph_TIM7, DISABLE);
 140              		.loc 1 160 0
 141 00e8 4FF02000 		mov	r0, #32
 142 00ec 4FF00001 		mov	r1, #0
 143 00f0 FFF7FEFF 		bl	RCC_APB1PeriphResetCmd
 144 00f4 A8E0     		b	.L1
 145              	.L9:
 161:../lib/STM32F10x_StdPeriph_Driver/src/stm32f10x_tim.c ****   } 
 162:../lib/STM32F10x_StdPeriph_Driver/src/stm32f10x_tim.c ****   else if (TIMx == TIM8)
 146              		.loc 1 162 0
 147 00f6 7A68     		ldr	r2, [r7, #4]
 148 00f8 5B4B     		ldr	r3, .L19+24
 149 00fa 9A42     		cmp	r2, r3
 150 00fc 0CD1     		bne	.L10
 163:../lib/STM32F10x_StdPeriph_Driver/src/stm32f10x_tim.c ****   {
 164:../lib/STM32F10x_StdPeriph_Driver/src/stm32f10x_tim.c ****     RCC_APB2PeriphResetCmd(RCC_APB2Periph_TIM8, ENABLE);
 151              		.loc 1 164 0
 152 00fe 4FF40050 		mov	r0, #8192
 153 0102 4FF00101 		mov	r1, #1
 154 0106 FFF7FEFF 		bl	RCC_APB2PeriphResetCmd
 165:../lib/STM32F10x_StdPeriph_Driver/src/stm32f10x_tim.c ****     RCC_APB2PeriphResetCmd(RCC_APB2Periph_TIM8, DISABLE);
 155              		.loc 1 165 0
 156 010a 4FF40050 		mov	r0, #8192
 157 010e 4FF00001 		mov	r1, #0
 158 0112 FFF7FEFF 		bl	RCC_APB2PeriphResetCmd
 159 0116 97E0     		b	.L1
 160              	.L10:
 166:../lib/STM32F10x_StdPeriph_Driver/src/stm32f10x_tim.c ****   }
 167:../lib/STM32F10x_StdPeriph_Driver/src/stm32f10x_tim.c ****   else if (TIMx == TIM9)
 161              		.loc 1 167 0
 162 0118 7A68     		ldr	r2, [r7, #4]
 163 011a 544B     		ldr	r3, .L19+28
 164 011c 9A42     		cmp	r2, r3
 165 011e 0CD1     		bne	.L11
 168:../lib/STM32F10x_StdPeriph_Driver/src/stm32f10x_tim.c ****   {      
 169:../lib/STM32F10x_StdPeriph_Driver/src/stm32f10x_tim.c ****     RCC_APB2PeriphResetCmd(RCC_APB2Periph_TIM9, ENABLE);
 166              		.loc 1 169 0
 167 0120 4FF40020 		mov	r0, #524288
 168 0124 4FF00101 		mov	r1, #1
 169 0128 FFF7FEFF 		bl	RCC_APB2PeriphResetCmd
 170:../lib/STM32F10x_StdPeriph_Driver/src/stm32f10x_tim.c ****     RCC_APB2PeriphResetCmd(RCC_APB2Periph_TIM9, DISABLE);  
 170              		.loc 1 170 0
 171 012c 4FF40020 		mov	r0, #524288
 172 0130 4FF00001 		mov	r1, #0
 173 0134 FFF7FEFF 		bl	RCC_APB2PeriphResetCmd
 174 0138 86E0     		b	.L1
 175              	.L11:
 171:../lib/STM32F10x_StdPeriph_Driver/src/stm32f10x_tim.c ****    }  
 172:../lib/STM32F10x_StdPeriph_Driver/src/stm32f10x_tim.c ****   else if (TIMx == TIM10)
 176              		.loc 1 172 0
 177 013a 7A68     		ldr	r2, [r7, #4]
 178 013c 4C4B     		ldr	r3, .L19+32
 179 013e 9A42     		cmp	r2, r3
 180 0140 0CD1     		bne	.L12
 173:../lib/STM32F10x_StdPeriph_Driver/src/stm32f10x_tim.c ****   {      
 174:../lib/STM32F10x_StdPeriph_Driver/src/stm32f10x_tim.c ****     RCC_APB2PeriphResetCmd(RCC_APB2Periph_TIM10, ENABLE);
 181              		.loc 1 174 0
 182 0142 4FF48010 		mov	r0, #1048576
 183 0146 4FF00101 		mov	r1, #1
 184 014a FFF7FEFF 		bl	RCC_APB2PeriphResetCmd
 175:../lib/STM32F10x_StdPeriph_Driver/src/stm32f10x_tim.c ****     RCC_APB2PeriphResetCmd(RCC_APB2Periph_TIM10, DISABLE);  
 185              		.loc 1 175 0
 186 014e 4FF48010 		mov	r0, #1048576
 187 0152 4FF00001 		mov	r1, #0
 188 0156 FFF7FEFF 		bl	RCC_APB2PeriphResetCmd
 189 015a 75E0     		b	.L1
 190              	.L12:
 176:../lib/STM32F10x_StdPeriph_Driver/src/stm32f10x_tim.c ****   }  
 177:../lib/STM32F10x_StdPeriph_Driver/src/stm32f10x_tim.c ****   else if (TIMx == TIM11) 
 191              		.loc 1 177 0
 192 015c 7A68     		ldr	r2, [r7, #4]
 193 015e 454B     		ldr	r3, .L19+36
 194 0160 9A42     		cmp	r2, r3
 195 0162 0CD1     		bne	.L13
 178:../lib/STM32F10x_StdPeriph_Driver/src/stm32f10x_tim.c ****   {     
 179:../lib/STM32F10x_StdPeriph_Driver/src/stm32f10x_tim.c ****     RCC_APB2PeriphResetCmd(RCC_APB2Periph_TIM11, ENABLE);
 196              		.loc 1 179 0
 197 0164 4FF40010 		mov	r0, #2097152
 198 0168 4FF00101 		mov	r1, #1
 199 016c FFF7FEFF 		bl	RCC_APB2PeriphResetCmd
 180:../lib/STM32F10x_StdPeriph_Driver/src/stm32f10x_tim.c ****     RCC_APB2PeriphResetCmd(RCC_APB2Periph_TIM11, DISABLE);  
 200              		.loc 1 180 0
 201 0170 4FF40010 		mov	r0, #2097152
 202 0174 4FF00001 		mov	r1, #0
 203 0178 FFF7FEFF 		bl	RCC_APB2PeriphResetCmd
 204 017c 64E0     		b	.L1
 205              	.L13:
 181:../lib/STM32F10x_StdPeriph_Driver/src/stm32f10x_tim.c ****   }  
 182:../lib/STM32F10x_StdPeriph_Driver/src/stm32f10x_tim.c ****   else if (TIMx == TIM12)
 206              		.loc 1 182 0
 207 017e 7A68     		ldr	r2, [r7, #4]
 208 0180 3D4B     		ldr	r3, .L19+40
 209 0182 9A42     		cmp	r2, r3
 210 0184 0CD1     		bne	.L14
 183:../lib/STM32F10x_StdPeriph_Driver/src/stm32f10x_tim.c ****   {      
 184:../lib/STM32F10x_StdPeriph_Driver/src/stm32f10x_tim.c ****     RCC_APB1PeriphResetCmd(RCC_APB1Periph_TIM12, ENABLE);
 211              		.loc 1 184 0
 212 0186 4FF04000 		mov	r0, #64
 213 018a 4FF00101 		mov	r1, #1
 214 018e FFF7FEFF 		bl	RCC_APB1PeriphResetCmd
 185:../lib/STM32F10x_StdPeriph_Driver/src/stm32f10x_tim.c ****     RCC_APB1PeriphResetCmd(RCC_APB1Periph_TIM12, DISABLE);  
 215              		.loc 1 185 0
 216 0192 4FF04000 		mov	r0, #64
 217 0196 4FF00001 		mov	r1, #0
 218 019a FFF7FEFF 		bl	RCC_APB1PeriphResetCmd
 219 019e 53E0     		b	.L1
 220              	.L14:
 186:../lib/STM32F10x_StdPeriph_Driver/src/stm32f10x_tim.c ****   }  
 187:../lib/STM32F10x_StdPeriph_Driver/src/stm32f10x_tim.c ****   else if (TIMx == TIM13) 
 221              		.loc 1 187 0
 222 01a0 7A68     		ldr	r2, [r7, #4]
 223 01a2 364B     		ldr	r3, .L19+44
 224 01a4 9A42     		cmp	r2, r3
 225 01a6 0CD1     		bne	.L15
 188:../lib/STM32F10x_StdPeriph_Driver/src/stm32f10x_tim.c ****   {       
 189:../lib/STM32F10x_StdPeriph_Driver/src/stm32f10x_tim.c ****     RCC_APB1PeriphResetCmd(RCC_APB1Periph_TIM13, ENABLE);
 226              		.loc 1 189 0
 227 01a8 4FF08000 		mov	r0, #128
 228 01ac 4FF00101 		mov	r1, #1
 229 01b0 FFF7FEFF 		bl	RCC_APB1PeriphResetCmd
 190:../lib/STM32F10x_StdPeriph_Driver/src/stm32f10x_tim.c ****     RCC_APB1PeriphResetCmd(RCC_APB1Periph_TIM13, DISABLE);  
 230              		.loc 1 190 0
 231 01b4 4FF08000 		mov	r0, #128
 232 01b8 4FF00001 		mov	r1, #0
 233 01bc FFF7FEFF 		bl	RCC_APB1PeriphResetCmd
 234 01c0 42E0     		b	.L1
 235              	.L15:
 191:../lib/STM32F10x_StdPeriph_Driver/src/stm32f10x_tim.c ****   }
 192:../lib/STM32F10x_StdPeriph_Driver/src/stm32f10x_tim.c ****   else if (TIMx == TIM14) 
 236              		.loc 1 192 0
 237 01c2 7A68     		ldr	r2, [r7, #4]
 238 01c4 2E4B     		ldr	r3, .L19+48
 239 01c6 9A42     		cmp	r2, r3
 240 01c8 0CD1     		bne	.L16
 193:../lib/STM32F10x_StdPeriph_Driver/src/stm32f10x_tim.c ****   {       
 194:../lib/STM32F10x_StdPeriph_Driver/src/stm32f10x_tim.c ****     RCC_APB1PeriphResetCmd(RCC_APB1Periph_TIM14, ENABLE);
 241              		.loc 1 194 0
 242 01ca 4FF48070 		mov	r0, #256
 243 01ce 4FF00101 		mov	r1, #1
 244 01d2 FFF7FEFF 		bl	RCC_APB1PeriphResetCmd
 195:../lib/STM32F10x_StdPeriph_Driver/src/stm32f10x_tim.c ****     RCC_APB1PeriphResetCmd(RCC_APB1Periph_TIM14, DISABLE);  
 245              		.loc 1 195 0
 246 01d6 4FF48070 		mov	r0, #256
 247 01da 4FF00001 		mov	r1, #0
 248 01de FFF7FEFF 		bl	RCC_APB1PeriphResetCmd
 249 01e2 31E0     		b	.L1
 250              	.L16:
 196:../lib/STM32F10x_StdPeriph_Driver/src/stm32f10x_tim.c ****   }        
 197:../lib/STM32F10x_StdPeriph_Driver/src/stm32f10x_tim.c ****   else if (TIMx == TIM15)
 251              		.loc 1 197 0
 252 01e4 7A68     		ldr	r2, [r7, #4]
 253 01e6 274B     		ldr	r3, .L19+52
 254 01e8 9A42     		cmp	r2, r3
 255 01ea 0CD1     		bne	.L17
 198:../lib/STM32F10x_StdPeriph_Driver/src/stm32f10x_tim.c ****   {
 199:../lib/STM32F10x_StdPeriph_Driver/src/stm32f10x_tim.c ****     RCC_APB2PeriphResetCmd(RCC_APB2Periph_TIM15, ENABLE);
 256              		.loc 1 199 0
 257 01ec 4FF48030 		mov	r0, #65536
 258 01f0 4FF00101 		mov	r1, #1
 259 01f4 FFF7FEFF 		bl	RCC_APB2PeriphResetCmd
 200:../lib/STM32F10x_StdPeriph_Driver/src/stm32f10x_tim.c ****     RCC_APB2PeriphResetCmd(RCC_APB2Periph_TIM15, DISABLE);
 260              		.loc 1 200 0
 261 01f8 4FF48030 		mov	r0, #65536
 262 01fc 4FF00001 		mov	r1, #0
 263 0200 FFF7FEFF 		bl	RCC_APB2PeriphResetCmd
 264 0204 20E0     		b	.L1
 265              	.L17:
 201:../lib/STM32F10x_StdPeriph_Driver/src/stm32f10x_tim.c ****   } 
 202:../lib/STM32F10x_StdPeriph_Driver/src/stm32f10x_tim.c ****   else if (TIMx == TIM16)
 266              		.loc 1 202 0
 267 0206 7A68     		ldr	r2, [r7, #4]
 268 0208 1F4B     		ldr	r3, .L19+56
 269 020a 9A42     		cmp	r2, r3
 270 020c 0CD1     		bne	.L18
 203:../lib/STM32F10x_StdPeriph_Driver/src/stm32f10x_tim.c ****   {
 204:../lib/STM32F10x_StdPeriph_Driver/src/stm32f10x_tim.c ****     RCC_APB2PeriphResetCmd(RCC_APB2Periph_TIM16, ENABLE);
 271              		.loc 1 204 0
 272 020e 4FF40030 		mov	r0, #131072
 273 0212 4FF00101 		mov	r1, #1
 274 0216 FFF7FEFF 		bl	RCC_APB2PeriphResetCmd
 205:../lib/STM32F10x_StdPeriph_Driver/src/stm32f10x_tim.c ****     RCC_APB2PeriphResetCmd(RCC_APB2Periph_TIM16, DISABLE);
 275              		.loc 1 205 0
 276 021a 4FF40030 		mov	r0, #131072
 277 021e 4FF00001 		mov	r1, #0
 278 0222 FFF7FEFF 		bl	RCC_APB2PeriphResetCmd
 279 0226 0FE0     		b	.L1
 280              	.L18:
 206:../lib/STM32F10x_StdPeriph_Driver/src/stm32f10x_tim.c ****   } 
 207:../lib/STM32F10x_StdPeriph_Driver/src/stm32f10x_tim.c ****   else
 208:../lib/STM32F10x_StdPeriph_Driver/src/stm32f10x_tim.c ****   {
 209:../lib/STM32F10x_StdPeriph_Driver/src/stm32f10x_tim.c ****     if (TIMx == TIM17)
 281              		.loc 1 209 0
 282 0228 7A68     		ldr	r2, [r7, #4]
 283 022a 184B     		ldr	r3, .L19+60
 284 022c 9A42     		cmp	r2, r3
 285 022e 0BD1     		bne	.L1
 210:../lib/STM32F10x_StdPeriph_Driver/src/stm32f10x_tim.c ****     {
 211:../lib/STM32F10x_StdPeriph_Driver/src/stm32f10x_tim.c ****       RCC_APB2PeriphResetCmd(RCC_APB2Periph_TIM17, ENABLE);
 286              		.loc 1 211 0
 287 0230 4FF48020 		mov	r0, #262144
 288 0234 4FF00101 		mov	r1, #1
 289 0238 FFF7FEFF 		bl	RCC_APB2PeriphResetCmd
 212:../lib/STM32F10x_StdPeriph_Driver/src/stm32f10x_tim.c ****       RCC_APB2PeriphResetCmd(RCC_APB2Periph_TIM17, DISABLE);
 290              		.loc 1 212 0
 291 023c 4FF48020 		mov	r0, #262144
 292 0240 4FF00001 		mov	r1, #0
 293 0244 FFF7FEFF 		bl	RCC_APB2PeriphResetCmd
 294              	.L1:
 213:../lib/STM32F10x_StdPeriph_Driver/src/stm32f10x_tim.c ****     }  
 214:../lib/STM32F10x_StdPeriph_Driver/src/stm32f10x_tim.c ****   }
 215:../lib/STM32F10x_StdPeriph_Driver/src/stm32f10x_tim.c **** }
 295              		.loc 1 215 0
 296 0248 07F10807 		add	r7, r7, #8
 297 024c BD46     		mov	sp, r7
 298 024e 80BD     		pop	{r7, pc}
 299              	.L20:
 300              		.align	2
 301              	.L19:
 302 0250 002C0140 		.word	1073818624
 303 0254 00040040 		.word	1073742848
 304 0258 00080040 		.word	1073743872
 305 025c 000C0040 		.word	1073744896
 306 0260 00100040 		.word	1073745920
 307 0264 00140040 		.word	1073746944
 308 0268 00340140 		.word	1073820672
 309 026c 004C0140 		.word	1073826816
 310 0270 00500140 		.word	1073827840
 311 0274 00540140 		.word	1073828864
 312 0278 00180040 		.word	1073747968
 313 027c 001C0040 		.word	1073748992
 314 0280 00200040 		.word	1073750016
 315 0284 00400140 		.word	1073823744
 316 0288 00440140 		.word	1073824768
 317 028c 00480140 		.word	1073825792
 318              		.cfi_endproc
 319              	.LFE29:
 321              		.align	2
 322              		.global	TIM_TimeBaseInit
 323              		.thumb
 324              		.thumb_func
 326              	TIM_TimeBaseInit:
 327              	.LFB30:
 216:../lib/STM32F10x_StdPeriph_Driver/src/stm32f10x_tim.c **** 
 217:../lib/STM32F10x_StdPeriph_Driver/src/stm32f10x_tim.c **** /**
 218:../lib/STM32F10x_StdPeriph_Driver/src/stm32f10x_tim.c ****   * @brief  Initializes the TIMx Time Base Unit peripheral according to 
 219:../lib/STM32F10x_StdPeriph_Driver/src/stm32f10x_tim.c ****   *         the specified parameters in the TIM_TimeBaseInitStruct.
 220:../lib/STM32F10x_StdPeriph_Driver/src/stm32f10x_tim.c ****   * @param  TIMx: where x can be 1 to 17 to select the TIM peripheral.
 221:../lib/STM32F10x_StdPeriph_Driver/src/stm32f10x_tim.c ****   * @param  TIM_TimeBaseInitStruct: pointer to a TIM_TimeBaseInitTypeDef
 222:../lib/STM32F10x_StdPeriph_Driver/src/stm32f10x_tim.c ****   *         structure that contains the configuration information for the 
 223:../lib/STM32F10x_StdPeriph_Driver/src/stm32f10x_tim.c ****   *         specified TIM peripheral.
 224:../lib/STM32F10x_StdPeriph_Driver/src/stm32f10x_tim.c ****   * @retval None
 225:../lib/STM32F10x_StdPeriph_Driver/src/stm32f10x_tim.c ****   */
 226:../lib/STM32F10x_StdPeriph_Driver/src/stm32f10x_tim.c **** void TIM_TimeBaseInit(TIM_TypeDef* TIMx, TIM_TimeBaseInitTypeDef* TIM_TimeBaseInitStruct)
 227:../lib/STM32F10x_StdPeriph_Driver/src/stm32f10x_tim.c **** {
 328              		.loc 1 227 0
 329              		.cfi_startproc
 330              		@ args = 0, pretend = 0, frame = 16
 331              		@ frame_needed = 1, uses_anonymous_args = 0
 332              		@ link register save eliminated.
 333 0290 80B4     		push	{r7}
 334              	.LCFI3:
 335              		.cfi_def_cfa_offset 4
 336              		.cfi_offset 7, -4
 337 0292 85B0     		sub	sp, sp, #20
 338              	.LCFI4:
 339              		.cfi_def_cfa_offset 24
 340 0294 00AF     		add	r7, sp, #0
 341              	.LCFI5:
 342              		.cfi_def_cfa_register 7
 343 0296 7860     		str	r0, [r7, #4]
 344 0298 3960     		str	r1, [r7, #0]
 228:../lib/STM32F10x_StdPeriph_Driver/src/stm32f10x_tim.c ****   uint16_t tmpcr1 = 0;
 345              		.loc 1 228 0
 346 029a 4FF00003 		mov	r3, #0
 347 029e FB81     		strh	r3, [r7, #14]	@ movhi
 229:../lib/STM32F10x_StdPeriph_Driver/src/stm32f10x_tim.c **** 
 230:../lib/STM32F10x_StdPeriph_Driver/src/stm32f10x_tim.c ****   /* Check the parameters */
 231:../lib/STM32F10x_StdPeriph_Driver/src/stm32f10x_tim.c ****   assert_param(IS_TIM_ALL_PERIPH(TIMx)); 
 232:../lib/STM32F10x_StdPeriph_Driver/src/stm32f10x_tim.c ****   assert_param(IS_TIM_COUNTER_MODE(TIM_TimeBaseInitStruct->TIM_CounterMode));
 233:../lib/STM32F10x_StdPeriph_Driver/src/stm32f10x_tim.c ****   assert_param(IS_TIM_CKD_DIV(TIM_TimeBaseInitStruct->TIM_ClockDivision));
 234:../lib/STM32F10x_StdPeriph_Driver/src/stm32f10x_tim.c **** 
 235:../lib/STM32F10x_StdPeriph_Driver/src/stm32f10x_tim.c ****   tmpcr1 = TIMx->CR1;  
 348              		.loc 1 235 0
 349 02a0 7B68     		ldr	r3, [r7, #4]
 350 02a2 1B88     		ldrh	r3, [r3, #0]	@ movhi
 351 02a4 FB81     		strh	r3, [r7, #14]	@ movhi
 236:../lib/STM32F10x_StdPeriph_Driver/src/stm32f10x_tim.c **** 
 237:../lib/STM32F10x_StdPeriph_Driver/src/stm32f10x_tim.c ****   if((TIMx == TIM1) || (TIMx == TIM8)|| (TIMx == TIM2) || (TIMx == TIM3)||
 352              		.loc 1 237 0
 353 02a6 7A68     		ldr	r2, [r7, #4]
 354 02a8 2E4B     		ldr	r3, .L27
 355 02aa 9A42     		cmp	r2, r3
 356 02ac 13D0     		beq	.L22
 357              		.loc 1 237 0 is_stmt 0 discriminator 1
 358 02ae 7A68     		ldr	r2, [r7, #4]
 359 02b0 2D4B     		ldr	r3, .L27+4
 360 02b2 9A42     		cmp	r2, r3
 361 02b4 0FD0     		beq	.L22
 362 02b6 7B68     		ldr	r3, [r7, #4]
 363 02b8 B3F1804F 		cmp	r3, #1073741824
 364 02bc 0BD0     		beq	.L22
 365 02be 7A68     		ldr	r2, [r7, #4]
 366 02c0 2A4B     		ldr	r3, .L27+8
 367 02c2 9A42     		cmp	r2, r3
 368 02c4 07D0     		beq	.L22
 369 02c6 7A68     		ldr	r2, [r7, #4]
 370 02c8 294B     		ldr	r3, .L27+12
 371 02ca 9A42     		cmp	r2, r3
 372 02cc 03D0     		beq	.L22
 238:../lib/STM32F10x_StdPeriph_Driver/src/stm32f10x_tim.c ****      (TIMx == TIM4) || (TIMx == TIM5)) 
 373              		.loc 1 238 0 is_stmt 1
 374 02ce 7A68     		ldr	r2, [r7, #4]
 375 02d0 284B     		ldr	r3, .L27+16
 376 02d2 9A42     		cmp	r2, r3
 377 02d4 08D1     		bne	.L23
 378              	.L22:
 239:../lib/STM32F10x_StdPeriph_Driver/src/stm32f10x_tim.c ****   {
 240:../lib/STM32F10x_StdPeriph_Driver/src/stm32f10x_tim.c ****     /* Select the Counter Mode */
 241:../lib/STM32F10x_StdPeriph_Driver/src/stm32f10x_tim.c ****     tmpcr1 &= (uint16_t)(~((uint16_t)(TIM_CR1_DIR | TIM_CR1_CMS)));
 379              		.loc 1 241 0
 380 02d6 FB89     		ldrh	r3, [r7, #14]	@ movhi
 381 02d8 23F07003 		bic	r3, r3, #112
 382 02dc FB81     		strh	r3, [r7, #14]	@ movhi
 242:../lib/STM32F10x_StdPeriph_Driver/src/stm32f10x_tim.c ****     tmpcr1 |= (uint32_t)TIM_TimeBaseInitStruct->TIM_CounterMode;
 383              		.loc 1 242 0
 384 02de 3B68     		ldr	r3, [r7, #0]
 385 02e0 5A88     		ldrh	r2, [r3, #2]
 386 02e2 FB89     		ldrh	r3, [r7, #14]	@ movhi
 387 02e4 1343     		orrs	r3, r3, r2
 388 02e6 FB81     		strh	r3, [r7, #14]	@ movhi
 389              	.L23:
 243:../lib/STM32F10x_StdPeriph_Driver/src/stm32f10x_tim.c ****   }
 244:../lib/STM32F10x_StdPeriph_Driver/src/stm32f10x_tim.c ****  
 245:../lib/STM32F10x_StdPeriph_Driver/src/stm32f10x_tim.c ****   if((TIMx != TIM6) && (TIMx != TIM7))
 390              		.loc 1 245 0
 391 02e8 7A68     		ldr	r2, [r7, #4]
 392 02ea 234B     		ldr	r3, .L27+20
 393 02ec 9A42     		cmp	r2, r3
 394 02ee 0CD0     		beq	.L24
 395              		.loc 1 245 0 is_stmt 0 discriminator 1
 396 02f0 7A68     		ldr	r2, [r7, #4]
 397 02f2 224B     		ldr	r3, .L27+24
 398 02f4 9A42     		cmp	r2, r3
 399 02f6 08D0     		beq	.L24
 246:../lib/STM32F10x_StdPeriph_Driver/src/stm32f10x_tim.c ****   {
 247:../lib/STM32F10x_StdPeriph_Driver/src/stm32f10x_tim.c ****     /* Set the clock division */
 248:../lib/STM32F10x_StdPeriph_Driver/src/stm32f10x_tim.c ****     tmpcr1 &= (uint16_t)(~((uint16_t)TIM_CR1_CKD));
 400              		.loc 1 248 0 is_stmt 1
 401 02f8 FB89     		ldrh	r3, [r7, #14]	@ movhi
 402 02fa 23F44073 		bic	r3, r3, #768
 403 02fe FB81     		strh	r3, [r7, #14]	@ movhi
 249:../lib/STM32F10x_StdPeriph_Driver/src/stm32f10x_tim.c ****     tmpcr1 |= (uint32_t)TIM_TimeBaseInitStruct->TIM_ClockDivision;
 404              		.loc 1 249 0
 405 0300 3B68     		ldr	r3, [r7, #0]
 406 0302 DA88     		ldrh	r2, [r3, #6]
 407 0304 FB89     		ldrh	r3, [r7, #14]	@ movhi
 408 0306 1343     		orrs	r3, r3, r2
 409 0308 FB81     		strh	r3, [r7, #14]	@ movhi
 410              	.L24:
 250:../lib/STM32F10x_StdPeriph_Driver/src/stm32f10x_tim.c ****   }
 251:../lib/STM32F10x_StdPeriph_Driver/src/stm32f10x_tim.c **** 
 252:../lib/STM32F10x_StdPeriph_Driver/src/stm32f10x_tim.c ****   TIMx->CR1 = tmpcr1;
 411              		.loc 1 252 0
 412 030a 7B68     		ldr	r3, [r7, #4]
 413 030c FA89     		ldrh	r2, [r7, #14]	@ movhi
 414 030e 1A80     		strh	r2, [r3, #0]	@ movhi
 253:../lib/STM32F10x_StdPeriph_Driver/src/stm32f10x_tim.c **** 
 254:../lib/STM32F10x_StdPeriph_Driver/src/stm32f10x_tim.c ****   /* Set the Autoreload value */
 255:../lib/STM32F10x_StdPeriph_Driver/src/stm32f10x_tim.c ****   TIMx->ARR = TIM_TimeBaseInitStruct->TIM_Period ;
 415              		.loc 1 255 0
 416 0310 3B68     		ldr	r3, [r7, #0]
 417 0312 9A88     		ldrh	r2, [r3, #4]
 418 0314 7B68     		ldr	r3, [r7, #4]
 419 0316 9A85     		strh	r2, [r3, #44]	@ movhi
 256:../lib/STM32F10x_StdPeriph_Driver/src/stm32f10x_tim.c ****  
 257:../lib/STM32F10x_StdPeriph_Driver/src/stm32f10x_tim.c ****   /* Set the Prescaler value */
 258:../lib/STM32F10x_StdPeriph_Driver/src/stm32f10x_tim.c ****   TIMx->PSC = TIM_TimeBaseInitStruct->TIM_Prescaler;
 420              		.loc 1 258 0
 421 0318 3B68     		ldr	r3, [r7, #0]
 422 031a 1A88     		ldrh	r2, [r3, #0]
 423 031c 7B68     		ldr	r3, [r7, #4]
 424 031e 1A85     		strh	r2, [r3, #40]	@ movhi
 259:../lib/STM32F10x_StdPeriph_Driver/src/stm32f10x_tim.c ****     
 260:../lib/STM32F10x_StdPeriph_Driver/src/stm32f10x_tim.c ****   if ((TIMx == TIM1) || (TIMx == TIM8)|| (TIMx == TIM15)|| (TIMx == TIM16) || (TIMx == TIM17))  
 425              		.loc 1 260 0
 426 0320 7A68     		ldr	r2, [r7, #4]
 427 0322 104B     		ldr	r3, .L27
 428 0324 9A42     		cmp	r2, r3
 429 0326 0FD0     		beq	.L25
 430              		.loc 1 260 0 is_stmt 0 discriminator 1
 431 0328 7A68     		ldr	r2, [r7, #4]
 432 032a 0F4B     		ldr	r3, .L27+4
 433 032c 9A42     		cmp	r2, r3
 434 032e 0BD0     		beq	.L25
 435 0330 7A68     		ldr	r2, [r7, #4]
 436 0332 134B     		ldr	r3, .L27+28
 437 0334 9A42     		cmp	r2, r3
 438 0336 07D0     		beq	.L25
 439 0338 7A68     		ldr	r2, [r7, #4]
 440 033a 124B     		ldr	r3, .L27+32
 441 033c 9A42     		cmp	r2, r3
 442 033e 03D0     		beq	.L25
 443 0340 7A68     		ldr	r2, [r7, #4]
 444 0342 114B     		ldr	r3, .L27+36
 445 0344 9A42     		cmp	r2, r3
 446 0346 04D1     		bne	.L26
 447              	.L25:
 261:../lib/STM32F10x_StdPeriph_Driver/src/stm32f10x_tim.c ****   {
 262:../lib/STM32F10x_StdPeriph_Driver/src/stm32f10x_tim.c ****     /* Set the Repetition Counter value */
 263:../lib/STM32F10x_StdPeriph_Driver/src/stm32f10x_tim.c ****     TIMx->RCR = TIM_TimeBaseInitStruct->TIM_RepetitionCounter;
 448              		.loc 1 263 0 is_stmt 1
 449 0348 3B68     		ldr	r3, [r7, #0]
 450 034a 1B7A     		ldrb	r3, [r3, #8]	@ zero_extendqisi2
 451 034c 1A46     		mov	r2, r3
 452 034e 7B68     		ldr	r3, [r7, #4]
 453 0350 1A86     		strh	r2, [r3, #48]	@ movhi
 454              	.L26:
 264:../lib/STM32F10x_StdPeriph_Driver/src/stm32f10x_tim.c ****   }
 265:../lib/STM32F10x_StdPeriph_Driver/src/stm32f10x_tim.c **** 
 266:../lib/STM32F10x_StdPeriph_Driver/src/stm32f10x_tim.c ****   /* Generate an update event to reload the Prescaler and the Repetition counter
 267:../lib/STM32F10x_StdPeriph_Driver/src/stm32f10x_tim.c ****      values immediately */
 268:../lib/STM32F10x_StdPeriph_Driver/src/stm32f10x_tim.c ****   TIMx->EGR = TIM_PSCReloadMode_Immediate;           
 455              		.loc 1 268 0
 456 0352 7B68     		ldr	r3, [r7, #4]
 457 0354 4FF00102 		mov	r2, #1
 458 0358 9A82     		strh	r2, [r3, #20]	@ movhi
 269:../lib/STM32F10x_StdPeriph_Driver/src/stm32f10x_tim.c **** }
 459              		.loc 1 269 0
 460 035a 07F11407 		add	r7, r7, #20
 461 035e BD46     		mov	sp, r7
 462 0360 80BC     		pop	{r7}
 463 0362 7047     		bx	lr
 464              	.L28:
 465              		.align	2
 466              	.L27:
 467 0364 002C0140 		.word	1073818624
 468 0368 00340140 		.word	1073820672
 469 036c 00040040 		.word	1073742848
 470 0370 00080040 		.word	1073743872
 471 0374 000C0040 		.word	1073744896
 472 0378 00100040 		.word	1073745920
 473 037c 00140040 		.word	1073746944
 474 0380 00400140 		.word	1073823744
 475 0384 00440140 		.word	1073824768
 476 0388 00480140 		.word	1073825792
 477              		.cfi_endproc
 478              	.LFE30:
 480              		.align	2
 481              		.global	TIM_OC1Init
 482              		.thumb
 483              		.thumb_func
 485              	TIM_OC1Init:
 486              	.LFB31:
 270:../lib/STM32F10x_StdPeriph_Driver/src/stm32f10x_tim.c **** 
 271:../lib/STM32F10x_StdPeriph_Driver/src/stm32f10x_tim.c **** /**
 272:../lib/STM32F10x_StdPeriph_Driver/src/stm32f10x_tim.c ****   * @brief  Initializes the TIMx Channel1 according to the specified
 273:../lib/STM32F10x_StdPeriph_Driver/src/stm32f10x_tim.c ****   *         parameters in the TIM_OCInitStruct.
 274:../lib/STM32F10x_StdPeriph_Driver/src/stm32f10x_tim.c ****   * @param  TIMx: where x can be  1 to 17 except 6 and 7 to select the TIM peripheral.
 275:../lib/STM32F10x_StdPeriph_Driver/src/stm32f10x_tim.c ****   * @param  TIM_OCInitStruct: pointer to a TIM_OCInitTypeDef structure
 276:../lib/STM32F10x_StdPeriph_Driver/src/stm32f10x_tim.c ****   *         that contains the configuration information for the specified TIM peripheral.
 277:../lib/STM32F10x_StdPeriph_Driver/src/stm32f10x_tim.c ****   * @retval None
 278:../lib/STM32F10x_StdPeriph_Driver/src/stm32f10x_tim.c ****   */
 279:../lib/STM32F10x_StdPeriph_Driver/src/stm32f10x_tim.c **** void TIM_OC1Init(TIM_TypeDef* TIMx, TIM_OCInitTypeDef* TIM_OCInitStruct)
 280:../lib/STM32F10x_StdPeriph_Driver/src/stm32f10x_tim.c **** {
 487              		.loc 1 280 0
 488              		.cfi_startproc
 489              		@ args = 0, pretend = 0, frame = 16
 490              		@ frame_needed = 1, uses_anonymous_args = 0
 491              		@ link register save eliminated.
 492 038c 80B4     		push	{r7}
 493              	.LCFI6:
 494              		.cfi_def_cfa_offset 4
 495              		.cfi_offset 7, -4
 496 038e 85B0     		sub	sp, sp, #20
 497              	.LCFI7:
 498              		.cfi_def_cfa_offset 24
 499 0390 00AF     		add	r7, sp, #0
 500              	.LCFI8:
 501              		.cfi_def_cfa_register 7
 502 0392 7860     		str	r0, [r7, #4]
 503 0394 3960     		str	r1, [r7, #0]
 281:../lib/STM32F10x_StdPeriph_Driver/src/stm32f10x_tim.c ****   uint16_t tmpccmrx = 0, tmpccer = 0, tmpcr2 = 0;
 504              		.loc 1 281 0
 505 0396 4FF00003 		mov	r3, #0
 506 039a 7B81     		strh	r3, [r7, #10]	@ movhi
 507 039c 4FF00003 		mov	r3, #0
 508 03a0 FB81     		strh	r3, [r7, #14]	@ movhi
 509 03a2 4FF00003 		mov	r3, #0
 510 03a6 BB81     		strh	r3, [r7, #12]	@ movhi
 282:../lib/STM32F10x_StdPeriph_Driver/src/stm32f10x_tim.c ****    
 283:../lib/STM32F10x_StdPeriph_Driver/src/stm32f10x_tim.c ****   /* Check the parameters */
 284:../lib/STM32F10x_StdPeriph_Driver/src/stm32f10x_tim.c ****   assert_param(IS_TIM_LIST8_PERIPH(TIMx));
 285:../lib/STM32F10x_StdPeriph_Driver/src/stm32f10x_tim.c ****   assert_param(IS_TIM_OC_MODE(TIM_OCInitStruct->TIM_OCMode));
 286:../lib/STM32F10x_StdPeriph_Driver/src/stm32f10x_tim.c ****   assert_param(IS_TIM_OUTPUT_STATE(TIM_OCInitStruct->TIM_OutputState));
 287:../lib/STM32F10x_StdPeriph_Driver/src/stm32f10x_tim.c ****   assert_param(IS_TIM_OC_POLARITY(TIM_OCInitStruct->TIM_OCPolarity));   
 288:../lib/STM32F10x_StdPeriph_Driver/src/stm32f10x_tim.c ****  /* Disable the Channel 1: Reset the CC1E Bit */
 289:../lib/STM32F10x_StdPeriph_Driver/src/stm32f10x_tim.c ****   TIMx->CCER &= (uint16_t)(~(uint16_t)TIM_CCER_CC1E);
 511              		.loc 1 289 0
 512 03a8 7B68     		ldr	r3, [r7, #4]
 513 03aa 1B8C     		ldrh	r3, [r3, #32]	@ movhi
 514 03ac 9BB2     		uxth	r3, r3
 515 03ae 23F00103 		bic	r3, r3, #1
 516 03b2 9AB2     		uxth	r2, r3
 517 03b4 7B68     		ldr	r3, [r7, #4]
 518 03b6 1A84     		strh	r2, [r3, #32]	@ movhi
 290:../lib/STM32F10x_StdPeriph_Driver/src/stm32f10x_tim.c ****   /* Get the TIMx CCER register value */
 291:../lib/STM32F10x_StdPeriph_Driver/src/stm32f10x_tim.c ****   tmpccer = TIMx->CCER;
 519              		.loc 1 291 0
 520 03b8 7B68     		ldr	r3, [r7, #4]
 521 03ba 1B8C     		ldrh	r3, [r3, #32]	@ movhi
 522 03bc FB81     		strh	r3, [r7, #14]	@ movhi
 292:../lib/STM32F10x_StdPeriph_Driver/src/stm32f10x_tim.c ****   /* Get the TIMx CR2 register value */
 293:../lib/STM32F10x_StdPeriph_Driver/src/stm32f10x_tim.c ****   tmpcr2 =  TIMx->CR2;
 523              		.loc 1 293 0
 524 03be 7B68     		ldr	r3, [r7, #4]
 525 03c0 9B88     		ldrh	r3, [r3, #4]	@ movhi
 526 03c2 BB81     		strh	r3, [r7, #12]	@ movhi
 294:../lib/STM32F10x_StdPeriph_Driver/src/stm32f10x_tim.c ****   
 295:../lib/STM32F10x_StdPeriph_Driver/src/stm32f10x_tim.c ****   /* Get the TIMx CCMR1 register value */
 296:../lib/STM32F10x_StdPeriph_Driver/src/stm32f10x_tim.c ****   tmpccmrx = TIMx->CCMR1;
 527              		.loc 1 296 0
 528 03c4 7B68     		ldr	r3, [r7, #4]
 529 03c6 1B8B     		ldrh	r3, [r3, #24]	@ movhi
 530 03c8 7B81     		strh	r3, [r7, #10]	@ movhi
 297:../lib/STM32F10x_StdPeriph_Driver/src/stm32f10x_tim.c ****     
 298:../lib/STM32F10x_StdPeriph_Driver/src/stm32f10x_tim.c ****   /* Reset the Output Compare Mode Bits */
 299:../lib/STM32F10x_StdPeriph_Driver/src/stm32f10x_tim.c ****   tmpccmrx &= (uint16_t)(~((uint16_t)TIM_CCMR1_OC1M));
 531              		.loc 1 299 0
 532 03ca 7B89     		ldrh	r3, [r7, #10]	@ movhi
 533 03cc 23F07003 		bic	r3, r3, #112
 534 03d0 7B81     		strh	r3, [r7, #10]	@ movhi
 300:../lib/STM32F10x_StdPeriph_Driver/src/stm32f10x_tim.c ****   tmpccmrx &= (uint16_t)(~((uint16_t)TIM_CCMR1_CC1S));
 535              		.loc 1 300 0
 536 03d2 7B89     		ldrh	r3, [r7, #10]	@ movhi
 537 03d4 23F00303 		bic	r3, r3, #3
 538 03d8 7B81     		strh	r3, [r7, #10]	@ movhi
 301:../lib/STM32F10x_StdPeriph_Driver/src/stm32f10x_tim.c **** 
 302:../lib/STM32F10x_StdPeriph_Driver/src/stm32f10x_tim.c ****   /* Select the Output Compare Mode */
 303:../lib/STM32F10x_StdPeriph_Driver/src/stm32f10x_tim.c ****   tmpccmrx |= TIM_OCInitStruct->TIM_OCMode;
 539              		.loc 1 303 0
 540 03da 3B68     		ldr	r3, [r7, #0]
 541 03dc 1A88     		ldrh	r2, [r3, #0]
 542 03de 7B89     		ldrh	r3, [r7, #10]	@ movhi
 543 03e0 1343     		orrs	r3, r3, r2
 544 03e2 7B81     		strh	r3, [r7, #10]	@ movhi
 304:../lib/STM32F10x_StdPeriph_Driver/src/stm32f10x_tim.c ****   
 305:../lib/STM32F10x_StdPeriph_Driver/src/stm32f10x_tim.c ****   /* Reset the Output Polarity level */
 306:../lib/STM32F10x_StdPeriph_Driver/src/stm32f10x_tim.c ****   tmpccer &= (uint16_t)(~((uint16_t)TIM_CCER_CC1P));
 545              		.loc 1 306 0
 546 03e4 FB89     		ldrh	r3, [r7, #14]	@ movhi
 547 03e6 23F00203 		bic	r3, r3, #2
 548 03ea FB81     		strh	r3, [r7, #14]	@ movhi
 307:../lib/STM32F10x_StdPeriph_Driver/src/stm32f10x_tim.c ****   /* Set the Output Compare Polarity */
 308:../lib/STM32F10x_StdPeriph_Driver/src/stm32f10x_tim.c ****   tmpccer |= TIM_OCInitStruct->TIM_OCPolarity;
 549              		.loc 1 308 0
 550 03ec 3B68     		ldr	r3, [r7, #0]
 551 03ee 1A89     		ldrh	r2, [r3, #8]
 552 03f0 FB89     		ldrh	r3, [r7, #14]	@ movhi
 553 03f2 1343     		orrs	r3, r3, r2
 554 03f4 FB81     		strh	r3, [r7, #14]	@ movhi
 309:../lib/STM32F10x_StdPeriph_Driver/src/stm32f10x_tim.c ****   
 310:../lib/STM32F10x_StdPeriph_Driver/src/stm32f10x_tim.c ****   /* Set the Output State */
 311:../lib/STM32F10x_StdPeriph_Driver/src/stm32f10x_tim.c ****   tmpccer |= TIM_OCInitStruct->TIM_OutputState;
 555              		.loc 1 311 0
 556 03f6 3B68     		ldr	r3, [r7, #0]
 557 03f8 5A88     		ldrh	r2, [r3, #2]
 558 03fa FB89     		ldrh	r3, [r7, #14]	@ movhi
 559 03fc 1343     		orrs	r3, r3, r2
 560 03fe FB81     		strh	r3, [r7, #14]	@ movhi
 312:../lib/STM32F10x_StdPeriph_Driver/src/stm32f10x_tim.c ****     
 313:../lib/STM32F10x_StdPeriph_Driver/src/stm32f10x_tim.c ****   if((TIMx == TIM1) || (TIMx == TIM8)|| (TIMx == TIM15)||
 561              		.loc 1 313 0
 562 0400 7A68     		ldr	r2, [r7, #4]
 563 0402 244B     		ldr	r3, .L32
 564 0404 9A42     		cmp	r2, r3
 565 0406 0FD0     		beq	.L30
 566              		.loc 1 313 0 is_stmt 0 discriminator 1
 567 0408 7A68     		ldr	r2, [r7, #4]
 568 040a 234B     		ldr	r3, .L32+4
 569 040c 9A42     		cmp	r2, r3
 570 040e 0BD0     		beq	.L30
 571 0410 7A68     		ldr	r2, [r7, #4]
 572 0412 224B     		ldr	r3, .L32+8
 573 0414 9A42     		cmp	r2, r3
 574 0416 07D0     		beq	.L30
 575 0418 7A68     		ldr	r2, [r7, #4]
 576 041a 214B     		ldr	r3, .L32+12
 577 041c 9A42     		cmp	r2, r3
 578 041e 03D0     		beq	.L30
 314:../lib/STM32F10x_StdPeriph_Driver/src/stm32f10x_tim.c ****      (TIMx == TIM16)|| (TIMx == TIM17))
 579              		.loc 1 314 0 is_stmt 1
 580 0420 7A68     		ldr	r2, [r7, #4]
 581 0422 204B     		ldr	r3, .L32+16
 582 0424 9A42     		cmp	r2, r3
 583 0426 23D1     		bne	.L31
 584              	.L30:
 315:../lib/STM32F10x_StdPeriph_Driver/src/stm32f10x_tim.c ****   {
 316:../lib/STM32F10x_StdPeriph_Driver/src/stm32f10x_tim.c ****     assert_param(IS_TIM_OUTPUTN_STATE(TIM_OCInitStruct->TIM_OutputNState));
 317:../lib/STM32F10x_StdPeriph_Driver/src/stm32f10x_tim.c ****     assert_param(IS_TIM_OCN_POLARITY(TIM_OCInitStruct->TIM_OCNPolarity));
 318:../lib/STM32F10x_StdPeriph_Driver/src/stm32f10x_tim.c ****     assert_param(IS_TIM_OCNIDLE_STATE(TIM_OCInitStruct->TIM_OCNIdleState));
 319:../lib/STM32F10x_StdPeriph_Driver/src/stm32f10x_tim.c ****     assert_param(IS_TIM_OCIDLE_STATE(TIM_OCInitStruct->TIM_OCIdleState));
 320:../lib/STM32F10x_StdPeriph_Driver/src/stm32f10x_tim.c ****     
 321:../lib/STM32F10x_StdPeriph_Driver/src/stm32f10x_tim.c ****     /* Reset the Output N Polarity level */
 322:../lib/STM32F10x_StdPeriph_Driver/src/stm32f10x_tim.c ****     tmpccer &= (uint16_t)(~((uint16_t)TIM_CCER_CC1NP));
 585              		.loc 1 322 0
 586 0428 FB89     		ldrh	r3, [r7, #14]	@ movhi
 587 042a 23F00803 		bic	r3, r3, #8
 588 042e FB81     		strh	r3, [r7, #14]	@ movhi
 323:../lib/STM32F10x_StdPeriph_Driver/src/stm32f10x_tim.c ****     /* Set the Output N Polarity */
 324:../lib/STM32F10x_StdPeriph_Driver/src/stm32f10x_tim.c ****     tmpccer |= TIM_OCInitStruct->TIM_OCNPolarity;
 589              		.loc 1 324 0
 590 0430 3B68     		ldr	r3, [r7, #0]
 591 0432 5A89     		ldrh	r2, [r3, #10]
 592 0434 FB89     		ldrh	r3, [r7, #14]	@ movhi
 593 0436 1343     		orrs	r3, r3, r2
 594 0438 FB81     		strh	r3, [r7, #14]	@ movhi
 325:../lib/STM32F10x_StdPeriph_Driver/src/stm32f10x_tim.c ****     
 326:../lib/STM32F10x_StdPeriph_Driver/src/stm32f10x_tim.c ****     /* Reset the Output N State */
 327:../lib/STM32F10x_StdPeriph_Driver/src/stm32f10x_tim.c ****     tmpccer &= (uint16_t)(~((uint16_t)TIM_CCER_CC1NE));    
 595              		.loc 1 327 0
 596 043a FB89     		ldrh	r3, [r7, #14]	@ movhi
 597 043c 23F00403 		bic	r3, r3, #4
 598 0440 FB81     		strh	r3, [r7, #14]	@ movhi
 328:../lib/STM32F10x_StdPeriph_Driver/src/stm32f10x_tim.c ****     /* Set the Output N State */
 329:../lib/STM32F10x_StdPeriph_Driver/src/stm32f10x_tim.c ****     tmpccer |= TIM_OCInitStruct->TIM_OutputNState;
 599              		.loc 1 329 0
 600 0442 3B68     		ldr	r3, [r7, #0]
 601 0444 9A88     		ldrh	r2, [r3, #4]
 602 0446 FB89     		ldrh	r3, [r7, #14]	@ movhi
 603 0448 1343     		orrs	r3, r3, r2
 604 044a FB81     		strh	r3, [r7, #14]	@ movhi
 330:../lib/STM32F10x_StdPeriph_Driver/src/stm32f10x_tim.c ****     
 331:../lib/STM32F10x_StdPeriph_Driver/src/stm32f10x_tim.c ****     /* Reset the Output Compare and Output Compare N IDLE State */
 332:../lib/STM32F10x_StdPeriph_Driver/src/stm32f10x_tim.c ****     tmpcr2 &= (uint16_t)(~((uint16_t)TIM_CR2_OIS1));
 605              		.loc 1 332 0
 606 044c BB89     		ldrh	r3, [r7, #12]	@ movhi
 607 044e 23F48073 		bic	r3, r3, #256
 608 0452 BB81     		strh	r3, [r7, #12]	@ movhi
 333:../lib/STM32F10x_StdPeriph_Driver/src/stm32f10x_tim.c ****     tmpcr2 &= (uint16_t)(~((uint16_t)TIM_CR2_OIS1N));
 609              		.loc 1 333 0
 610 0454 BB89     		ldrh	r3, [r7, #12]	@ movhi
 611 0456 23F40073 		bic	r3, r3, #512
 612 045a BB81     		strh	r3, [r7, #12]	@ movhi
 334:../lib/STM32F10x_StdPeriph_Driver/src/stm32f10x_tim.c ****     
 335:../lib/STM32F10x_StdPeriph_Driver/src/stm32f10x_tim.c ****     /* Set the Output Idle state */
 336:../lib/STM32F10x_StdPeriph_Driver/src/stm32f10x_tim.c ****     tmpcr2 |= TIM_OCInitStruct->TIM_OCIdleState;
 613              		.loc 1 336 0
 614 045c 3B68     		ldr	r3, [r7, #0]
 615 045e 9A89     		ldrh	r2, [r3, #12]
 616 0460 BB89     		ldrh	r3, [r7, #12]	@ movhi
 617 0462 1343     		orrs	r3, r3, r2
 618 0464 BB81     		strh	r3, [r7, #12]	@ movhi
 337:../lib/STM32F10x_StdPeriph_Driver/src/stm32f10x_tim.c ****     /* Set the Output N Idle state */
 338:../lib/STM32F10x_StdPeriph_Driver/src/stm32f10x_tim.c ****     tmpcr2 |= TIM_OCInitStruct->TIM_OCNIdleState;
 619              		.loc 1 338 0
 620 0466 3B68     		ldr	r3, [r7, #0]
 621 0468 DA89     		ldrh	r2, [r3, #14]
 622 046a BB89     		ldrh	r3, [r7, #12]	@ movhi
 623 046c 1343     		orrs	r3, r3, r2
 624 046e BB81     		strh	r3, [r7, #12]	@ movhi
 625              	.L31:
 339:../lib/STM32F10x_StdPeriph_Driver/src/stm32f10x_tim.c ****   }
 340:../lib/STM32F10x_StdPeriph_Driver/src/stm32f10x_tim.c ****   /* Write to TIMx CR2 */
 341:../lib/STM32F10x_StdPeriph_Driver/src/stm32f10x_tim.c ****   TIMx->CR2 = tmpcr2;
 626              		.loc 1 341 0
 627 0470 7B68     		ldr	r3, [r7, #4]
 628 0472 BA89     		ldrh	r2, [r7, #12]	@ movhi
 629 0474 9A80     		strh	r2, [r3, #4]	@ movhi
 342:../lib/STM32F10x_StdPeriph_Driver/src/stm32f10x_tim.c ****   
 343:../lib/STM32F10x_StdPeriph_Driver/src/stm32f10x_tim.c ****   /* Write to TIMx CCMR1 */
 344:../lib/STM32F10x_StdPeriph_Driver/src/stm32f10x_tim.c ****   TIMx->CCMR1 = tmpccmrx;
 630              		.loc 1 344 0
 631 0476 7B68     		ldr	r3, [r7, #4]
 632 0478 7A89     		ldrh	r2, [r7, #10]	@ movhi
 633 047a 1A83     		strh	r2, [r3, #24]	@ movhi
 345:../lib/STM32F10x_StdPeriph_Driver/src/stm32f10x_tim.c **** 
 346:../lib/STM32F10x_StdPeriph_Driver/src/stm32f10x_tim.c ****   /* Set the Capture Compare Register value */
 347:../lib/STM32F10x_StdPeriph_Driver/src/stm32f10x_tim.c ****   TIMx->CCR1 = TIM_OCInitStruct->TIM_Pulse; 
 634              		.loc 1 347 0
 635 047c 3B68     		ldr	r3, [r7, #0]
 636 047e DA88     		ldrh	r2, [r3, #6]
 637 0480 7B68     		ldr	r3, [r7, #4]
 638 0482 9A86     		strh	r2, [r3, #52]	@ movhi
 348:../lib/STM32F10x_StdPeriph_Driver/src/stm32f10x_tim.c ****  
 349:../lib/STM32F10x_StdPeriph_Driver/src/stm32f10x_tim.c ****   /* Write to TIMx CCER */
 350:../lib/STM32F10x_StdPeriph_Driver/src/stm32f10x_tim.c ****   TIMx->CCER = tmpccer;
 639              		.loc 1 350 0
 640 0484 7B68     		ldr	r3, [r7, #4]
 641 0486 FA89     		ldrh	r2, [r7, #14]	@ movhi
 642 0488 1A84     		strh	r2, [r3, #32]	@ movhi
 351:../lib/STM32F10x_StdPeriph_Driver/src/stm32f10x_tim.c **** }
 643              		.loc 1 351 0
 644 048a 07F11407 		add	r7, r7, #20
 645 048e BD46     		mov	sp, r7
 646 0490 80BC     		pop	{r7}
 647 0492 7047     		bx	lr
 648              	.L33:
 649              		.align	2
 650              	.L32:
 651 0494 002C0140 		.word	1073818624
 652 0498 00340140 		.word	1073820672
 653 049c 00400140 		.word	1073823744
 654 04a0 00440140 		.word	1073824768
 655 04a4 00480140 		.word	1073825792
 656              		.cfi_endproc
 657              	.LFE31:
 659              		.align	2
 660              		.global	TIM_OC2Init
 661              		.thumb
 662              		.thumb_func
 664              	TIM_OC2Init:
 665              	.LFB32:
 352:../lib/STM32F10x_StdPeriph_Driver/src/stm32f10x_tim.c **** 
 353:../lib/STM32F10x_StdPeriph_Driver/src/stm32f10x_tim.c **** /**
 354:../lib/STM32F10x_StdPeriph_Driver/src/stm32f10x_tim.c ****   * @brief  Initializes the TIMx Channel2 according to the specified
 355:../lib/STM32F10x_StdPeriph_Driver/src/stm32f10x_tim.c ****   *         parameters in the TIM_OCInitStruct.
 356:../lib/STM32F10x_StdPeriph_Driver/src/stm32f10x_tim.c ****   * @param  TIMx: where x can be  1, 2, 3, 4, 5, 8, 9, 12 or 15 to select 
 357:../lib/STM32F10x_StdPeriph_Driver/src/stm32f10x_tim.c ****   *         the TIM peripheral.
 358:../lib/STM32F10x_StdPeriph_Driver/src/stm32f10x_tim.c ****   * @param  TIM_OCInitStruct: pointer to a TIM_OCInitTypeDef structure
 359:../lib/STM32F10x_StdPeriph_Driver/src/stm32f10x_tim.c ****   *         that contains the configuration information for the specified TIM peripheral.
 360:../lib/STM32F10x_StdPeriph_Driver/src/stm32f10x_tim.c ****   * @retval None
 361:../lib/STM32F10x_StdPeriph_Driver/src/stm32f10x_tim.c ****   */
 362:../lib/STM32F10x_StdPeriph_Driver/src/stm32f10x_tim.c **** void TIM_OC2Init(TIM_TypeDef* TIMx, TIM_OCInitTypeDef* TIM_OCInitStruct)
 363:../lib/STM32F10x_StdPeriph_Driver/src/stm32f10x_tim.c **** {
 666              		.loc 1 363 0
 667              		.cfi_startproc
 668              		@ args = 0, pretend = 0, frame = 16
 669              		@ frame_needed = 1, uses_anonymous_args = 0
 670              		@ link register save eliminated.
 671 04a8 80B4     		push	{r7}
 672              	.LCFI9:
 673              		.cfi_def_cfa_offset 4
 674              		.cfi_offset 7, -4
 675 04aa 85B0     		sub	sp, sp, #20
 676              	.LCFI10:
 677              		.cfi_def_cfa_offset 24
 678 04ac 00AF     		add	r7, sp, #0
 679              	.LCFI11:
 680              		.cfi_def_cfa_register 7
 681 04ae 7860     		str	r0, [r7, #4]
 682 04b0 3960     		str	r1, [r7, #0]
 364:../lib/STM32F10x_StdPeriph_Driver/src/stm32f10x_tim.c ****   uint16_t tmpccmrx = 0, tmpccer = 0, tmpcr2 = 0;
 683              		.loc 1 364 0
 684 04b2 4FF00003 		mov	r3, #0
 685 04b6 7B81     		strh	r3, [r7, #10]	@ movhi
 686 04b8 4FF00003 		mov	r3, #0
 687 04bc FB81     		strh	r3, [r7, #14]	@ movhi
 688 04be 4FF00003 		mov	r3, #0
 689 04c2 BB81     		strh	r3, [r7, #12]	@ movhi
 365:../lib/STM32F10x_StdPeriph_Driver/src/stm32f10x_tim.c ****    
 366:../lib/STM32F10x_StdPeriph_Driver/src/stm32f10x_tim.c ****   /* Check the parameters */
 367:../lib/STM32F10x_StdPeriph_Driver/src/stm32f10x_tim.c ****   assert_param(IS_TIM_LIST6_PERIPH(TIMx)); 
 368:../lib/STM32F10x_StdPeriph_Driver/src/stm32f10x_tim.c ****   assert_param(IS_TIM_OC_MODE(TIM_OCInitStruct->TIM_OCMode));
 369:../lib/STM32F10x_StdPeriph_Driver/src/stm32f10x_tim.c ****   assert_param(IS_TIM_OUTPUT_STATE(TIM_OCInitStruct->TIM_OutputState));
 370:../lib/STM32F10x_StdPeriph_Driver/src/stm32f10x_tim.c ****   assert_param(IS_TIM_OC_POLARITY(TIM_OCInitStruct->TIM_OCPolarity));   
 371:../lib/STM32F10x_StdPeriph_Driver/src/stm32f10x_tim.c ****    /* Disable the Channel 2: Reset the CC2E Bit */
 372:../lib/STM32F10x_StdPeriph_Driver/src/stm32f10x_tim.c ****   TIMx->CCER &= (uint16_t)(~((uint16_t)TIM_CCER_CC2E));
 690              		.loc 1 372 0
 691 04c4 7B68     		ldr	r3, [r7, #4]
 692 04c6 1B8C     		ldrh	r3, [r3, #32]	@ movhi
 693 04c8 9BB2     		uxth	r3, r3
 694 04ca 23F01003 		bic	r3, r3, #16
 695 04ce 9AB2     		uxth	r2, r3
 696 04d0 7B68     		ldr	r3, [r7, #4]
 697 04d2 1A84     		strh	r2, [r3, #32]	@ movhi
 373:../lib/STM32F10x_StdPeriph_Driver/src/stm32f10x_tim.c ****   
 374:../lib/STM32F10x_StdPeriph_Driver/src/stm32f10x_tim.c ****   /* Get the TIMx CCER register value */  
 375:../lib/STM32F10x_StdPeriph_Driver/src/stm32f10x_tim.c ****   tmpccer = TIMx->CCER;
 698              		.loc 1 375 0
 699 04d4 7B68     		ldr	r3, [r7, #4]
 700 04d6 1B8C     		ldrh	r3, [r3, #32]	@ movhi
 701 04d8 FB81     		strh	r3, [r7, #14]	@ movhi
 376:../lib/STM32F10x_StdPeriph_Driver/src/stm32f10x_tim.c ****   /* Get the TIMx CR2 register value */
 377:../lib/STM32F10x_StdPeriph_Driver/src/stm32f10x_tim.c ****   tmpcr2 =  TIMx->CR2;
 702              		.loc 1 377 0
 703 04da 7B68     		ldr	r3, [r7, #4]
 704 04dc 9B88     		ldrh	r3, [r3, #4]	@ movhi
 705 04de BB81     		strh	r3, [r7, #12]	@ movhi
 378:../lib/STM32F10x_StdPeriph_Driver/src/stm32f10x_tim.c ****   
 379:../lib/STM32F10x_StdPeriph_Driver/src/stm32f10x_tim.c ****   /* Get the TIMx CCMR1 register value */
 380:../lib/STM32F10x_StdPeriph_Driver/src/stm32f10x_tim.c ****   tmpccmrx = TIMx->CCMR1;
 706              		.loc 1 380 0
 707 04e0 7B68     		ldr	r3, [r7, #4]
 708 04e2 1B8B     		ldrh	r3, [r3, #24]	@ movhi
 709 04e4 7B81     		strh	r3, [r7, #10]	@ movhi
 381:../lib/STM32F10x_StdPeriph_Driver/src/stm32f10x_tim.c ****     
 382:../lib/STM32F10x_StdPeriph_Driver/src/stm32f10x_tim.c ****   /* Reset the Output Compare mode and Capture/Compare selection Bits */
 383:../lib/STM32F10x_StdPeriph_Driver/src/stm32f10x_tim.c ****   tmpccmrx &= (uint16_t)(~((uint16_t)TIM_CCMR1_OC2M));
 710              		.loc 1 383 0
 711 04e6 7B89     		ldrh	r3, [r7, #10]	@ movhi
 712 04e8 23F4E043 		bic	r3, r3, #28672
 713 04ec 7B81     		strh	r3, [r7, #10]	@ movhi
 384:../lib/STM32F10x_StdPeriph_Driver/src/stm32f10x_tim.c ****   tmpccmrx &= (uint16_t)(~((uint16_t)TIM_CCMR1_CC2S));
 714              		.loc 1 384 0
 715 04ee 7B89     		ldrh	r3, [r7, #10]	@ movhi
 716 04f0 23F44073 		bic	r3, r3, #768
 717 04f4 7B81     		strh	r3, [r7, #10]	@ movhi
 385:../lib/STM32F10x_StdPeriph_Driver/src/stm32f10x_tim.c ****   
 386:../lib/STM32F10x_StdPeriph_Driver/src/stm32f10x_tim.c ****   /* Select the Output Compare Mode */
 387:../lib/STM32F10x_StdPeriph_Driver/src/stm32f10x_tim.c ****   tmpccmrx |= (uint16_t)(TIM_OCInitStruct->TIM_OCMode << 8);
 718              		.loc 1 387 0
 719 04f6 3B68     		ldr	r3, [r7, #0]
 720 04f8 1B88     		ldrh	r3, [r3, #0]
 721 04fa 4FEA0323 		lsl	r3, r3, #8
 722 04fe 9AB2     		uxth	r2, r3
 723 0500 7B89     		ldrh	r3, [r7, #10]	@ movhi
 724 0502 1343     		orrs	r3, r3, r2
 725 0504 7B81     		strh	r3, [r7, #10]	@ movhi
 388:../lib/STM32F10x_StdPeriph_Driver/src/stm32f10x_tim.c ****   
 389:../lib/STM32F10x_StdPeriph_Driver/src/stm32f10x_tim.c ****   /* Reset the Output Polarity level */
 390:../lib/STM32F10x_StdPeriph_Driver/src/stm32f10x_tim.c ****   tmpccer &= (uint16_t)(~((uint16_t)TIM_CCER_CC2P));
 726              		.loc 1 390 0
 727 0506 FB89     		ldrh	r3, [r7, #14]	@ movhi
 728 0508 23F02003 		bic	r3, r3, #32
 729 050c FB81     		strh	r3, [r7, #14]	@ movhi
 391:../lib/STM32F10x_StdPeriph_Driver/src/stm32f10x_tim.c ****   /* Set the Output Compare Polarity */
 392:../lib/STM32F10x_StdPeriph_Driver/src/stm32f10x_tim.c ****   tmpccer |= (uint16_t)(TIM_OCInitStruct->TIM_OCPolarity << 4);
 730              		.loc 1 392 0
 731 050e 3B68     		ldr	r3, [r7, #0]
 732 0510 1B89     		ldrh	r3, [r3, #8]
 733 0512 4FEA0313 		lsl	r3, r3, #4
 734 0516 9AB2     		uxth	r2, r3
 735 0518 FB89     		ldrh	r3, [r7, #14]	@ movhi
 736 051a 1343     		orrs	r3, r3, r2
 737 051c FB81     		strh	r3, [r7, #14]	@ movhi
 393:../lib/STM32F10x_StdPeriph_Driver/src/stm32f10x_tim.c ****   
 394:../lib/STM32F10x_StdPeriph_Driver/src/stm32f10x_tim.c ****   /* Set the Output State */
 395:../lib/STM32F10x_StdPeriph_Driver/src/stm32f10x_tim.c ****   tmpccer |= (uint16_t)(TIM_OCInitStruct->TIM_OutputState << 4);
 738              		.loc 1 395 0
 739 051e 3B68     		ldr	r3, [r7, #0]
 740 0520 5B88     		ldrh	r3, [r3, #2]
 741 0522 4FEA0313 		lsl	r3, r3, #4
 742 0526 9AB2     		uxth	r2, r3
 743 0528 FB89     		ldrh	r3, [r7, #14]	@ movhi
 744 052a 1343     		orrs	r3, r3, r2
 745 052c FB81     		strh	r3, [r7, #14]	@ movhi
 396:../lib/STM32F10x_StdPeriph_Driver/src/stm32f10x_tim.c ****     
 397:../lib/STM32F10x_StdPeriph_Driver/src/stm32f10x_tim.c ****   if((TIMx == TIM1) || (TIMx == TIM8))
 746              		.loc 1 397 0
 747 052e 7A68     		ldr	r2, [r7, #4]
 748 0530 244B     		ldr	r3, .L37
 749 0532 9A42     		cmp	r2, r3
 750 0534 03D0     		beq	.L35
 751              		.loc 1 397 0 is_stmt 0 discriminator 1
 752 0536 7A68     		ldr	r2, [r7, #4]
 753 0538 234B     		ldr	r3, .L37+4
 754 053a 9A42     		cmp	r2, r3
 755 053c 2FD1     		bne	.L36
 756              	.L35:
 398:../lib/STM32F10x_StdPeriph_Driver/src/stm32f10x_tim.c ****   {
 399:../lib/STM32F10x_StdPeriph_Driver/src/stm32f10x_tim.c ****     assert_param(IS_TIM_OUTPUTN_STATE(TIM_OCInitStruct->TIM_OutputNState));
 400:../lib/STM32F10x_StdPeriph_Driver/src/stm32f10x_tim.c ****     assert_param(IS_TIM_OCN_POLARITY(TIM_OCInitStruct->TIM_OCNPolarity));
 401:../lib/STM32F10x_StdPeriph_Driver/src/stm32f10x_tim.c ****     assert_param(IS_TIM_OCNIDLE_STATE(TIM_OCInitStruct->TIM_OCNIdleState));
 402:../lib/STM32F10x_StdPeriph_Driver/src/stm32f10x_tim.c ****     assert_param(IS_TIM_OCIDLE_STATE(TIM_OCInitStruct->TIM_OCIdleState));
 403:../lib/STM32F10x_StdPeriph_Driver/src/stm32f10x_tim.c ****     
 404:../lib/STM32F10x_StdPeriph_Driver/src/stm32f10x_tim.c ****     /* Reset the Output N Polarity level */
 405:../lib/STM32F10x_StdPeriph_Driver/src/stm32f10x_tim.c ****     tmpccer &= (uint16_t)(~((uint16_t)TIM_CCER_CC2NP));
 757              		.loc 1 405 0 is_stmt 1
 758 053e FB89     		ldrh	r3, [r7, #14]	@ movhi
 759 0540 23F08003 		bic	r3, r3, #128
 760 0544 FB81     		strh	r3, [r7, #14]	@ movhi
 406:../lib/STM32F10x_StdPeriph_Driver/src/stm32f10x_tim.c ****     /* Set the Output N Polarity */
 407:../lib/STM32F10x_StdPeriph_Driver/src/stm32f10x_tim.c ****     tmpccer |= (uint16_t)(TIM_OCInitStruct->TIM_OCNPolarity << 4);
 761              		.loc 1 407 0
 762 0546 3B68     		ldr	r3, [r7, #0]
 763 0548 5B89     		ldrh	r3, [r3, #10]
 764 054a 4FEA0313 		lsl	r3, r3, #4
 765 054e 9AB2     		uxth	r2, r3
 766 0550 FB89     		ldrh	r3, [r7, #14]	@ movhi
 767 0552 1343     		orrs	r3, r3, r2
 768 0554 FB81     		strh	r3, [r7, #14]	@ movhi
 408:../lib/STM32F10x_StdPeriph_Driver/src/stm32f10x_tim.c ****     
 409:../lib/STM32F10x_StdPeriph_Driver/src/stm32f10x_tim.c ****     /* Reset the Output N State */
 410:../lib/STM32F10x_StdPeriph_Driver/src/stm32f10x_tim.c ****     tmpccer &= (uint16_t)(~((uint16_t)TIM_CCER_CC2NE));    
 769              		.loc 1 410 0
 770 0556 FB89     		ldrh	r3, [r7, #14]	@ movhi
 771 0558 23F04003 		bic	r3, r3, #64
 772 055c FB81     		strh	r3, [r7, #14]	@ movhi
 411:../lib/STM32F10x_StdPeriph_Driver/src/stm32f10x_tim.c ****     /* Set the Output N State */
 412:../lib/STM32F10x_StdPeriph_Driver/src/stm32f10x_tim.c ****     tmpccer |= (uint16_t)(TIM_OCInitStruct->TIM_OutputNState << 4);
 773              		.loc 1 412 0
 774 055e 3B68     		ldr	r3, [r7, #0]
 775 0560 9B88     		ldrh	r3, [r3, #4]
 776 0562 4FEA0313 		lsl	r3, r3, #4
 777 0566 9AB2     		uxth	r2, r3
 778 0568 FB89     		ldrh	r3, [r7, #14]	@ movhi
 779 056a 1343     		orrs	r3, r3, r2
 780 056c FB81     		strh	r3, [r7, #14]	@ movhi
 413:../lib/STM32F10x_StdPeriph_Driver/src/stm32f10x_tim.c ****     
 414:../lib/STM32F10x_StdPeriph_Driver/src/stm32f10x_tim.c ****     /* Reset the Output Compare and Output Compare N IDLE State */
 415:../lib/STM32F10x_StdPeriph_Driver/src/stm32f10x_tim.c ****     tmpcr2 &= (uint16_t)(~((uint16_t)TIM_CR2_OIS2));
 781              		.loc 1 415 0
 782 056e BB89     		ldrh	r3, [r7, #12]	@ movhi
 783 0570 23F48063 		bic	r3, r3, #1024
 784 0574 BB81     		strh	r3, [r7, #12]	@ movhi
 416:../lib/STM32F10x_StdPeriph_Driver/src/stm32f10x_tim.c ****     tmpcr2 &= (uint16_t)(~((uint16_t)TIM_CR2_OIS2N));
 785              		.loc 1 416 0
 786 0576 BB89     		ldrh	r3, [r7, #12]	@ movhi
 787 0578 23F40063 		bic	r3, r3, #2048
 788 057c BB81     		strh	r3, [r7, #12]	@ movhi
 417:../lib/STM32F10x_StdPeriph_Driver/src/stm32f10x_tim.c ****     
 418:../lib/STM32F10x_StdPeriph_Driver/src/stm32f10x_tim.c ****     /* Set the Output Idle state */
 419:../lib/STM32F10x_StdPeriph_Driver/src/stm32f10x_tim.c ****     tmpcr2 |= (uint16_t)(TIM_OCInitStruct->TIM_OCIdleState << 2);
 789              		.loc 1 419 0
 790 057e 3B68     		ldr	r3, [r7, #0]
 791 0580 9B89     		ldrh	r3, [r3, #12]
 792 0582 4FEA8303 		lsl	r3, r3, #2
 793 0586 9AB2     		uxth	r2, r3
 794 0588 BB89     		ldrh	r3, [r7, #12]	@ movhi
 795 058a 1343     		orrs	r3, r3, r2
 796 058c BB81     		strh	r3, [r7, #12]	@ movhi
 420:../lib/STM32F10x_StdPeriph_Driver/src/stm32f10x_tim.c ****     /* Set the Output N Idle state */
 421:../lib/STM32F10x_StdPeriph_Driver/src/stm32f10x_tim.c ****     tmpcr2 |= (uint16_t)(TIM_OCInitStruct->TIM_OCNIdleState << 2);
 797              		.loc 1 421 0
 798 058e 3B68     		ldr	r3, [r7, #0]
 799 0590 DB89     		ldrh	r3, [r3, #14]
 800 0592 4FEA8303 		lsl	r3, r3, #2
 801 0596 9AB2     		uxth	r2, r3
 802 0598 BB89     		ldrh	r3, [r7, #12]	@ movhi
 803 059a 1343     		orrs	r3, r3, r2
 804 059c BB81     		strh	r3, [r7, #12]	@ movhi
 805              	.L36:
 422:../lib/STM32F10x_StdPeriph_Driver/src/stm32f10x_tim.c ****   }
 423:../lib/STM32F10x_StdPeriph_Driver/src/stm32f10x_tim.c ****   /* Write to TIMx CR2 */
 424:../lib/STM32F10x_StdPeriph_Driver/src/stm32f10x_tim.c ****   TIMx->CR2 = tmpcr2;
 806              		.loc 1 424 0
 807 059e 7B68     		ldr	r3, [r7, #4]
 808 05a0 BA89     		ldrh	r2, [r7, #12]	@ movhi
 809 05a2 9A80     		strh	r2, [r3, #4]	@ movhi
 425:../lib/STM32F10x_StdPeriph_Driver/src/stm32f10x_tim.c ****   
 426:../lib/STM32F10x_StdPeriph_Driver/src/stm32f10x_tim.c ****   /* Write to TIMx CCMR1 */
 427:../lib/STM32F10x_StdPeriph_Driver/src/stm32f10x_tim.c ****   TIMx->CCMR1 = tmpccmrx;
 810              		.loc 1 427 0
 811 05a4 7B68     		ldr	r3, [r7, #4]
 812 05a6 7A89     		ldrh	r2, [r7, #10]	@ movhi
 813 05a8 1A83     		strh	r2, [r3, #24]	@ movhi
 428:../lib/STM32F10x_StdPeriph_Driver/src/stm32f10x_tim.c **** 
 429:../lib/STM32F10x_StdPeriph_Driver/src/stm32f10x_tim.c ****   /* Set the Capture Compare Register value */
 430:../lib/STM32F10x_StdPeriph_Driver/src/stm32f10x_tim.c ****   TIMx->CCR2 = TIM_OCInitStruct->TIM_Pulse;
 814              		.loc 1 430 0
 815 05aa 3B68     		ldr	r3, [r7, #0]
 816 05ac DA88     		ldrh	r2, [r3, #6]
 817 05ae 7B68     		ldr	r3, [r7, #4]
 818 05b0 1A87     		strh	r2, [r3, #56]	@ movhi
 431:../lib/STM32F10x_StdPeriph_Driver/src/stm32f10x_tim.c ****   
 432:../lib/STM32F10x_StdPeriph_Driver/src/stm32f10x_tim.c ****   /* Write to TIMx CCER */
 433:../lib/STM32F10x_StdPeriph_Driver/src/stm32f10x_tim.c ****   TIMx->CCER = tmpccer;
 819              		.loc 1 433 0
 820 05b2 7B68     		ldr	r3, [r7, #4]
 821 05b4 FA89     		ldrh	r2, [r7, #14]	@ movhi
 822 05b6 1A84     		strh	r2, [r3, #32]	@ movhi
 434:../lib/STM32F10x_StdPeriph_Driver/src/stm32f10x_tim.c **** }
 823              		.loc 1 434 0
 824 05b8 07F11407 		add	r7, r7, #20
 825 05bc BD46     		mov	sp, r7
 826 05be 80BC     		pop	{r7}
 827 05c0 7047     		bx	lr
 828              	.L38:
 829 05c2 00BF     		.align	2
 830              	.L37:
 831 05c4 002C0140 		.word	1073818624
 832 05c8 00340140 		.word	1073820672
 833              		.cfi_endproc
 834              	.LFE32:
 836              		.align	2
 837              		.global	TIM_OC3Init
 838              		.thumb
 839              		.thumb_func
 841              	TIM_OC3Init:
 842              	.LFB33:
 435:../lib/STM32F10x_StdPeriph_Driver/src/stm32f10x_tim.c **** 
 436:../lib/STM32F10x_StdPeriph_Driver/src/stm32f10x_tim.c **** /**
 437:../lib/STM32F10x_StdPeriph_Driver/src/stm32f10x_tim.c ****   * @brief  Initializes the TIMx Channel3 according to the specified
 438:../lib/STM32F10x_StdPeriph_Driver/src/stm32f10x_tim.c ****   *         parameters in the TIM_OCInitStruct.
 439:../lib/STM32F10x_StdPeriph_Driver/src/stm32f10x_tim.c ****   * @param  TIMx: where x can be  1, 2, 3, 4, 5 or 8 to select the TIM peripheral.
 440:../lib/STM32F10x_StdPeriph_Driver/src/stm32f10x_tim.c ****   * @param  TIM_OCInitStruct: pointer to a TIM_OCInitTypeDef structure
 441:../lib/STM32F10x_StdPeriph_Driver/src/stm32f10x_tim.c ****   *         that contains the configuration information for the specified TIM peripheral.
 442:../lib/STM32F10x_StdPeriph_Driver/src/stm32f10x_tim.c ****   * @retval None
 443:../lib/STM32F10x_StdPeriph_Driver/src/stm32f10x_tim.c ****   */
 444:../lib/STM32F10x_StdPeriph_Driver/src/stm32f10x_tim.c **** void TIM_OC3Init(TIM_TypeDef* TIMx, TIM_OCInitTypeDef* TIM_OCInitStruct)
 445:../lib/STM32F10x_StdPeriph_Driver/src/stm32f10x_tim.c **** {
 843              		.loc 1 445 0
 844              		.cfi_startproc
 845              		@ args = 0, pretend = 0, frame = 16
 846              		@ frame_needed = 1, uses_anonymous_args = 0
 847              		@ link register save eliminated.
 848 05cc 80B4     		push	{r7}
 849              	.LCFI12:
 850              		.cfi_def_cfa_offset 4
 851              		.cfi_offset 7, -4
 852 05ce 85B0     		sub	sp, sp, #20
 853              	.LCFI13:
 854              		.cfi_def_cfa_offset 24
 855 05d0 00AF     		add	r7, sp, #0
 856              	.LCFI14:
 857              		.cfi_def_cfa_register 7
 858 05d2 7860     		str	r0, [r7, #4]
 859 05d4 3960     		str	r1, [r7, #0]
 446:../lib/STM32F10x_StdPeriph_Driver/src/stm32f10x_tim.c ****   uint16_t tmpccmrx = 0, tmpccer = 0, tmpcr2 = 0;
 860              		.loc 1 446 0
 861 05d6 4FF00003 		mov	r3, #0
 862 05da 7B81     		strh	r3, [r7, #10]	@ movhi
 863 05dc 4FF00003 		mov	r3, #0
 864 05e0 FB81     		strh	r3, [r7, #14]	@ movhi
 865 05e2 4FF00003 		mov	r3, #0
 866 05e6 BB81     		strh	r3, [r7, #12]	@ movhi
 447:../lib/STM32F10x_StdPeriph_Driver/src/stm32f10x_tim.c ****    
 448:../lib/STM32F10x_StdPeriph_Driver/src/stm32f10x_tim.c ****   /* Check the parameters */
 449:../lib/STM32F10x_StdPeriph_Driver/src/stm32f10x_tim.c ****   assert_param(IS_TIM_LIST3_PERIPH(TIMx)); 
 450:../lib/STM32F10x_StdPeriph_Driver/src/stm32f10x_tim.c ****   assert_param(IS_TIM_OC_MODE(TIM_OCInitStruct->TIM_OCMode));
 451:../lib/STM32F10x_StdPeriph_Driver/src/stm32f10x_tim.c ****   assert_param(IS_TIM_OUTPUT_STATE(TIM_OCInitStruct->TIM_OutputState));
 452:../lib/STM32F10x_StdPeriph_Driver/src/stm32f10x_tim.c ****   assert_param(IS_TIM_OC_POLARITY(TIM_OCInitStruct->TIM_OCPolarity));   
 453:../lib/STM32F10x_StdPeriph_Driver/src/stm32f10x_tim.c ****   /* Disable the Channel 2: Reset the CC2E Bit */
 454:../lib/STM32F10x_StdPeriph_Driver/src/stm32f10x_tim.c ****   TIMx->CCER &= (uint16_t)(~((uint16_t)TIM_CCER_CC3E));
 867              		.loc 1 454 0
 868 05e8 7B68     		ldr	r3, [r7, #4]
 869 05ea 1B8C     		ldrh	r3, [r3, #32]	@ movhi
 870 05ec 9BB2     		uxth	r3, r3
 871 05ee 23F48073 		bic	r3, r3, #256
 872 05f2 9AB2     		uxth	r2, r3
 873 05f4 7B68     		ldr	r3, [r7, #4]
 874 05f6 1A84     		strh	r2, [r3, #32]	@ movhi
 455:../lib/STM32F10x_StdPeriph_Driver/src/stm32f10x_tim.c ****   
 456:../lib/STM32F10x_StdPeriph_Driver/src/stm32f10x_tim.c ****   /* Get the TIMx CCER register value */
 457:../lib/STM32F10x_StdPeriph_Driver/src/stm32f10x_tim.c ****   tmpccer = TIMx->CCER;
 875              		.loc 1 457 0
 876 05f8 7B68     		ldr	r3, [r7, #4]
 877 05fa 1B8C     		ldrh	r3, [r3, #32]	@ movhi
 878 05fc FB81     		strh	r3, [r7, #14]	@ movhi
 458:../lib/STM32F10x_StdPeriph_Driver/src/stm32f10x_tim.c ****   /* Get the TIMx CR2 register value */
 459:../lib/STM32F10x_StdPeriph_Driver/src/stm32f10x_tim.c ****   tmpcr2 =  TIMx->CR2;
 879              		.loc 1 459 0
 880 05fe 7B68     		ldr	r3, [r7, #4]
 881 0600 9B88     		ldrh	r3, [r3, #4]	@ movhi
 882 0602 BB81     		strh	r3, [r7, #12]	@ movhi
 460:../lib/STM32F10x_StdPeriph_Driver/src/stm32f10x_tim.c ****   
 461:../lib/STM32F10x_StdPeriph_Driver/src/stm32f10x_tim.c ****   /* Get the TIMx CCMR2 register value */
 462:../lib/STM32F10x_StdPeriph_Driver/src/stm32f10x_tim.c ****   tmpccmrx = TIMx->CCMR2;
 883              		.loc 1 462 0
 884 0604 7B68     		ldr	r3, [r7, #4]
 885 0606 9B8B     		ldrh	r3, [r3, #28]	@ movhi
 886 0608 7B81     		strh	r3, [r7, #10]	@ movhi
 463:../lib/STM32F10x_StdPeriph_Driver/src/stm32f10x_tim.c ****     
 464:../lib/STM32F10x_StdPeriph_Driver/src/stm32f10x_tim.c ****   /* Reset the Output Compare mode and Capture/Compare selection Bits */
 465:../lib/STM32F10x_StdPeriph_Driver/src/stm32f10x_tim.c ****   tmpccmrx &= (uint16_t)(~((uint16_t)TIM_CCMR2_OC3M));
 887              		.loc 1 465 0
 888 060a 7B89     		ldrh	r3, [r7, #10]	@ movhi
 889 060c 23F07003 		bic	r3, r3, #112
 890 0610 7B81     		strh	r3, [r7, #10]	@ movhi
 466:../lib/STM32F10x_StdPeriph_Driver/src/stm32f10x_tim.c ****   tmpccmrx &= (uint16_t)(~((uint16_t)TIM_CCMR2_CC3S));  
 891              		.loc 1 466 0
 892 0612 7B89     		ldrh	r3, [r7, #10]	@ movhi
 893 0614 23F00303 		bic	r3, r3, #3
 894 0618 7B81     		strh	r3, [r7, #10]	@ movhi
 467:../lib/STM32F10x_StdPeriph_Driver/src/stm32f10x_tim.c ****   /* Select the Output Compare Mode */
 468:../lib/STM32F10x_StdPeriph_Driver/src/stm32f10x_tim.c ****   tmpccmrx |= TIM_OCInitStruct->TIM_OCMode;
 895              		.loc 1 468 0
 896 061a 3B68     		ldr	r3, [r7, #0]
 897 061c 1A88     		ldrh	r2, [r3, #0]
 898 061e 7B89     		ldrh	r3, [r7, #10]	@ movhi
 899 0620 1343     		orrs	r3, r3, r2
 900 0622 7B81     		strh	r3, [r7, #10]	@ movhi
 469:../lib/STM32F10x_StdPeriph_Driver/src/stm32f10x_tim.c ****   
 470:../lib/STM32F10x_StdPeriph_Driver/src/stm32f10x_tim.c ****   /* Reset the Output Polarity level */
 471:../lib/STM32F10x_StdPeriph_Driver/src/stm32f10x_tim.c ****   tmpccer &= (uint16_t)(~((uint16_t)TIM_CCER_CC3P));
 901              		.loc 1 471 0
 902 0624 FB89     		ldrh	r3, [r7, #14]	@ movhi
 903 0626 23F40073 		bic	r3, r3, #512
 904 062a FB81     		strh	r3, [r7, #14]	@ movhi
 472:../lib/STM32F10x_StdPeriph_Driver/src/stm32f10x_tim.c ****   /* Set the Output Compare Polarity */
 473:../lib/STM32F10x_StdPeriph_Driver/src/stm32f10x_tim.c ****   tmpccer |= (uint16_t)(TIM_OCInitStruct->TIM_OCPolarity << 8);
 905              		.loc 1 473 0
 906 062c 3B68     		ldr	r3, [r7, #0]
 907 062e 1B89     		ldrh	r3, [r3, #8]
 908 0630 4FEA0323 		lsl	r3, r3, #8
 909 0634 9AB2     		uxth	r2, r3
 910 0636 FB89     		ldrh	r3, [r7, #14]	@ movhi
 911 0638 1343     		orrs	r3, r3, r2
 912 063a FB81     		strh	r3, [r7, #14]	@ movhi
 474:../lib/STM32F10x_StdPeriph_Driver/src/stm32f10x_tim.c ****   
 475:../lib/STM32F10x_StdPeriph_Driver/src/stm32f10x_tim.c ****   /* Set the Output State */
 476:../lib/STM32F10x_StdPeriph_Driver/src/stm32f10x_tim.c ****   tmpccer |= (uint16_t)(TIM_OCInitStruct->TIM_OutputState << 8);
 913              		.loc 1 476 0
 914 063c 3B68     		ldr	r3, [r7, #0]
 915 063e 5B88     		ldrh	r3, [r3, #2]
 916 0640 4FEA0323 		lsl	r3, r3, #8
 917 0644 9AB2     		uxth	r2, r3
 918 0646 FB89     		ldrh	r3, [r7, #14]	@ movhi
 919 0648 1343     		orrs	r3, r3, r2
 920 064a FB81     		strh	r3, [r7, #14]	@ movhi
 477:../lib/STM32F10x_StdPeriph_Driver/src/stm32f10x_tim.c ****     
 478:../lib/STM32F10x_StdPeriph_Driver/src/stm32f10x_tim.c ****   if((TIMx == TIM1) || (TIMx == TIM8))
 921              		.loc 1 478 0
 922 064c 7A68     		ldr	r2, [r7, #4]
 923 064e 244B     		ldr	r3, .L42
 924 0650 9A42     		cmp	r2, r3
 925 0652 03D0     		beq	.L40
 926              		.loc 1 478 0 is_stmt 0 discriminator 1
 927 0654 7A68     		ldr	r2, [r7, #4]
 928 0656 234B     		ldr	r3, .L42+4
 929 0658 9A42     		cmp	r2, r3
 930 065a 2FD1     		bne	.L41
 931              	.L40:
 479:../lib/STM32F10x_StdPeriph_Driver/src/stm32f10x_tim.c ****   {
 480:../lib/STM32F10x_StdPeriph_Driver/src/stm32f10x_tim.c ****     assert_param(IS_TIM_OUTPUTN_STATE(TIM_OCInitStruct->TIM_OutputNState));
 481:../lib/STM32F10x_StdPeriph_Driver/src/stm32f10x_tim.c ****     assert_param(IS_TIM_OCN_POLARITY(TIM_OCInitStruct->TIM_OCNPolarity));
 482:../lib/STM32F10x_StdPeriph_Driver/src/stm32f10x_tim.c ****     assert_param(IS_TIM_OCNIDLE_STATE(TIM_OCInitStruct->TIM_OCNIdleState));
 483:../lib/STM32F10x_StdPeriph_Driver/src/stm32f10x_tim.c ****     assert_param(IS_TIM_OCIDLE_STATE(TIM_OCInitStruct->TIM_OCIdleState));
 484:../lib/STM32F10x_StdPeriph_Driver/src/stm32f10x_tim.c ****     
 485:../lib/STM32F10x_StdPeriph_Driver/src/stm32f10x_tim.c ****     /* Reset the Output N Polarity level */
 486:../lib/STM32F10x_StdPeriph_Driver/src/stm32f10x_tim.c ****     tmpccer &= (uint16_t)(~((uint16_t)TIM_CCER_CC3NP));
 932              		.loc 1 486 0 is_stmt 1
 933 065c FB89     		ldrh	r3, [r7, #14]	@ movhi
 934 065e 23F40063 		bic	r3, r3, #2048
 935 0662 FB81     		strh	r3, [r7, #14]	@ movhi
 487:../lib/STM32F10x_StdPeriph_Driver/src/stm32f10x_tim.c ****     /* Set the Output N Polarity */
 488:../lib/STM32F10x_StdPeriph_Driver/src/stm32f10x_tim.c ****     tmpccer |= (uint16_t)(TIM_OCInitStruct->TIM_OCNPolarity << 8);
 936              		.loc 1 488 0
 937 0664 3B68     		ldr	r3, [r7, #0]
 938 0666 5B89     		ldrh	r3, [r3, #10]
 939 0668 4FEA0323 		lsl	r3, r3, #8
 940 066c 9AB2     		uxth	r2, r3
 941 066e FB89     		ldrh	r3, [r7, #14]	@ movhi
 942 0670 1343     		orrs	r3, r3, r2
 943 0672 FB81     		strh	r3, [r7, #14]	@ movhi
 489:../lib/STM32F10x_StdPeriph_Driver/src/stm32f10x_tim.c ****     /* Reset the Output N State */
 490:../lib/STM32F10x_StdPeriph_Driver/src/stm32f10x_tim.c ****     tmpccer &= (uint16_t)(~((uint16_t)TIM_CCER_CC3NE));
 944              		.loc 1 490 0
 945 0674 FB89     		ldrh	r3, [r7, #14]	@ movhi
 946 0676 23F48063 		bic	r3, r3, #1024
 947 067a FB81     		strh	r3, [r7, #14]	@ movhi
 491:../lib/STM32F10x_StdPeriph_Driver/src/stm32f10x_tim.c ****     
 492:../lib/STM32F10x_StdPeriph_Driver/src/stm32f10x_tim.c ****     /* Set the Output N State */
 493:../lib/STM32F10x_StdPeriph_Driver/src/stm32f10x_tim.c ****     tmpccer |= (uint16_t)(TIM_OCInitStruct->TIM_OutputNState << 8);
 948              		.loc 1 493 0
 949 067c 3B68     		ldr	r3, [r7, #0]
 950 067e 9B88     		ldrh	r3, [r3, #4]
 951 0680 4FEA0323 		lsl	r3, r3, #8
 952 0684 9AB2     		uxth	r2, r3
 953 0686 FB89     		ldrh	r3, [r7, #14]	@ movhi
 954 0688 1343     		orrs	r3, r3, r2
 955 068a FB81     		strh	r3, [r7, #14]	@ movhi
 494:../lib/STM32F10x_StdPeriph_Driver/src/stm32f10x_tim.c ****     /* Reset the Output Compare and Output Compare N IDLE State */
 495:../lib/STM32F10x_StdPeriph_Driver/src/stm32f10x_tim.c ****     tmpcr2 &= (uint16_t)(~((uint16_t)TIM_CR2_OIS3));
 956              		.loc 1 495 0
 957 068c BB89     		ldrh	r3, [r7, #12]	@ movhi
 958 068e 23F48053 		bic	r3, r3, #4096
 959 0692 BB81     		strh	r3, [r7, #12]	@ movhi
 496:../lib/STM32F10x_StdPeriph_Driver/src/stm32f10x_tim.c ****     tmpcr2 &= (uint16_t)(~((uint16_t)TIM_CR2_OIS3N));
 960              		.loc 1 496 0
 961 0694 BB89     		ldrh	r3, [r7, #12]	@ movhi
 962 0696 23F40053 		bic	r3, r3, #8192
 963 069a BB81     		strh	r3, [r7, #12]	@ movhi
 497:../lib/STM32F10x_StdPeriph_Driver/src/stm32f10x_tim.c ****     /* Set the Output Idle state */
 498:../lib/STM32F10x_StdPeriph_Driver/src/stm32f10x_tim.c ****     tmpcr2 |= (uint16_t)(TIM_OCInitStruct->TIM_OCIdleState << 4);
 964              		.loc 1 498 0
 965 069c 3B68     		ldr	r3, [r7, #0]
 966 069e 9B89     		ldrh	r3, [r3, #12]
 967 06a0 4FEA0313 		lsl	r3, r3, #4
 968 06a4 9AB2     		uxth	r2, r3
 969 06a6 BB89     		ldrh	r3, [r7, #12]	@ movhi
 970 06a8 1343     		orrs	r3, r3, r2
 971 06aa BB81     		strh	r3, [r7, #12]	@ movhi
 499:../lib/STM32F10x_StdPeriph_Driver/src/stm32f10x_tim.c ****     /* Set the Output N Idle state */
 500:../lib/STM32F10x_StdPeriph_Driver/src/stm32f10x_tim.c ****     tmpcr2 |= (uint16_t)(TIM_OCInitStruct->TIM_OCNIdleState << 4);
 972              		.loc 1 500 0
 973 06ac 3B68     		ldr	r3, [r7, #0]
 974 06ae DB89     		ldrh	r3, [r3, #14]
 975 06b0 4FEA0313 		lsl	r3, r3, #4
 976 06b4 9AB2     		uxth	r2, r3
 977 06b6 BB89     		ldrh	r3, [r7, #12]	@ movhi
 978 06b8 1343     		orrs	r3, r3, r2
 979 06ba BB81     		strh	r3, [r7, #12]	@ movhi
 980              	.L41:
 501:../lib/STM32F10x_StdPeriph_Driver/src/stm32f10x_tim.c ****   }
 502:../lib/STM32F10x_StdPeriph_Driver/src/stm32f10x_tim.c ****   /* Write to TIMx CR2 */
 503:../lib/STM32F10x_StdPeriph_Driver/src/stm32f10x_tim.c ****   TIMx->CR2 = tmpcr2;
 981              		.loc 1 503 0
 982 06bc 7B68     		ldr	r3, [r7, #4]
 983 06be BA89     		ldrh	r2, [r7, #12]	@ movhi
 984 06c0 9A80     		strh	r2, [r3, #4]	@ movhi
 504:../lib/STM32F10x_StdPeriph_Driver/src/stm32f10x_tim.c ****   
 505:../lib/STM32F10x_StdPeriph_Driver/src/stm32f10x_tim.c ****   /* Write to TIMx CCMR2 */
 506:../lib/STM32F10x_StdPeriph_Driver/src/stm32f10x_tim.c ****   TIMx->CCMR2 = tmpccmrx;
 985              		.loc 1 506 0
 986 06c2 7B68     		ldr	r3, [r7, #4]
 987 06c4 7A89     		ldrh	r2, [r7, #10]	@ movhi
 988 06c6 9A83     		strh	r2, [r3, #28]	@ movhi
 507:../lib/STM32F10x_StdPeriph_Driver/src/stm32f10x_tim.c **** 
 508:../lib/STM32F10x_StdPeriph_Driver/src/stm32f10x_tim.c ****   /* Set the Capture Compare Register value */
 509:../lib/STM32F10x_StdPeriph_Driver/src/stm32f10x_tim.c ****   TIMx->CCR3 = TIM_OCInitStruct->TIM_Pulse;
 989              		.loc 1 509 0
 990 06c8 3B68     		ldr	r3, [r7, #0]
 991 06ca DA88     		ldrh	r2, [r3, #6]
 992 06cc 7B68     		ldr	r3, [r7, #4]
 993 06ce 9A87     		strh	r2, [r3, #60]	@ movhi
 510:../lib/STM32F10x_StdPeriph_Driver/src/stm32f10x_tim.c ****   
 511:../lib/STM32F10x_StdPeriph_Driver/src/stm32f10x_tim.c ****   /* Write to TIMx CCER */
 512:../lib/STM32F10x_StdPeriph_Driver/src/stm32f10x_tim.c ****   TIMx->CCER = tmpccer;
 994              		.loc 1 512 0
 995 06d0 7B68     		ldr	r3, [r7, #4]
 996 06d2 FA89     		ldrh	r2, [r7, #14]	@ movhi
 997 06d4 1A84     		strh	r2, [r3, #32]	@ movhi
 513:../lib/STM32F10x_StdPeriph_Driver/src/stm32f10x_tim.c **** }
 998              		.loc 1 513 0
 999 06d6 07F11407 		add	r7, r7, #20
 1000 06da BD46     		mov	sp, r7
 1001 06dc 80BC     		pop	{r7}
 1002 06de 7047     		bx	lr
 1003              	.L43:
 1004              		.align	2
 1005              	.L42:
 1006 06e0 002C0140 		.word	1073818624
 1007 06e4 00340140 		.word	1073820672
 1008              		.cfi_endproc
 1009              	.LFE33:
 1011              		.align	2
 1012              		.global	TIM_OC4Init
 1013              		.thumb
 1014              		.thumb_func
 1016              	TIM_OC4Init:
 1017              	.LFB34:
 514:../lib/STM32F10x_StdPeriph_Driver/src/stm32f10x_tim.c **** 
 515:../lib/STM32F10x_StdPeriph_Driver/src/stm32f10x_tim.c **** /**
 516:../lib/STM32F10x_StdPeriph_Driver/src/stm32f10x_tim.c ****   * @brief  Initializes the TIMx Channel4 according to the specified
 517:../lib/STM32F10x_StdPeriph_Driver/src/stm32f10x_tim.c ****   *         parameters in the TIM_OCInitStruct.
 518:../lib/STM32F10x_StdPeriph_Driver/src/stm32f10x_tim.c ****   * @param  TIMx: where x can be  1, 2, 3, 4, 5 or 8 to select the TIM peripheral.
 519:../lib/STM32F10x_StdPeriph_Driver/src/stm32f10x_tim.c ****   * @param  TIM_OCInitStruct: pointer to a TIM_OCInitTypeDef structure
 520:../lib/STM32F10x_StdPeriph_Driver/src/stm32f10x_tim.c ****   *         that contains the configuration information for the specified TIM peripheral.
 521:../lib/STM32F10x_StdPeriph_Driver/src/stm32f10x_tim.c ****   * @retval None
 522:../lib/STM32F10x_StdPeriph_Driver/src/stm32f10x_tim.c ****   */
 523:../lib/STM32F10x_StdPeriph_Driver/src/stm32f10x_tim.c **** void TIM_OC4Init(TIM_TypeDef* TIMx, TIM_OCInitTypeDef* TIM_OCInitStruct)
 524:../lib/STM32F10x_StdPeriph_Driver/src/stm32f10x_tim.c **** {
 1018              		.loc 1 524 0
 1019              		.cfi_startproc
 1020              		@ args = 0, pretend = 0, frame = 16
 1021              		@ frame_needed = 1, uses_anonymous_args = 0
 1022              		@ link register save eliminated.
 1023 06e8 80B4     		push	{r7}
 1024              	.LCFI15:
 1025              		.cfi_def_cfa_offset 4
 1026              		.cfi_offset 7, -4
 1027 06ea 85B0     		sub	sp, sp, #20
 1028              	.LCFI16:
 1029              		.cfi_def_cfa_offset 24
 1030 06ec 00AF     		add	r7, sp, #0
 1031              	.LCFI17:
 1032              		.cfi_def_cfa_register 7
 1033 06ee 7860     		str	r0, [r7, #4]
 1034 06f0 3960     		str	r1, [r7, #0]
 525:../lib/STM32F10x_StdPeriph_Driver/src/stm32f10x_tim.c ****   uint16_t tmpccmrx = 0, tmpccer = 0, tmpcr2 = 0;
 1035              		.loc 1 525 0
 1036 06f2 4FF00003 		mov	r3, #0
 1037 06f6 BB81     		strh	r3, [r7, #12]	@ movhi
 1038 06f8 4FF00003 		mov	r3, #0
 1039 06fc 7B81     		strh	r3, [r7, #10]	@ movhi
 1040 06fe 4FF00003 		mov	r3, #0
 1041 0702 FB81     		strh	r3, [r7, #14]	@ movhi
 526:../lib/STM32F10x_StdPeriph_Driver/src/stm32f10x_tim.c ****    
 527:../lib/STM32F10x_StdPeriph_Driver/src/stm32f10x_tim.c ****   /* Check the parameters */
 528:../lib/STM32F10x_StdPeriph_Driver/src/stm32f10x_tim.c ****   assert_param(IS_TIM_LIST3_PERIPH(TIMx)); 
 529:../lib/STM32F10x_StdPeriph_Driver/src/stm32f10x_tim.c ****   assert_param(IS_TIM_OC_MODE(TIM_OCInitStruct->TIM_OCMode));
 530:../lib/STM32F10x_StdPeriph_Driver/src/stm32f10x_tim.c ****   assert_param(IS_TIM_OUTPUT_STATE(TIM_OCInitStruct->TIM_OutputState));
 531:../lib/STM32F10x_StdPeriph_Driver/src/stm32f10x_tim.c ****   assert_param(IS_TIM_OC_POLARITY(TIM_OCInitStruct->TIM_OCPolarity));   
 532:../lib/STM32F10x_StdPeriph_Driver/src/stm32f10x_tim.c ****   /* Disable the Channel 2: Reset the CC4E Bit */
 533:../lib/STM32F10x_StdPeriph_Driver/src/stm32f10x_tim.c ****   TIMx->CCER &= (uint16_t)(~((uint16_t)TIM_CCER_CC4E));
 1042              		.loc 1 533 0
 1043 0704 7B68     		ldr	r3, [r7, #4]
 1044 0706 1B8C     		ldrh	r3, [r3, #32]	@ movhi
 1045 0708 9BB2     		uxth	r3, r3
 1046 070a 23F48053 		bic	r3, r3, #4096
 1047 070e 9AB2     		uxth	r2, r3
 1048 0710 7B68     		ldr	r3, [r7, #4]
 1049 0712 1A84     		strh	r2, [r3, #32]	@ movhi
 534:../lib/STM32F10x_StdPeriph_Driver/src/stm32f10x_tim.c ****   
 535:../lib/STM32F10x_StdPeriph_Driver/src/stm32f10x_tim.c ****   /* Get the TIMx CCER register value */
 536:../lib/STM32F10x_StdPeriph_Driver/src/stm32f10x_tim.c ****   tmpccer = TIMx->CCER;
 1050              		.loc 1 536 0
 1051 0714 7B68     		ldr	r3, [r7, #4]
 1052 0716 1B8C     		ldrh	r3, [r3, #32]	@ movhi
 1053 0718 7B81     		strh	r3, [r7, #10]	@ movhi
 537:../lib/STM32F10x_StdPeriph_Driver/src/stm32f10x_tim.c ****   /* Get the TIMx CR2 register value */
 538:../lib/STM32F10x_StdPeriph_Driver/src/stm32f10x_tim.c ****   tmpcr2 =  TIMx->CR2;
 1054              		.loc 1 538 0
 1055 071a 7B68     		ldr	r3, [r7, #4]
 1056 071c 9B88     		ldrh	r3, [r3, #4]	@ movhi
 1057 071e FB81     		strh	r3, [r7, #14]	@ movhi
 539:../lib/STM32F10x_StdPeriph_Driver/src/stm32f10x_tim.c ****   
 540:../lib/STM32F10x_StdPeriph_Driver/src/stm32f10x_tim.c ****   /* Get the TIMx CCMR2 register value */
 541:../lib/STM32F10x_StdPeriph_Driver/src/stm32f10x_tim.c ****   tmpccmrx = TIMx->CCMR2;
 1058              		.loc 1 541 0
 1059 0720 7B68     		ldr	r3, [r7, #4]
 1060 0722 9B8B     		ldrh	r3, [r3, #28]	@ movhi
 1061 0724 BB81     		strh	r3, [r7, #12]	@ movhi
 542:../lib/STM32F10x_StdPeriph_Driver/src/stm32f10x_tim.c ****     
 543:../lib/STM32F10x_StdPeriph_Driver/src/stm32f10x_tim.c ****   /* Reset the Output Compare mode and Capture/Compare selection Bits */
 544:../lib/STM32F10x_StdPeriph_Driver/src/stm32f10x_tim.c ****   tmpccmrx &= (uint16_t)(~((uint16_t)TIM_CCMR2_OC4M));
 1062              		.loc 1 544 0
 1063 0726 BB89     		ldrh	r3, [r7, #12]	@ movhi
 1064 0728 23F4E043 		bic	r3, r3, #28672
 1065 072c BB81     		strh	r3, [r7, #12]	@ movhi
 545:../lib/STM32F10x_StdPeriph_Driver/src/stm32f10x_tim.c ****   tmpccmrx &= (uint16_t)(~((uint16_t)TIM_CCMR2_CC4S));
 1066              		.loc 1 545 0
 1067 072e BB89     		ldrh	r3, [r7, #12]	@ movhi
 1068 0730 23F44073 		bic	r3, r3, #768
 1069 0734 BB81     		strh	r3, [r7, #12]	@ movhi
 546:../lib/STM32F10x_StdPeriph_Driver/src/stm32f10x_tim.c ****   
 547:../lib/STM32F10x_StdPeriph_Driver/src/stm32f10x_tim.c ****   /* Select the Output Compare Mode */
 548:../lib/STM32F10x_StdPeriph_Driver/src/stm32f10x_tim.c ****   tmpccmrx |= (uint16_t)(TIM_OCInitStruct->TIM_OCMode << 8);
 1070              		.loc 1 548 0
 1071 0736 3B68     		ldr	r3, [r7, #0]
 1072 0738 1B88     		ldrh	r3, [r3, #0]
 1073 073a 4FEA0323 		lsl	r3, r3, #8
 1074 073e 9AB2     		uxth	r2, r3
 1075 0740 BB89     		ldrh	r3, [r7, #12]	@ movhi
 1076 0742 1343     		orrs	r3, r3, r2
 1077 0744 BB81     		strh	r3, [r7, #12]	@ movhi
 549:../lib/STM32F10x_StdPeriph_Driver/src/stm32f10x_tim.c ****   
 550:../lib/STM32F10x_StdPeriph_Driver/src/stm32f10x_tim.c ****   /* Reset the Output Polarity level */
 551:../lib/STM32F10x_StdPeriph_Driver/src/stm32f10x_tim.c ****   tmpccer &= (uint16_t)(~((uint16_t)TIM_CCER_CC4P));
 1078              		.loc 1 551 0
 1079 0746 7B89     		ldrh	r3, [r7, #10]	@ movhi
 1080 0748 23F40053 		bic	r3, r3, #8192
 1081 074c 7B81     		strh	r3, [r7, #10]	@ movhi
 552:../lib/STM32F10x_StdPeriph_Driver/src/stm32f10x_tim.c ****   /* Set the Output Compare Polarity */
 553:../lib/STM32F10x_StdPeriph_Driver/src/stm32f10x_tim.c ****   tmpccer |= (uint16_t)(TIM_OCInitStruct->TIM_OCPolarity << 12);
 1082              		.loc 1 553 0
 1083 074e 3B68     		ldr	r3, [r7, #0]
 1084 0750 1B89     		ldrh	r3, [r3, #8]
 1085 0752 4FEA0333 		lsl	r3, r3, #12
 1086 0756 9AB2     		uxth	r2, r3
 1087 0758 7B89     		ldrh	r3, [r7, #10]	@ movhi
 1088 075a 1343     		orrs	r3, r3, r2
 1089 075c 7B81     		strh	r3, [r7, #10]	@ movhi
 554:../lib/STM32F10x_StdPeriph_Driver/src/stm32f10x_tim.c ****   
 555:../lib/STM32F10x_StdPeriph_Driver/src/stm32f10x_tim.c ****   /* Set the Output State */
 556:../lib/STM32F10x_StdPeriph_Driver/src/stm32f10x_tim.c ****   tmpccer |= (uint16_t)(TIM_OCInitStruct->TIM_OutputState << 12);
 1090              		.loc 1 556 0
 1091 075e 3B68     		ldr	r3, [r7, #0]
 1092 0760 5B88     		ldrh	r3, [r3, #2]
 1093 0762 4FEA0333 		lsl	r3, r3, #12
 1094 0766 9AB2     		uxth	r2, r3
 1095 0768 7B89     		ldrh	r3, [r7, #10]	@ movhi
 1096 076a 1343     		orrs	r3, r3, r2
 1097 076c 7B81     		strh	r3, [r7, #10]	@ movhi
 557:../lib/STM32F10x_StdPeriph_Driver/src/stm32f10x_tim.c ****     
 558:../lib/STM32F10x_StdPeriph_Driver/src/stm32f10x_tim.c ****   if((TIMx == TIM1) || (TIMx == TIM8))
 1098              		.loc 1 558 0
 1099 076e 7A68     		ldr	r2, [r7, #4]
 1100 0770 124B     		ldr	r3, .L47
 1101 0772 9A42     		cmp	r2, r3
 1102 0774 03D0     		beq	.L45
 1103              		.loc 1 558 0 is_stmt 0 discriminator 1
 1104 0776 7A68     		ldr	r2, [r7, #4]
 1105 0778 114B     		ldr	r3, .L47+4
 1106 077a 9A42     		cmp	r2, r3
 1107 077c 0BD1     		bne	.L46
 1108              	.L45:
 559:../lib/STM32F10x_StdPeriph_Driver/src/stm32f10x_tim.c ****   {
 560:../lib/STM32F10x_StdPeriph_Driver/src/stm32f10x_tim.c ****     assert_param(IS_TIM_OCIDLE_STATE(TIM_OCInitStruct->TIM_OCIdleState));
 561:../lib/STM32F10x_StdPeriph_Driver/src/stm32f10x_tim.c ****     /* Reset the Output Compare IDLE State */
 562:../lib/STM32F10x_StdPeriph_Driver/src/stm32f10x_tim.c ****     tmpcr2 &= (uint16_t)(~((uint16_t)TIM_CR2_OIS4));
 1109              		.loc 1 562 0 is_stmt 1
 1110 077e FB89     		ldrh	r3, [r7, #14]	@ movhi
 1111 0780 23F48043 		bic	r3, r3, #16384
 1112 0784 FB81     		strh	r3, [r7, #14]	@ movhi
 563:../lib/STM32F10x_StdPeriph_Driver/src/stm32f10x_tim.c ****     /* Set the Output Idle state */
 564:../lib/STM32F10x_StdPeriph_Driver/src/stm32f10x_tim.c ****     tmpcr2 |= (uint16_t)(TIM_OCInitStruct->TIM_OCIdleState << 6);
 1113              		.loc 1 564 0
 1114 0786 3B68     		ldr	r3, [r7, #0]
 1115 0788 9B89     		ldrh	r3, [r3, #12]
 1116 078a 4FEA8313 		lsl	r3, r3, #6
 1117 078e 9AB2     		uxth	r2, r3
 1118 0790 FB89     		ldrh	r3, [r7, #14]	@ movhi
 1119 0792 1343     		orrs	r3, r3, r2
 1120 0794 FB81     		strh	r3, [r7, #14]	@ movhi
 1121              	.L46:
 565:../lib/STM32F10x_StdPeriph_Driver/src/stm32f10x_tim.c ****   }
 566:../lib/STM32F10x_StdPeriph_Driver/src/stm32f10x_tim.c ****   /* Write to TIMx CR2 */
 567:../lib/STM32F10x_StdPeriph_Driver/src/stm32f10x_tim.c ****   TIMx->CR2 = tmpcr2;
 1122              		.loc 1 567 0
 1123 0796 7B68     		ldr	r3, [r7, #4]
 1124 0798 FA89     		ldrh	r2, [r7, #14]	@ movhi
 1125 079a 9A80     		strh	r2, [r3, #4]	@ movhi
 568:../lib/STM32F10x_StdPeriph_Driver/src/stm32f10x_tim.c ****   
 569:../lib/STM32F10x_StdPeriph_Driver/src/stm32f10x_tim.c ****   /* Write to TIMx CCMR2 */  
 570:../lib/STM32F10x_StdPeriph_Driver/src/stm32f10x_tim.c ****   TIMx->CCMR2 = tmpccmrx;
 1126              		.loc 1 570 0
 1127 079c 7B68     		ldr	r3, [r7, #4]
 1128 079e BA89     		ldrh	r2, [r7, #12]	@ movhi
 1129 07a0 9A83     		strh	r2, [r3, #28]	@ movhi
 571:../lib/STM32F10x_StdPeriph_Driver/src/stm32f10x_tim.c **** 
 572:../lib/STM32F10x_StdPeriph_Driver/src/stm32f10x_tim.c ****   /* Set the Capture Compare Register value */
 573:../lib/STM32F10x_StdPeriph_Driver/src/stm32f10x_tim.c ****   TIMx->CCR4 = TIM_OCInitStruct->TIM_Pulse;
 1130              		.loc 1 573 0
 1131 07a2 3B68     		ldr	r3, [r7, #0]
 1132 07a4 DA88     		ldrh	r2, [r3, #6]
 1133 07a6 7B68     		ldr	r3, [r7, #4]
 1134 07a8 A3F84020 		strh	r2, [r3, #64]	@ movhi
 574:../lib/STM32F10x_StdPeriph_Driver/src/stm32f10x_tim.c ****   
 575:../lib/STM32F10x_StdPeriph_Driver/src/stm32f10x_tim.c ****   /* Write to TIMx CCER */
 576:../lib/STM32F10x_StdPeriph_Driver/src/stm32f10x_tim.c ****   TIMx->CCER = tmpccer;
 1135              		.loc 1 576 0
 1136 07ac 7B68     		ldr	r3, [r7, #4]
 1137 07ae 7A89     		ldrh	r2, [r7, #10]	@ movhi
 1138 07b0 1A84     		strh	r2, [r3, #32]	@ movhi
 577:../lib/STM32F10x_StdPeriph_Driver/src/stm32f10x_tim.c **** }
 1139              		.loc 1 577 0
 1140 07b2 07F11407 		add	r7, r7, #20
 1141 07b6 BD46     		mov	sp, r7
 1142 07b8 80BC     		pop	{r7}
 1143 07ba 7047     		bx	lr
 1144              	.L48:
 1145              		.align	2
 1146              	.L47:
 1147 07bc 002C0140 		.word	1073818624
 1148 07c0 00340140 		.word	1073820672
 1149              		.cfi_endproc
 1150              	.LFE34:
 1152              		.align	2
 1153              		.global	TIM_ICInit
 1154              		.thumb
 1155              		.thumb_func
 1157              	TIM_ICInit:
 1158              	.LFB35:
 578:../lib/STM32F10x_StdPeriph_Driver/src/stm32f10x_tim.c **** 
 579:../lib/STM32F10x_StdPeriph_Driver/src/stm32f10x_tim.c **** /**
 580:../lib/STM32F10x_StdPeriph_Driver/src/stm32f10x_tim.c ****   * @brief  Initializes the TIM peripheral according to the specified
 581:../lib/STM32F10x_StdPeriph_Driver/src/stm32f10x_tim.c ****   *         parameters in the TIM_ICInitStruct.
 582:../lib/STM32F10x_StdPeriph_Driver/src/stm32f10x_tim.c ****   * @param  TIMx: where x can be  1 to 17 except 6 and 7 to select the TIM peripheral.
 583:../lib/STM32F10x_StdPeriph_Driver/src/stm32f10x_tim.c ****   * @param  TIM_ICInitStruct: pointer to a TIM_ICInitTypeDef structure
 584:../lib/STM32F10x_StdPeriph_Driver/src/stm32f10x_tim.c ****   *         that contains the configuration information for the specified TIM peripheral.
 585:../lib/STM32F10x_StdPeriph_Driver/src/stm32f10x_tim.c ****   * @retval None
 586:../lib/STM32F10x_StdPeriph_Driver/src/stm32f10x_tim.c ****   */
 587:../lib/STM32F10x_StdPeriph_Driver/src/stm32f10x_tim.c **** void TIM_ICInit(TIM_TypeDef* TIMx, TIM_ICInitTypeDef* TIM_ICInitStruct)
 588:../lib/STM32F10x_StdPeriph_Driver/src/stm32f10x_tim.c **** {
 1159              		.loc 1 588 0
 1160              		.cfi_startproc
 1161              		@ args = 0, pretend = 0, frame = 8
 1162              		@ frame_needed = 1, uses_anonymous_args = 0
 1163 07c4 80B5     		push	{r7, lr}
 1164              	.LCFI18:
 1165              		.cfi_def_cfa_offset 8
 1166              		.cfi_offset 7, -8
 1167              		.cfi_offset 14, -4
 1168 07c6 82B0     		sub	sp, sp, #8
 1169              	.LCFI19:
 1170              		.cfi_def_cfa_offset 16
 1171 07c8 00AF     		add	r7, sp, #0
 1172              	.LCFI20:
 1173              		.cfi_def_cfa_register 7
 1174 07ca 7860     		str	r0, [r7, #4]
 1175 07cc 3960     		str	r1, [r7, #0]
 589:../lib/STM32F10x_StdPeriph_Driver/src/stm32f10x_tim.c ****   /* Check the parameters */
 590:../lib/STM32F10x_StdPeriph_Driver/src/stm32f10x_tim.c ****   assert_param(IS_TIM_CHANNEL(TIM_ICInitStruct->TIM_Channel));  
 591:../lib/STM32F10x_StdPeriph_Driver/src/stm32f10x_tim.c ****   assert_param(IS_TIM_IC_SELECTION(TIM_ICInitStruct->TIM_ICSelection));
 592:../lib/STM32F10x_StdPeriph_Driver/src/stm32f10x_tim.c ****   assert_param(IS_TIM_IC_PRESCALER(TIM_ICInitStruct->TIM_ICPrescaler));
 593:../lib/STM32F10x_StdPeriph_Driver/src/stm32f10x_tim.c ****   assert_param(IS_TIM_IC_FILTER(TIM_ICInitStruct->TIM_ICFilter));
 594:../lib/STM32F10x_StdPeriph_Driver/src/stm32f10x_tim.c ****   
 595:../lib/STM32F10x_StdPeriph_Driver/src/stm32f10x_tim.c ****   if((TIMx == TIM1) || (TIMx == TIM8) || (TIMx == TIM2) || (TIMx == TIM3) ||
 596:../lib/STM32F10x_StdPeriph_Driver/src/stm32f10x_tim.c ****      (TIMx == TIM4) ||(TIMx == TIM5))
 597:../lib/STM32F10x_StdPeriph_Driver/src/stm32f10x_tim.c ****   {
 598:../lib/STM32F10x_StdPeriph_Driver/src/stm32f10x_tim.c ****     assert_param(IS_TIM_IC_POLARITY(TIM_ICInitStruct->TIM_ICPolarity));
 599:../lib/STM32F10x_StdPeriph_Driver/src/stm32f10x_tim.c ****   }
 600:../lib/STM32F10x_StdPeriph_Driver/src/stm32f10x_tim.c ****   else
 601:../lib/STM32F10x_StdPeriph_Driver/src/stm32f10x_tim.c ****   {
 602:../lib/STM32F10x_StdPeriph_Driver/src/stm32f10x_tim.c ****     assert_param(IS_TIM_IC_POLARITY_LITE(TIM_ICInitStruct->TIM_ICPolarity));
 603:../lib/STM32F10x_StdPeriph_Driver/src/stm32f10x_tim.c ****   }
 604:../lib/STM32F10x_StdPeriph_Driver/src/stm32f10x_tim.c ****   if (TIM_ICInitStruct->TIM_Channel == TIM_Channel_1)
 1176              		.loc 1 604 0
 1177 07ce 3B68     		ldr	r3, [r7, #0]
 1178 07d0 1B88     		ldrh	r3, [r3, #0]
 1179 07d2 002B     		cmp	r3, #0
 1180 07d4 0FD1     		bne	.L50
 605:../lib/STM32F10x_StdPeriph_Driver/src/stm32f10x_tim.c ****   {
 606:../lib/STM32F10x_StdPeriph_Driver/src/stm32f10x_tim.c ****     assert_param(IS_TIM_LIST8_PERIPH(TIMx));
 607:../lib/STM32F10x_StdPeriph_Driver/src/stm32f10x_tim.c ****     /* TI1 Configuration */
 608:../lib/STM32F10x_StdPeriph_Driver/src/stm32f10x_tim.c ****     TI1_Config(TIMx, TIM_ICInitStruct->TIM_ICPolarity,
 1181              		.loc 1 608 0
 1182 07d6 3B68     		ldr	r3, [r7, #0]
 1183 07d8 5988     		ldrh	r1, [r3, #2]
 609:../lib/STM32F10x_StdPeriph_Driver/src/stm32f10x_tim.c ****                TIM_ICInitStruct->TIM_ICSelection,
 1184              		.loc 1 609 0
 1185 07da 3B68     		ldr	r3, [r7, #0]
 608:../lib/STM32F10x_StdPeriph_Driver/src/stm32f10x_tim.c ****     TI1_Config(TIMx, TIM_ICInitStruct->TIM_ICPolarity,
 1186              		.loc 1 608 0
 1187 07dc 9A88     		ldrh	r2, [r3, #4]
 610:../lib/STM32F10x_StdPeriph_Driver/src/stm32f10x_tim.c ****                TIM_ICInitStruct->TIM_ICFilter);
 1188              		.loc 1 610 0
 1189 07de 3B68     		ldr	r3, [r7, #0]
 608:../lib/STM32F10x_StdPeriph_Driver/src/stm32f10x_tim.c ****     TI1_Config(TIMx, TIM_ICInitStruct->TIM_ICPolarity,
 1190              		.loc 1 608 0
 1191 07e0 1B89     		ldrh	r3, [r3, #8]
 1192 07e2 7868     		ldr	r0, [r7, #4]
 1193 07e4 01F0D4F9 		bl	TI1_Config
 611:../lib/STM32F10x_StdPeriph_Driver/src/stm32f10x_tim.c ****     /* Set the Input Capture Prescaler value */
 612:../lib/STM32F10x_StdPeriph_Driver/src/stm32f10x_tim.c ****     TIM_SetIC1Prescaler(TIMx, TIM_ICInitStruct->TIM_ICPrescaler);
 1194              		.loc 1 612 0
 1195 07e8 3B68     		ldr	r3, [r7, #0]
 1196 07ea DB88     		ldrh	r3, [r3, #6]
 1197 07ec 7868     		ldr	r0, [r7, #4]
 1198 07ee 1946     		mov	r1, r3
 1199 07f0 FFF7FEFF 		bl	TIM_SetIC1Prescaler
 1200 07f4 36E0     		b	.L49
 1201              	.L50:
 613:../lib/STM32F10x_StdPeriph_Driver/src/stm32f10x_tim.c ****   }
 614:../lib/STM32F10x_StdPeriph_Driver/src/stm32f10x_tim.c ****   else if (TIM_ICInitStruct->TIM_Channel == TIM_Channel_2)
 1202              		.loc 1 614 0
 1203 07f6 3B68     		ldr	r3, [r7, #0]
 1204 07f8 1B88     		ldrh	r3, [r3, #0]
 1205 07fa 042B     		cmp	r3, #4
 1206 07fc 0FD1     		bne	.L52
 615:../lib/STM32F10x_StdPeriph_Driver/src/stm32f10x_tim.c ****   {
 616:../lib/STM32F10x_StdPeriph_Driver/src/stm32f10x_tim.c ****     assert_param(IS_TIM_LIST6_PERIPH(TIMx));
 617:../lib/STM32F10x_StdPeriph_Driver/src/stm32f10x_tim.c ****     /* TI2 Configuration */
 618:../lib/STM32F10x_StdPeriph_Driver/src/stm32f10x_tim.c ****     TI2_Config(TIMx, TIM_ICInitStruct->TIM_ICPolarity,
 1207              		.loc 1 618 0
 1208 07fe 3B68     		ldr	r3, [r7, #0]
 1209 0800 5988     		ldrh	r1, [r3, #2]
 619:../lib/STM32F10x_StdPeriph_Driver/src/stm32f10x_tim.c ****                TIM_ICInitStruct->TIM_ICSelection,
 1210              		.loc 1 619 0
 1211 0802 3B68     		ldr	r3, [r7, #0]
 618:../lib/STM32F10x_StdPeriph_Driver/src/stm32f10x_tim.c ****     TI2_Config(TIMx, TIM_ICInitStruct->TIM_ICPolarity,
 1212              		.loc 1 618 0
 1213 0804 9A88     		ldrh	r2, [r3, #4]
 620:../lib/STM32F10x_StdPeriph_Driver/src/stm32f10x_tim.c ****                TIM_ICInitStruct->TIM_ICFilter);
 1214              		.loc 1 620 0
 1215 0806 3B68     		ldr	r3, [r7, #0]
 618:../lib/STM32F10x_StdPeriph_Driver/src/stm32f10x_tim.c ****     TI2_Config(TIMx, TIM_ICInitStruct->TIM_ICPolarity,
 1216              		.loc 1 618 0
 1217 0808 1B89     		ldrh	r3, [r3, #8]
 1218 080a 7868     		ldr	r0, [r7, #4]
 1219 080c 01F02EFA 		bl	TI2_Config
 621:../lib/STM32F10x_StdPeriph_Driver/src/stm32f10x_tim.c ****     /* Set the Input Capture Prescaler value */
 622:../lib/STM32F10x_StdPeriph_Driver/src/stm32f10x_tim.c ****     TIM_SetIC2Prescaler(TIMx, TIM_ICInitStruct->TIM_ICPrescaler);
 1220              		.loc 1 622 0
 1221 0810 3B68     		ldr	r3, [r7, #0]
 1222 0812 DB88     		ldrh	r3, [r3, #6]
 1223 0814 7868     		ldr	r0, [r7, #4]
 1224 0816 1946     		mov	r1, r3
 1225 0818 FFF7FEFF 		bl	TIM_SetIC2Prescaler
 1226 081c 22E0     		b	.L49
 1227              	.L52:
 623:../lib/STM32F10x_StdPeriph_Driver/src/stm32f10x_tim.c ****   }
 624:../lib/STM32F10x_StdPeriph_Driver/src/stm32f10x_tim.c ****   else if (TIM_ICInitStruct->TIM_Channel == TIM_Channel_3)
 1228              		.loc 1 624 0
 1229 081e 3B68     		ldr	r3, [r7, #0]
 1230 0820 1B88     		ldrh	r3, [r3, #0]
 1231 0822 082B     		cmp	r3, #8
 1232 0824 0FD1     		bne	.L53
 625:../lib/STM32F10x_StdPeriph_Driver/src/stm32f10x_tim.c ****   {
 626:../lib/STM32F10x_StdPeriph_Driver/src/stm32f10x_tim.c ****     assert_param(IS_TIM_LIST3_PERIPH(TIMx));
 627:../lib/STM32F10x_StdPeriph_Driver/src/stm32f10x_tim.c ****     /* TI3 Configuration */
 628:../lib/STM32F10x_StdPeriph_Driver/src/stm32f10x_tim.c ****     TI3_Config(TIMx,  TIM_ICInitStruct->TIM_ICPolarity,
 1233              		.loc 1 628 0
 1234 0826 3B68     		ldr	r3, [r7, #0]
 1235 0828 5988     		ldrh	r1, [r3, #2]
 629:../lib/STM32F10x_StdPeriph_Driver/src/stm32f10x_tim.c ****                TIM_ICInitStruct->TIM_ICSelection,
 1236              		.loc 1 629 0
 1237 082a 3B68     		ldr	r3, [r7, #0]
 628:../lib/STM32F10x_StdPeriph_Driver/src/stm32f10x_tim.c ****     TI3_Config(TIMx,  TIM_ICInitStruct->TIM_ICPolarity,
 1238              		.loc 1 628 0
 1239 082c 9A88     		ldrh	r2, [r3, #4]
 630:../lib/STM32F10x_StdPeriph_Driver/src/stm32f10x_tim.c ****                TIM_ICInitStruct->TIM_ICFilter);
 1240              		.loc 1 630 0
 1241 082e 3B68     		ldr	r3, [r7, #0]
 628:../lib/STM32F10x_StdPeriph_Driver/src/stm32f10x_tim.c ****     TI3_Config(TIMx,  TIM_ICInitStruct->TIM_ICPolarity,
 1242              		.loc 1 628 0
 1243 0830 1B89     		ldrh	r3, [r3, #8]
 1244 0832 7868     		ldr	r0, [r7, #4]
 1245 0834 01F096FA 		bl	TI3_Config
 631:../lib/STM32F10x_StdPeriph_Driver/src/stm32f10x_tim.c ****     /* Set the Input Capture Prescaler value */
 632:../lib/STM32F10x_StdPeriph_Driver/src/stm32f10x_tim.c ****     TIM_SetIC3Prescaler(TIMx, TIM_ICInitStruct->TIM_ICPrescaler);
 1246              		.loc 1 632 0
 1247 0838 3B68     		ldr	r3, [r7, #0]
 1248 083a DB88     		ldrh	r3, [r3, #6]
 1249 083c 7868     		ldr	r0, [r7, #4]
 1250 083e 1946     		mov	r1, r3
 1251 0840 FFF7FEFF 		bl	TIM_SetIC3Prescaler
 1252 0844 0EE0     		b	.L49
 1253              	.L53:
 633:../lib/STM32F10x_StdPeriph_Driver/src/stm32f10x_tim.c ****   }
 634:../lib/STM32F10x_StdPeriph_Driver/src/stm32f10x_tim.c ****   else
 635:../lib/STM32F10x_StdPeriph_Driver/src/stm32f10x_tim.c ****   {
 636:../lib/STM32F10x_StdPeriph_Driver/src/stm32f10x_tim.c ****     assert_param(IS_TIM_LIST3_PERIPH(TIMx));
 637:../lib/STM32F10x_StdPeriph_Driver/src/stm32f10x_tim.c ****     /* TI4 Configuration */
 638:../lib/STM32F10x_StdPeriph_Driver/src/stm32f10x_tim.c ****     TI4_Config(TIMx, TIM_ICInitStruct->TIM_ICPolarity,
 1254              		.loc 1 638 0
 1255 0846 3B68     		ldr	r3, [r7, #0]
 1256 0848 5988     		ldrh	r1, [r3, #2]
 639:../lib/STM32F10x_StdPeriph_Driver/src/stm32f10x_tim.c ****                TIM_ICInitStruct->TIM_ICSelection,
 1257              		.loc 1 639 0
 1258 084a 3B68     		ldr	r3, [r7, #0]
 638:../lib/STM32F10x_StdPeriph_Driver/src/stm32f10x_tim.c ****     TI4_Config(TIMx, TIM_ICInitStruct->TIM_ICPolarity,
 1259              		.loc 1 638 0
 1260 084c 9A88     		ldrh	r2, [r3, #4]
 640:../lib/STM32F10x_StdPeriph_Driver/src/stm32f10x_tim.c ****                TIM_ICInitStruct->TIM_ICFilter);
 1261              		.loc 1 640 0
 1262 084e 3B68     		ldr	r3, [r7, #0]
 638:../lib/STM32F10x_StdPeriph_Driver/src/stm32f10x_tim.c ****     TI4_Config(TIMx, TIM_ICInitStruct->TIM_ICPolarity,
 1263              		.loc 1 638 0
 1264 0850 1B89     		ldrh	r3, [r3, #8]
 1265 0852 7868     		ldr	r0, [r7, #4]
 1266 0854 01F0FAFA 		bl	TI4_Config
 641:../lib/STM32F10x_StdPeriph_Driver/src/stm32f10x_tim.c ****     /* Set the Input Capture Prescaler value */
 642:../lib/STM32F10x_StdPeriph_Driver/src/stm32f10x_tim.c ****     TIM_SetIC4Prescaler(TIMx, TIM_ICInitStruct->TIM_ICPrescaler);
 1267              		.loc 1 642 0
 1268 0858 3B68     		ldr	r3, [r7, #0]
 1269 085a DB88     		ldrh	r3, [r3, #6]
 1270 085c 7868     		ldr	r0, [r7, #4]
 1271 085e 1946     		mov	r1, r3
 1272 0860 FFF7FEFF 		bl	TIM_SetIC4Prescaler
 1273              	.L49:
 643:../lib/STM32F10x_StdPeriph_Driver/src/stm32f10x_tim.c ****   }
 644:../lib/STM32F10x_StdPeriph_Driver/src/stm32f10x_tim.c **** }
 1274              		.loc 1 644 0
 1275 0864 07F10807 		add	r7, r7, #8
 1276 0868 BD46     		mov	sp, r7
 1277 086a 80BD     		pop	{r7, pc}
 1278              		.cfi_endproc
 1279              	.LFE35:
 1281              		.align	2
 1282              		.global	TIM_PWMIConfig
 1283              		.thumb
 1284              		.thumb_func
 1286              	TIM_PWMIConfig:
 1287              	.LFB36:
 645:../lib/STM32F10x_StdPeriph_Driver/src/stm32f10x_tim.c **** 
 646:../lib/STM32F10x_StdPeriph_Driver/src/stm32f10x_tim.c **** /**
 647:../lib/STM32F10x_StdPeriph_Driver/src/stm32f10x_tim.c ****   * @brief  Configures the TIM peripheral according to the specified
 648:../lib/STM32F10x_StdPeriph_Driver/src/stm32f10x_tim.c ****   *         parameters in the TIM_ICInitStruct to measure an external PWM signal.
 649:../lib/STM32F10x_StdPeriph_Driver/src/stm32f10x_tim.c ****   * @param  TIMx: where x can be  1, 2, 3, 4, 5, 8, 9, 12 or 15 to select the TIM peripheral.
 650:../lib/STM32F10x_StdPeriph_Driver/src/stm32f10x_tim.c ****   * @param  TIM_ICInitStruct: pointer to a TIM_ICInitTypeDef structure
 651:../lib/STM32F10x_StdPeriph_Driver/src/stm32f10x_tim.c ****   *         that contains the configuration information for the specified TIM peripheral.
 652:../lib/STM32F10x_StdPeriph_Driver/src/stm32f10x_tim.c ****   * @retval None
 653:../lib/STM32F10x_StdPeriph_Driver/src/stm32f10x_tim.c ****   */
 654:../lib/STM32F10x_StdPeriph_Driver/src/stm32f10x_tim.c **** void TIM_PWMIConfig(TIM_TypeDef* TIMx, TIM_ICInitTypeDef* TIM_ICInitStruct)
 655:../lib/STM32F10x_StdPeriph_Driver/src/stm32f10x_tim.c **** {
 1288              		.loc 1 655 0
 1289              		.cfi_startproc
 1290              		@ args = 0, pretend = 0, frame = 16
 1291              		@ frame_needed = 1, uses_anonymous_args = 0
 1292 086c 80B5     		push	{r7, lr}
 1293              	.LCFI21:
 1294              		.cfi_def_cfa_offset 8
 1295              		.cfi_offset 7, -8
 1296              		.cfi_offset 14, -4
 1297 086e 84B0     		sub	sp, sp, #16
 1298              	.LCFI22:
 1299              		.cfi_def_cfa_offset 24
 1300 0870 00AF     		add	r7, sp, #0
 1301              	.LCFI23:
 1302              		.cfi_def_cfa_register 7
 1303 0872 7860     		str	r0, [r7, #4]
 1304 0874 3960     		str	r1, [r7, #0]
 656:../lib/STM32F10x_StdPeriph_Driver/src/stm32f10x_tim.c ****   uint16_t icoppositepolarity = TIM_ICPolarity_Rising;
 1305              		.loc 1 656 0
 1306 0876 4FF00003 		mov	r3, #0
 1307 087a FB81     		strh	r3, [r7, #14]	@ movhi
 657:../lib/STM32F10x_StdPeriph_Driver/src/stm32f10x_tim.c ****   uint16_t icoppositeselection = TIM_ICSelection_DirectTI;
 1308              		.loc 1 657 0
 1309 087c 4FF00103 		mov	r3, #1
 1310 0880 BB81     		strh	r3, [r7, #12]	@ movhi
 658:../lib/STM32F10x_StdPeriph_Driver/src/stm32f10x_tim.c ****   /* Check the parameters */
 659:../lib/STM32F10x_StdPeriph_Driver/src/stm32f10x_tim.c ****   assert_param(IS_TIM_LIST6_PERIPH(TIMx));
 660:../lib/STM32F10x_StdPeriph_Driver/src/stm32f10x_tim.c ****   /* Select the Opposite Input Polarity */
 661:../lib/STM32F10x_StdPeriph_Driver/src/stm32f10x_tim.c ****   if (TIM_ICInitStruct->TIM_ICPolarity == TIM_ICPolarity_Rising)
 1311              		.loc 1 661 0
 1312 0882 3B68     		ldr	r3, [r7, #0]
 1313 0884 5B88     		ldrh	r3, [r3, #2]
 1314 0886 002B     		cmp	r3, #0
 1315 0888 03D1     		bne	.L55
 662:../lib/STM32F10x_StdPeriph_Driver/src/stm32f10x_tim.c ****   {
 663:../lib/STM32F10x_StdPeriph_Driver/src/stm32f10x_tim.c ****     icoppositepolarity = TIM_ICPolarity_Falling;
 1316              		.loc 1 663 0
 1317 088a 4FF00203 		mov	r3, #2
 1318 088e FB81     		strh	r3, [r7, #14]	@ movhi
 1319 0890 02E0     		b	.L56
 1320              	.L55:
 664:../lib/STM32F10x_StdPeriph_Driver/src/stm32f10x_tim.c ****   }
 665:../lib/STM32F10x_StdPeriph_Driver/src/stm32f10x_tim.c ****   else
 666:../lib/STM32F10x_StdPeriph_Driver/src/stm32f10x_tim.c ****   {
 667:../lib/STM32F10x_StdPeriph_Driver/src/stm32f10x_tim.c ****     icoppositepolarity = TIM_ICPolarity_Rising;
 1321              		.loc 1 667 0
 1322 0892 4FF00003 		mov	r3, #0
 1323 0896 FB81     		strh	r3, [r7, #14]	@ movhi
 1324              	.L56:
 668:../lib/STM32F10x_StdPeriph_Driver/src/stm32f10x_tim.c ****   }
 669:../lib/STM32F10x_StdPeriph_Driver/src/stm32f10x_tim.c ****   /* Select the Opposite Input */
 670:../lib/STM32F10x_StdPeriph_Driver/src/stm32f10x_tim.c ****   if (TIM_ICInitStruct->TIM_ICSelection == TIM_ICSelection_DirectTI)
 1325              		.loc 1 670 0
 1326 0898 3B68     		ldr	r3, [r7, #0]
 1327 089a 9B88     		ldrh	r3, [r3, #4]
 1328 089c 012B     		cmp	r3, #1
 1329 089e 03D1     		bne	.L57
 671:../lib/STM32F10x_StdPeriph_Driver/src/stm32f10x_tim.c ****   {
 672:../lib/STM32F10x_StdPeriph_Driver/src/stm32f10x_tim.c ****     icoppositeselection = TIM_ICSelection_IndirectTI;
 1330              		.loc 1 672 0
 1331 08a0 4FF00203 		mov	r3, #2
 1332 08a4 BB81     		strh	r3, [r7, #12]	@ movhi
 1333 08a6 02E0     		b	.L58
 1334              	.L57:
 673:../lib/STM32F10x_StdPeriph_Driver/src/stm32f10x_tim.c ****   }
 674:../lib/STM32F10x_StdPeriph_Driver/src/stm32f10x_tim.c ****   else
 675:../lib/STM32F10x_StdPeriph_Driver/src/stm32f10x_tim.c ****   {
 676:../lib/STM32F10x_StdPeriph_Driver/src/stm32f10x_tim.c ****     icoppositeselection = TIM_ICSelection_DirectTI;
 1335              		.loc 1 676 0
 1336 08a8 4FF00103 		mov	r3, #1
 1337 08ac BB81     		strh	r3, [r7, #12]	@ movhi
 1338              	.L58:
 677:../lib/STM32F10x_StdPeriph_Driver/src/stm32f10x_tim.c ****   }
 678:../lib/STM32F10x_StdPeriph_Driver/src/stm32f10x_tim.c ****   if (TIM_ICInitStruct->TIM_Channel == TIM_Channel_1)
 1339              		.loc 1 678 0
 1340 08ae 3B68     		ldr	r3, [r7, #0]
 1341 08b0 1B88     		ldrh	r3, [r3, #0]
 1342 08b2 002B     		cmp	r3, #0
 1343 08b4 1CD1     		bne	.L59
 679:../lib/STM32F10x_StdPeriph_Driver/src/stm32f10x_tim.c ****   {
 680:../lib/STM32F10x_StdPeriph_Driver/src/stm32f10x_tim.c ****     /* TI1 Configuration */
 681:../lib/STM32F10x_StdPeriph_Driver/src/stm32f10x_tim.c ****     TI1_Config(TIMx, TIM_ICInitStruct->TIM_ICPolarity, TIM_ICInitStruct->TIM_ICSelection,
 1344              		.loc 1 681 0
 1345 08b6 3B68     		ldr	r3, [r7, #0]
 1346 08b8 5988     		ldrh	r1, [r3, #2]
 1347 08ba 3B68     		ldr	r3, [r7, #0]
 1348 08bc 9A88     		ldrh	r2, [r3, #4]
 682:../lib/STM32F10x_StdPeriph_Driver/src/stm32f10x_tim.c ****                TIM_ICInitStruct->TIM_ICFilter);
 1349              		.loc 1 682 0
 1350 08be 3B68     		ldr	r3, [r7, #0]
 681:../lib/STM32F10x_StdPeriph_Driver/src/stm32f10x_tim.c ****     TI1_Config(TIMx, TIM_ICInitStruct->TIM_ICPolarity, TIM_ICInitStruct->TIM_ICSelection,
 1351              		.loc 1 681 0
 1352 08c0 1B89     		ldrh	r3, [r3, #8]
 1353 08c2 7868     		ldr	r0, [r7, #4]
 1354 08c4 01F064F9 		bl	TI1_Config
 683:../lib/STM32F10x_StdPeriph_Driver/src/stm32f10x_tim.c ****     /* Set the Input Capture Prescaler value */
 684:../lib/STM32F10x_StdPeriph_Driver/src/stm32f10x_tim.c ****     TIM_SetIC1Prescaler(TIMx, TIM_ICInitStruct->TIM_ICPrescaler);
 1355              		.loc 1 684 0
 1356 08c8 3B68     		ldr	r3, [r7, #0]
 1357 08ca DB88     		ldrh	r3, [r3, #6]
 1358 08cc 7868     		ldr	r0, [r7, #4]
 1359 08ce 1946     		mov	r1, r3
 1360 08d0 FFF7FEFF 		bl	TIM_SetIC1Prescaler
 685:../lib/STM32F10x_StdPeriph_Driver/src/stm32f10x_tim.c ****     /* TI2 Configuration */
 686:../lib/STM32F10x_StdPeriph_Driver/src/stm32f10x_tim.c ****     TI2_Config(TIMx, icoppositepolarity, icoppositeselection, TIM_ICInitStruct->TIM_ICFilter);
 1361              		.loc 1 686 0
 1362 08d4 3B68     		ldr	r3, [r7, #0]
 1363 08d6 1B89     		ldrh	r3, [r3, #8]
 1364 08d8 F989     		ldrh	r1, [r7, #14]
 1365 08da BA89     		ldrh	r2, [r7, #12]
 1366 08dc 7868     		ldr	r0, [r7, #4]
 1367 08de 01F0C5F9 		bl	TI2_Config
 687:../lib/STM32F10x_StdPeriph_Driver/src/stm32f10x_tim.c ****     /* Set the Input Capture Prescaler value */
 688:../lib/STM32F10x_StdPeriph_Driver/src/stm32f10x_tim.c ****     TIM_SetIC2Prescaler(TIMx, TIM_ICInitStruct->TIM_ICPrescaler);
 1368              		.loc 1 688 0
 1369 08e2 3B68     		ldr	r3, [r7, #0]
 1370 08e4 DB88     		ldrh	r3, [r3, #6]
 1371 08e6 7868     		ldr	r0, [r7, #4]
 1372 08e8 1946     		mov	r1, r3
 1373 08ea FFF7FEFF 		bl	TIM_SetIC2Prescaler
 1374 08ee 1BE0     		b	.L54
 1375              	.L59:
 689:../lib/STM32F10x_StdPeriph_Driver/src/stm32f10x_tim.c ****   }
 690:../lib/STM32F10x_StdPeriph_Driver/src/stm32f10x_tim.c ****   else
 691:../lib/STM32F10x_StdPeriph_Driver/src/stm32f10x_tim.c ****   { 
 692:../lib/STM32F10x_StdPeriph_Driver/src/stm32f10x_tim.c ****     /* TI2 Configuration */
 693:../lib/STM32F10x_StdPeriph_Driver/src/stm32f10x_tim.c ****     TI2_Config(TIMx, TIM_ICInitStruct->TIM_ICPolarity, TIM_ICInitStruct->TIM_ICSelection,
 1376              		.loc 1 693 0
 1377 08f0 3B68     		ldr	r3, [r7, #0]
 1378 08f2 5988     		ldrh	r1, [r3, #2]
 1379 08f4 3B68     		ldr	r3, [r7, #0]
 1380 08f6 9A88     		ldrh	r2, [r3, #4]
 694:../lib/STM32F10x_StdPeriph_Driver/src/stm32f10x_tim.c ****                TIM_ICInitStruct->TIM_ICFilter);
 1381              		.loc 1 694 0
 1382 08f8 3B68     		ldr	r3, [r7, #0]
 693:../lib/STM32F10x_StdPeriph_Driver/src/stm32f10x_tim.c ****     TI2_Config(TIMx, TIM_ICInitStruct->TIM_ICPolarity, TIM_ICInitStruct->TIM_ICSelection,
 1383              		.loc 1 693 0
 1384 08fa 1B89     		ldrh	r3, [r3, #8]
 1385 08fc 7868     		ldr	r0, [r7, #4]
 1386 08fe 01F0B5F9 		bl	TI2_Config
 695:../lib/STM32F10x_StdPeriph_Driver/src/stm32f10x_tim.c ****     /* Set the Input Capture Prescaler value */
 696:../lib/STM32F10x_StdPeriph_Driver/src/stm32f10x_tim.c ****     TIM_SetIC2Prescaler(TIMx, TIM_ICInitStruct->TIM_ICPrescaler);
 1387              		.loc 1 696 0
 1388 0902 3B68     		ldr	r3, [r7, #0]
 1389 0904 DB88     		ldrh	r3, [r3, #6]
 1390 0906 7868     		ldr	r0, [r7, #4]
 1391 0908 1946     		mov	r1, r3
 1392 090a FFF7FEFF 		bl	TIM_SetIC2Prescaler
 697:../lib/STM32F10x_StdPeriph_Driver/src/stm32f10x_tim.c ****     /* TI1 Configuration */
 698:../lib/STM32F10x_StdPeriph_Driver/src/stm32f10x_tim.c ****     TI1_Config(TIMx, icoppositepolarity, icoppositeselection, TIM_ICInitStruct->TIM_ICFilter);
 1393              		.loc 1 698 0
 1394 090e 3B68     		ldr	r3, [r7, #0]
 1395 0910 1B89     		ldrh	r3, [r3, #8]
 1396 0912 F989     		ldrh	r1, [r7, #14]
 1397 0914 BA89     		ldrh	r2, [r7, #12]
 1398 0916 7868     		ldr	r0, [r7, #4]
 1399 0918 01F03AF9 		bl	TI1_Config
 699:../lib/STM32F10x_StdPeriph_Driver/src/stm32f10x_tim.c ****     /* Set the Input Capture Prescaler value */
 700:../lib/STM32F10x_StdPeriph_Driver/src/stm32f10x_tim.c ****     TIM_SetIC1Prescaler(TIMx, TIM_ICInitStruct->TIM_ICPrescaler);
 1400              		.loc 1 700 0
 1401 091c 3B68     		ldr	r3, [r7, #0]
 1402 091e DB88     		ldrh	r3, [r3, #6]
 1403 0920 7868     		ldr	r0, [r7, #4]
 1404 0922 1946     		mov	r1, r3
 1405 0924 FFF7FEFF 		bl	TIM_SetIC1Prescaler
 1406              	.L54:
 701:../lib/STM32F10x_StdPeriph_Driver/src/stm32f10x_tim.c ****   }
 702:../lib/STM32F10x_StdPeriph_Driver/src/stm32f10x_tim.c **** }
 1407              		.loc 1 702 0
 1408 0928 07F11007 		add	r7, r7, #16
 1409 092c BD46     		mov	sp, r7
 1410 092e 80BD     		pop	{r7, pc}
 1411              		.cfi_endproc
 1412              	.LFE36:
 1414              		.align	2
 1415              		.global	TIM_BDTRConfig
 1416              		.thumb
 1417              		.thumb_func
 1419              	TIM_BDTRConfig:
 1420              	.LFB37:
 703:../lib/STM32F10x_StdPeriph_Driver/src/stm32f10x_tim.c **** 
 704:../lib/STM32F10x_StdPeriph_Driver/src/stm32f10x_tim.c **** /**
 705:../lib/STM32F10x_StdPeriph_Driver/src/stm32f10x_tim.c ****   * @brief  Configures the: Break feature, dead time, Lock level, the OSSI,
 706:../lib/STM32F10x_StdPeriph_Driver/src/stm32f10x_tim.c ****   *         the OSSR State and the AOE(automatic output enable).
 707:../lib/STM32F10x_StdPeriph_Driver/src/stm32f10x_tim.c ****   * @param  TIMx: where x can be  1 or 8 to select the TIM 
 708:../lib/STM32F10x_StdPeriph_Driver/src/stm32f10x_tim.c ****   * @param  TIM_BDTRInitStruct: pointer to a TIM_BDTRInitTypeDef structure that
 709:../lib/STM32F10x_StdPeriph_Driver/src/stm32f10x_tim.c ****   *         contains the BDTR Register configuration  information for the TIM peripheral.
 710:../lib/STM32F10x_StdPeriph_Driver/src/stm32f10x_tim.c ****   * @retval None
 711:../lib/STM32F10x_StdPeriph_Driver/src/stm32f10x_tim.c ****   */
 712:../lib/STM32F10x_StdPeriph_Driver/src/stm32f10x_tim.c **** void TIM_BDTRConfig(TIM_TypeDef* TIMx, TIM_BDTRInitTypeDef *TIM_BDTRInitStruct)
 713:../lib/STM32F10x_StdPeriph_Driver/src/stm32f10x_tim.c **** {
 1421              		.loc 1 713 0
 1422              		.cfi_startproc
 1423              		@ args = 0, pretend = 0, frame = 8
 1424              		@ frame_needed = 1, uses_anonymous_args = 0
 1425              		@ link register save eliminated.
 1426 0930 80B4     		push	{r7}
 1427              	.LCFI24:
 1428              		.cfi_def_cfa_offset 4
 1429              		.cfi_offset 7, -4
 1430 0932 83B0     		sub	sp, sp, #12
 1431              	.LCFI25:
 1432              		.cfi_def_cfa_offset 16
 1433 0934 00AF     		add	r7, sp, #0
 1434              	.LCFI26:
 1435              		.cfi_def_cfa_register 7
 1436 0936 7860     		str	r0, [r7, #4]
 1437 0938 3960     		str	r1, [r7, #0]
 714:../lib/STM32F10x_StdPeriph_Driver/src/stm32f10x_tim.c ****   /* Check the parameters */
 715:../lib/STM32F10x_StdPeriph_Driver/src/stm32f10x_tim.c ****   assert_param(IS_TIM_LIST2_PERIPH(TIMx));
 716:../lib/STM32F10x_StdPeriph_Driver/src/stm32f10x_tim.c ****   assert_param(IS_TIM_OSSR_STATE(TIM_BDTRInitStruct->TIM_OSSRState));
 717:../lib/STM32F10x_StdPeriph_Driver/src/stm32f10x_tim.c ****   assert_param(IS_TIM_OSSI_STATE(TIM_BDTRInitStruct->TIM_OSSIState));
 718:../lib/STM32F10x_StdPeriph_Driver/src/stm32f10x_tim.c ****   assert_param(IS_TIM_LOCK_LEVEL(TIM_BDTRInitStruct->TIM_LOCKLevel));
 719:../lib/STM32F10x_StdPeriph_Driver/src/stm32f10x_tim.c ****   assert_param(IS_TIM_BREAK_STATE(TIM_BDTRInitStruct->TIM_Break));
 720:../lib/STM32F10x_StdPeriph_Driver/src/stm32f10x_tim.c ****   assert_param(IS_TIM_BREAK_POLARITY(TIM_BDTRInitStruct->TIM_BreakPolarity));
 721:../lib/STM32F10x_StdPeriph_Driver/src/stm32f10x_tim.c ****   assert_param(IS_TIM_AUTOMATIC_OUTPUT_STATE(TIM_BDTRInitStruct->TIM_AutomaticOutput));
 722:../lib/STM32F10x_StdPeriph_Driver/src/stm32f10x_tim.c ****   /* Set the Lock level, the Break enable Bit and the Ploarity, the OSSR State,
 723:../lib/STM32F10x_StdPeriph_Driver/src/stm32f10x_tim.c ****      the OSSI State, the dead time value and the Automatic Output Enable Bit */
 724:../lib/STM32F10x_StdPeriph_Driver/src/stm32f10x_tim.c ****   TIMx->BDTR = (uint32_t)TIM_BDTRInitStruct->TIM_OSSRState | TIM_BDTRInitStruct->TIM_OSSIState |
 1438              		.loc 1 724 0
 1439 093a 3B68     		ldr	r3, [r7, #0]
 1440 093c 1A88     		ldrh	r2, [r3, #0]
 1441 093e 3B68     		ldr	r3, [r7, #0]
 1442 0940 5B88     		ldrh	r3, [r3, #2]
 1443 0942 1343     		orrs	r3, r3, r2
 1444 0944 9AB2     		uxth	r2, r3
 725:../lib/STM32F10x_StdPeriph_Driver/src/stm32f10x_tim.c ****              TIM_BDTRInitStruct->TIM_LOCKLevel | TIM_BDTRInitStruct->TIM_DeadTime |
 1445              		.loc 1 725 0
 1446 0946 3B68     		ldr	r3, [r7, #0]
 1447 0948 9B88     		ldrh	r3, [r3, #4]
 724:../lib/STM32F10x_StdPeriph_Driver/src/stm32f10x_tim.c ****   TIMx->BDTR = (uint32_t)TIM_BDTRInitStruct->TIM_OSSRState | TIM_BDTRInitStruct->TIM_OSSIState |
 1448              		.loc 1 724 0
 1449 094a 1343     		orrs	r3, r3, r2
 1450 094c 9AB2     		uxth	r2, r3
 1451              		.loc 1 725 0
 1452 094e 3B68     		ldr	r3, [r7, #0]
 1453 0950 DB88     		ldrh	r3, [r3, #6]
 724:../lib/STM32F10x_StdPeriph_Driver/src/stm32f10x_tim.c ****   TIMx->BDTR = (uint32_t)TIM_BDTRInitStruct->TIM_OSSRState | TIM_BDTRInitStruct->TIM_OSSIState |
 1454              		.loc 1 724 0
 1455 0952 1343     		orrs	r3, r3, r2
 1456 0954 9AB2     		uxth	r2, r3
 726:../lib/STM32F10x_StdPeriph_Driver/src/stm32f10x_tim.c ****              TIM_BDTRInitStruct->TIM_Break | TIM_BDTRInitStruct->TIM_BreakPolarity |
 1457              		.loc 1 726 0
 1458 0956 3B68     		ldr	r3, [r7, #0]
 1459 0958 1B89     		ldrh	r3, [r3, #8]
 724:../lib/STM32F10x_StdPeriph_Driver/src/stm32f10x_tim.c ****   TIMx->BDTR = (uint32_t)TIM_BDTRInitStruct->TIM_OSSRState | TIM_BDTRInitStruct->TIM_OSSIState |
 1460              		.loc 1 724 0
 1461 095a 1343     		orrs	r3, r3, r2
 1462 095c 9AB2     		uxth	r2, r3
 1463              		.loc 1 726 0
 1464 095e 3B68     		ldr	r3, [r7, #0]
 1465 0960 5B89     		ldrh	r3, [r3, #10]
 724:../lib/STM32F10x_StdPeriph_Driver/src/stm32f10x_tim.c ****   TIMx->BDTR = (uint32_t)TIM_BDTRInitStruct->TIM_OSSRState | TIM_BDTRInitStruct->TIM_OSSIState |
 1466              		.loc 1 724 0
 1467 0962 1343     		orrs	r3, r3, r2
 1468 0964 9AB2     		uxth	r2, r3
 727:../lib/STM32F10x_StdPeriph_Driver/src/stm32f10x_tim.c ****              TIM_BDTRInitStruct->TIM_AutomaticOutput;
 1469              		.loc 1 727 0
 1470 0966 3B68     		ldr	r3, [r7, #0]
 1471 0968 9B89     		ldrh	r3, [r3, #12]
 724:../lib/STM32F10x_StdPeriph_Driver/src/stm32f10x_tim.c ****   TIMx->BDTR = (uint32_t)TIM_BDTRInitStruct->TIM_OSSRState | TIM_BDTRInitStruct->TIM_OSSIState |
 1472              		.loc 1 724 0
 1473 096a 1343     		orrs	r3, r3, r2
 1474 096c 9AB2     		uxth	r2, r3
 1475 096e 7B68     		ldr	r3, [r7, #4]
 1476 0970 A3F84420 		strh	r2, [r3, #68]	@ movhi
 728:../lib/STM32F10x_StdPeriph_Driver/src/stm32f10x_tim.c **** }
 1477              		.loc 1 728 0
 1478 0974 07F10C07 		add	r7, r7, #12
 1479 0978 BD46     		mov	sp, r7
 1480 097a 80BC     		pop	{r7}
 1481 097c 7047     		bx	lr
 1482              		.cfi_endproc
 1483              	.LFE37:
 1485 097e 00BF     		.align	2
 1486              		.global	TIM_TimeBaseStructInit
 1487              		.thumb
 1488              		.thumb_func
 1490              	TIM_TimeBaseStructInit:
 1491              	.LFB38:
 729:../lib/STM32F10x_StdPeriph_Driver/src/stm32f10x_tim.c **** 
 730:../lib/STM32F10x_StdPeriph_Driver/src/stm32f10x_tim.c **** /**
 731:../lib/STM32F10x_StdPeriph_Driver/src/stm32f10x_tim.c ****   * @brief  Fills each TIM_TimeBaseInitStruct member with its default value.
 732:../lib/STM32F10x_StdPeriph_Driver/src/stm32f10x_tim.c ****   * @param  TIM_TimeBaseInitStruct : pointer to a TIM_TimeBaseInitTypeDef
 733:../lib/STM32F10x_StdPeriph_Driver/src/stm32f10x_tim.c ****   *         structure which will be initialized.
 734:../lib/STM32F10x_StdPeriph_Driver/src/stm32f10x_tim.c ****   * @retval None
 735:../lib/STM32F10x_StdPeriph_Driver/src/stm32f10x_tim.c ****   */
 736:../lib/STM32F10x_StdPeriph_Driver/src/stm32f10x_tim.c **** void TIM_TimeBaseStructInit(TIM_TimeBaseInitTypeDef* TIM_TimeBaseInitStruct)
 737:../lib/STM32F10x_StdPeriph_Driver/src/stm32f10x_tim.c **** {
 1492              		.loc 1 737 0
 1493              		.cfi_startproc
 1494              		@ args = 0, pretend = 0, frame = 8
 1495              		@ frame_needed = 1, uses_anonymous_args = 0
 1496              		@ link register save eliminated.
 1497 0980 80B4     		push	{r7}
 1498              	.LCFI27:
 1499              		.cfi_def_cfa_offset 4
 1500              		.cfi_offset 7, -4
 1501 0982 83B0     		sub	sp, sp, #12
 1502              	.LCFI28:
 1503              		.cfi_def_cfa_offset 16
 1504 0984 00AF     		add	r7, sp, #0
 1505              	.LCFI29:
 1506              		.cfi_def_cfa_register 7
 1507 0986 7860     		str	r0, [r7, #4]
 738:../lib/STM32F10x_StdPeriph_Driver/src/stm32f10x_tim.c ****   /* Set the default configuration */
 739:../lib/STM32F10x_StdPeriph_Driver/src/stm32f10x_tim.c ****   TIM_TimeBaseInitStruct->TIM_Period = 0xFFFF;
 1508              		.loc 1 739 0
 1509 0988 7B68     		ldr	r3, [r7, #4]
 1510 098a 4FF6FF72 		movw	r2, #65535
 1511 098e 9A80     		strh	r2, [r3, #4]	@ movhi
 740:../lib/STM32F10x_StdPeriph_Driver/src/stm32f10x_tim.c ****   TIM_TimeBaseInitStruct->TIM_Prescaler = 0x0000;
 1512              		.loc 1 740 0
 1513 0990 7B68     		ldr	r3, [r7, #4]
 1514 0992 4FF00002 		mov	r2, #0
 1515 0996 1A80     		strh	r2, [r3, #0]	@ movhi
 741:../lib/STM32F10x_StdPeriph_Driver/src/stm32f10x_tim.c ****   TIM_TimeBaseInitStruct->TIM_ClockDivision = TIM_CKD_DIV1;
 1516              		.loc 1 741 0
 1517 0998 7B68     		ldr	r3, [r7, #4]
 1518 099a 4FF00002 		mov	r2, #0
 1519 099e DA80     		strh	r2, [r3, #6]	@ movhi
 742:../lib/STM32F10x_StdPeriph_Driver/src/stm32f10x_tim.c ****   TIM_TimeBaseInitStruct->TIM_CounterMode = TIM_CounterMode_Up;
 1520              		.loc 1 742 0
 1521 09a0 7B68     		ldr	r3, [r7, #4]
 1522 09a2 4FF00002 		mov	r2, #0
 1523 09a6 5A80     		strh	r2, [r3, #2]	@ movhi
 743:../lib/STM32F10x_StdPeriph_Driver/src/stm32f10x_tim.c ****   TIM_TimeBaseInitStruct->TIM_RepetitionCounter = 0x0000;
 1524              		.loc 1 743 0
 1525 09a8 7B68     		ldr	r3, [r7, #4]
 1526 09aa 4FF00002 		mov	r2, #0
 1527 09ae 1A72     		strb	r2, [r3, #8]
 744:../lib/STM32F10x_StdPeriph_Driver/src/stm32f10x_tim.c **** }
 1528              		.loc 1 744 0
 1529 09b0 07F10C07 		add	r7, r7, #12
 1530 09b4 BD46     		mov	sp, r7
 1531 09b6 80BC     		pop	{r7}
 1532 09b8 7047     		bx	lr
 1533              		.cfi_endproc
 1534              	.LFE38:
 1536 09ba 00BF     		.align	2
 1537              		.global	TIM_OCStructInit
 1538              		.thumb
 1539              		.thumb_func
 1541              	TIM_OCStructInit:
 1542              	.LFB39:
 745:../lib/STM32F10x_StdPeriph_Driver/src/stm32f10x_tim.c **** 
 746:../lib/STM32F10x_StdPeriph_Driver/src/stm32f10x_tim.c **** /**
 747:../lib/STM32F10x_StdPeriph_Driver/src/stm32f10x_tim.c ****   * @brief  Fills each TIM_OCInitStruct member with its default value.
 748:../lib/STM32F10x_StdPeriph_Driver/src/stm32f10x_tim.c ****   * @param  TIM_OCInitStruct : pointer to a TIM_OCInitTypeDef structure which will
 749:../lib/STM32F10x_StdPeriph_Driver/src/stm32f10x_tim.c ****   *         be initialized.
 750:../lib/STM32F10x_StdPeriph_Driver/src/stm32f10x_tim.c ****   * @retval None
 751:../lib/STM32F10x_StdPeriph_Driver/src/stm32f10x_tim.c ****   */
 752:../lib/STM32F10x_StdPeriph_Driver/src/stm32f10x_tim.c **** void TIM_OCStructInit(TIM_OCInitTypeDef* TIM_OCInitStruct)
 753:../lib/STM32F10x_StdPeriph_Driver/src/stm32f10x_tim.c **** {
 1543              		.loc 1 753 0
 1544              		.cfi_startproc
 1545              		@ args = 0, pretend = 0, frame = 8
 1546              		@ frame_needed = 1, uses_anonymous_args = 0
 1547              		@ link register save eliminated.
 1548 09bc 80B4     		push	{r7}
 1549              	.LCFI30:
 1550              		.cfi_def_cfa_offset 4
 1551              		.cfi_offset 7, -4
 1552 09be 83B0     		sub	sp, sp, #12
 1553              	.LCFI31:
 1554              		.cfi_def_cfa_offset 16
 1555 09c0 00AF     		add	r7, sp, #0
 1556              	.LCFI32:
 1557              		.cfi_def_cfa_register 7
 1558 09c2 7860     		str	r0, [r7, #4]
 754:../lib/STM32F10x_StdPeriph_Driver/src/stm32f10x_tim.c ****   /* Set the default configuration */
 755:../lib/STM32F10x_StdPeriph_Driver/src/stm32f10x_tim.c ****   TIM_OCInitStruct->TIM_OCMode = TIM_OCMode_Timing;
 1559              		.loc 1 755 0
 1560 09c4 7B68     		ldr	r3, [r7, #4]
 1561 09c6 4FF00002 		mov	r2, #0
 1562 09ca 1A80     		strh	r2, [r3, #0]	@ movhi
 756:../lib/STM32F10x_StdPeriph_Driver/src/stm32f10x_tim.c ****   TIM_OCInitStruct->TIM_OutputState = TIM_OutputState_Disable;
 1563              		.loc 1 756 0
 1564 09cc 7B68     		ldr	r3, [r7, #4]
 1565 09ce 4FF00002 		mov	r2, #0
 1566 09d2 5A80     		strh	r2, [r3, #2]	@ movhi
 757:../lib/STM32F10x_StdPeriph_Driver/src/stm32f10x_tim.c ****   TIM_OCInitStruct->TIM_OutputNState = TIM_OutputNState_Disable;
 1567              		.loc 1 757 0
 1568 09d4 7B68     		ldr	r3, [r7, #4]
 1569 09d6 4FF00002 		mov	r2, #0
 1570 09da 9A80     		strh	r2, [r3, #4]	@ movhi
 758:../lib/STM32F10x_StdPeriph_Driver/src/stm32f10x_tim.c ****   TIM_OCInitStruct->TIM_Pulse = 0x0000;
 1571              		.loc 1 758 0
 1572 09dc 7B68     		ldr	r3, [r7, #4]
 1573 09de 4FF00002 		mov	r2, #0
 1574 09e2 DA80     		strh	r2, [r3, #6]	@ movhi
 759:../lib/STM32F10x_StdPeriph_Driver/src/stm32f10x_tim.c ****   TIM_OCInitStruct->TIM_OCPolarity = TIM_OCPolarity_High;
 1575              		.loc 1 759 0
 1576 09e4 7B68     		ldr	r3, [r7, #4]
 1577 09e6 4FF00002 		mov	r2, #0
 1578 09ea 1A81     		strh	r2, [r3, #8]	@ movhi
 760:../lib/STM32F10x_StdPeriph_Driver/src/stm32f10x_tim.c ****   TIM_OCInitStruct->TIM_OCNPolarity = TIM_OCPolarity_High;
 1579              		.loc 1 760 0
 1580 09ec 7B68     		ldr	r3, [r7, #4]
 1581 09ee 4FF00002 		mov	r2, #0
 1582 09f2 5A81     		strh	r2, [r3, #10]	@ movhi
 761:../lib/STM32F10x_StdPeriph_Driver/src/stm32f10x_tim.c ****   TIM_OCInitStruct->TIM_OCIdleState = TIM_OCIdleState_Reset;
 1583              		.loc 1 761 0
 1584 09f4 7B68     		ldr	r3, [r7, #4]
 1585 09f6 4FF00002 		mov	r2, #0
 1586 09fa 9A81     		strh	r2, [r3, #12]	@ movhi
 762:../lib/STM32F10x_StdPeriph_Driver/src/stm32f10x_tim.c ****   TIM_OCInitStruct->TIM_OCNIdleState = TIM_OCNIdleState_Reset;
 1587              		.loc 1 762 0
 1588 09fc 7B68     		ldr	r3, [r7, #4]
 1589 09fe 4FF00002 		mov	r2, #0
 1590 0a02 DA81     		strh	r2, [r3, #14]	@ movhi
 763:../lib/STM32F10x_StdPeriph_Driver/src/stm32f10x_tim.c **** }
 1591              		.loc 1 763 0
 1592 0a04 07F10C07 		add	r7, r7, #12
 1593 0a08 BD46     		mov	sp, r7
 1594 0a0a 80BC     		pop	{r7}
 1595 0a0c 7047     		bx	lr
 1596              		.cfi_endproc
 1597              	.LFE39:
 1599 0a0e 00BF     		.align	2
 1600              		.global	TIM_ICStructInit
 1601              		.thumb
 1602              		.thumb_func
 1604              	TIM_ICStructInit:
 1605              	.LFB40:
 764:../lib/STM32F10x_StdPeriph_Driver/src/stm32f10x_tim.c **** 
 765:../lib/STM32F10x_StdPeriph_Driver/src/stm32f10x_tim.c **** /**
 766:../lib/STM32F10x_StdPeriph_Driver/src/stm32f10x_tim.c ****   * @brief  Fills each TIM_ICInitStruct member with its default value.
 767:../lib/STM32F10x_StdPeriph_Driver/src/stm32f10x_tim.c ****   * @param  TIM_ICInitStruct: pointer to a TIM_ICInitTypeDef structure which will
 768:../lib/STM32F10x_StdPeriph_Driver/src/stm32f10x_tim.c ****   *         be initialized.
 769:../lib/STM32F10x_StdPeriph_Driver/src/stm32f10x_tim.c ****   * @retval None
 770:../lib/STM32F10x_StdPeriph_Driver/src/stm32f10x_tim.c ****   */
 771:../lib/STM32F10x_StdPeriph_Driver/src/stm32f10x_tim.c **** void TIM_ICStructInit(TIM_ICInitTypeDef* TIM_ICInitStruct)
 772:../lib/STM32F10x_StdPeriph_Driver/src/stm32f10x_tim.c **** {
 1606              		.loc 1 772 0
 1607              		.cfi_startproc
 1608              		@ args = 0, pretend = 0, frame = 8
 1609              		@ frame_needed = 1, uses_anonymous_args = 0
 1610              		@ link register save eliminated.
 1611 0a10 80B4     		push	{r7}
 1612              	.LCFI33:
 1613              		.cfi_def_cfa_offset 4
 1614              		.cfi_offset 7, -4
 1615 0a12 83B0     		sub	sp, sp, #12
 1616              	.LCFI34:
 1617              		.cfi_def_cfa_offset 16
 1618 0a14 00AF     		add	r7, sp, #0
 1619              	.LCFI35:
 1620              		.cfi_def_cfa_register 7
 1621 0a16 7860     		str	r0, [r7, #4]
 773:../lib/STM32F10x_StdPeriph_Driver/src/stm32f10x_tim.c ****   /* Set the default configuration */
 774:../lib/STM32F10x_StdPeriph_Driver/src/stm32f10x_tim.c ****   TIM_ICInitStruct->TIM_Channel = TIM_Channel_1;
 1622              		.loc 1 774 0
 1623 0a18 7B68     		ldr	r3, [r7, #4]
 1624 0a1a 4FF00002 		mov	r2, #0
 1625 0a1e 1A80     		strh	r2, [r3, #0]	@ movhi
 775:../lib/STM32F10x_StdPeriph_Driver/src/stm32f10x_tim.c ****   TIM_ICInitStruct->TIM_ICPolarity = TIM_ICPolarity_Rising;
 1626              		.loc 1 775 0
 1627 0a20 7B68     		ldr	r3, [r7, #4]
 1628 0a22 4FF00002 		mov	r2, #0
 1629 0a26 5A80     		strh	r2, [r3, #2]	@ movhi
 776:../lib/STM32F10x_StdPeriph_Driver/src/stm32f10x_tim.c ****   TIM_ICInitStruct->TIM_ICSelection = TIM_ICSelection_DirectTI;
 1630              		.loc 1 776 0
 1631 0a28 7B68     		ldr	r3, [r7, #4]
 1632 0a2a 4FF00102 		mov	r2, #1
 1633 0a2e 9A80     		strh	r2, [r3, #4]	@ movhi
 777:../lib/STM32F10x_StdPeriph_Driver/src/stm32f10x_tim.c ****   TIM_ICInitStruct->TIM_ICPrescaler = TIM_ICPSC_DIV1;
 1634              		.loc 1 777 0
 1635 0a30 7B68     		ldr	r3, [r7, #4]
 1636 0a32 4FF00002 		mov	r2, #0
 1637 0a36 DA80     		strh	r2, [r3, #6]	@ movhi
 778:../lib/STM32F10x_StdPeriph_Driver/src/stm32f10x_tim.c ****   TIM_ICInitStruct->TIM_ICFilter = 0x00;
 1638              		.loc 1 778 0
 1639 0a38 7B68     		ldr	r3, [r7, #4]
 1640 0a3a 4FF00002 		mov	r2, #0
 1641 0a3e 1A81     		strh	r2, [r3, #8]	@ movhi
 779:../lib/STM32F10x_StdPeriph_Driver/src/stm32f10x_tim.c **** }
 1642              		.loc 1 779 0
 1643 0a40 07F10C07 		add	r7, r7, #12
 1644 0a44 BD46     		mov	sp, r7
 1645 0a46 80BC     		pop	{r7}
 1646 0a48 7047     		bx	lr
 1647              		.cfi_endproc
 1648              	.LFE40:
 1650 0a4a 00BF     		.align	2
 1651              		.global	TIM_BDTRStructInit
 1652              		.thumb
 1653              		.thumb_func
 1655              	TIM_BDTRStructInit:
 1656              	.LFB41:
 780:../lib/STM32F10x_StdPeriph_Driver/src/stm32f10x_tim.c **** 
 781:../lib/STM32F10x_StdPeriph_Driver/src/stm32f10x_tim.c **** /**
 782:../lib/STM32F10x_StdPeriph_Driver/src/stm32f10x_tim.c ****   * @brief  Fills each TIM_BDTRInitStruct member with its default value.
 783:../lib/STM32F10x_StdPeriph_Driver/src/stm32f10x_tim.c ****   * @param  TIM_BDTRInitStruct: pointer to a TIM_BDTRInitTypeDef structure which
 784:../lib/STM32F10x_StdPeriph_Driver/src/stm32f10x_tim.c ****   *         will be initialized.
 785:../lib/STM32F10x_StdPeriph_Driver/src/stm32f10x_tim.c ****   * @retval None
 786:../lib/STM32F10x_StdPeriph_Driver/src/stm32f10x_tim.c ****   */
 787:../lib/STM32F10x_StdPeriph_Driver/src/stm32f10x_tim.c **** void TIM_BDTRStructInit(TIM_BDTRInitTypeDef* TIM_BDTRInitStruct)
 788:../lib/STM32F10x_StdPeriph_Driver/src/stm32f10x_tim.c **** {
 1657              		.loc 1 788 0
 1658              		.cfi_startproc
 1659              		@ args = 0, pretend = 0, frame = 8
 1660              		@ frame_needed = 1, uses_anonymous_args = 0
 1661              		@ link register save eliminated.
 1662 0a4c 80B4     		push	{r7}
 1663              	.LCFI36:
 1664              		.cfi_def_cfa_offset 4
 1665              		.cfi_offset 7, -4
 1666 0a4e 83B0     		sub	sp, sp, #12
 1667              	.LCFI37:
 1668              		.cfi_def_cfa_offset 16
 1669 0a50 00AF     		add	r7, sp, #0
 1670              	.LCFI38:
 1671              		.cfi_def_cfa_register 7
 1672 0a52 7860     		str	r0, [r7, #4]
 789:../lib/STM32F10x_StdPeriph_Driver/src/stm32f10x_tim.c ****   /* Set the default configuration */
 790:../lib/STM32F10x_StdPeriph_Driver/src/stm32f10x_tim.c ****   TIM_BDTRInitStruct->TIM_OSSRState = TIM_OSSRState_Disable;
 1673              		.loc 1 790 0
 1674 0a54 7B68     		ldr	r3, [r7, #4]
 1675 0a56 4FF00002 		mov	r2, #0
 1676 0a5a 1A80     		strh	r2, [r3, #0]	@ movhi
 791:../lib/STM32F10x_StdPeriph_Driver/src/stm32f10x_tim.c ****   TIM_BDTRInitStruct->TIM_OSSIState = TIM_OSSIState_Disable;
 1677              		.loc 1 791 0
 1678 0a5c 7B68     		ldr	r3, [r7, #4]
 1679 0a5e 4FF00002 		mov	r2, #0
 1680 0a62 5A80     		strh	r2, [r3, #2]	@ movhi
 792:../lib/STM32F10x_StdPeriph_Driver/src/stm32f10x_tim.c ****   TIM_BDTRInitStruct->TIM_LOCKLevel = TIM_LOCKLevel_OFF;
 1681              		.loc 1 792 0
 1682 0a64 7B68     		ldr	r3, [r7, #4]
 1683 0a66 4FF00002 		mov	r2, #0
 1684 0a6a 9A80     		strh	r2, [r3, #4]	@ movhi
 793:../lib/STM32F10x_StdPeriph_Driver/src/stm32f10x_tim.c ****   TIM_BDTRInitStruct->TIM_DeadTime = 0x00;
 1685              		.loc 1 793 0
 1686 0a6c 7B68     		ldr	r3, [r7, #4]
 1687 0a6e 4FF00002 		mov	r2, #0
 1688 0a72 DA80     		strh	r2, [r3, #6]	@ movhi
 794:../lib/STM32F10x_StdPeriph_Driver/src/stm32f10x_tim.c ****   TIM_BDTRInitStruct->TIM_Break = TIM_Break_Disable;
 1689              		.loc 1 794 0
 1690 0a74 7B68     		ldr	r3, [r7, #4]
 1691 0a76 4FF00002 		mov	r2, #0
 1692 0a7a 1A81     		strh	r2, [r3, #8]	@ movhi
 795:../lib/STM32F10x_StdPeriph_Driver/src/stm32f10x_tim.c ****   TIM_BDTRInitStruct->TIM_BreakPolarity = TIM_BreakPolarity_Low;
 1693              		.loc 1 795 0
 1694 0a7c 7B68     		ldr	r3, [r7, #4]
 1695 0a7e 4FF00002 		mov	r2, #0
 1696 0a82 5A81     		strh	r2, [r3, #10]	@ movhi
 796:../lib/STM32F10x_StdPeriph_Driver/src/stm32f10x_tim.c ****   TIM_BDTRInitStruct->TIM_AutomaticOutput = TIM_AutomaticOutput_Disable;
 1697              		.loc 1 796 0
 1698 0a84 7B68     		ldr	r3, [r7, #4]
 1699 0a86 4FF00002 		mov	r2, #0
 1700 0a8a 9A81     		strh	r2, [r3, #12]	@ movhi
 797:../lib/STM32F10x_StdPeriph_Driver/src/stm32f10x_tim.c **** }
 1701              		.loc 1 797 0
 1702 0a8c 07F10C07 		add	r7, r7, #12
 1703 0a90 BD46     		mov	sp, r7
 1704 0a92 80BC     		pop	{r7}
 1705 0a94 7047     		bx	lr
 1706              		.cfi_endproc
 1707              	.LFE41:
 1709 0a96 00BF     		.align	2
 1710              		.global	TIM_Cmd
 1711              		.thumb
 1712              		.thumb_func
 1714              	TIM_Cmd:
 1715              	.LFB42:
 798:../lib/STM32F10x_StdPeriph_Driver/src/stm32f10x_tim.c **** 
 799:../lib/STM32F10x_StdPeriph_Driver/src/stm32f10x_tim.c **** /**
 800:../lib/STM32F10x_StdPeriph_Driver/src/stm32f10x_tim.c ****   * @brief  Enables or disables the specified TIM peripheral.
 801:../lib/STM32F10x_StdPeriph_Driver/src/stm32f10x_tim.c ****   * @param  TIMx: where x can be 1 to 17 to select the TIMx peripheral.
 802:../lib/STM32F10x_StdPeriph_Driver/src/stm32f10x_tim.c ****   * @param  NewState: new state of the TIMx peripheral.
 803:../lib/STM32F10x_StdPeriph_Driver/src/stm32f10x_tim.c ****   *   This parameter can be: ENABLE or DISABLE.
 804:../lib/STM32F10x_StdPeriph_Driver/src/stm32f10x_tim.c ****   * @retval None
 805:../lib/STM32F10x_StdPeriph_Driver/src/stm32f10x_tim.c ****   */
 806:../lib/STM32F10x_StdPeriph_Driver/src/stm32f10x_tim.c **** void TIM_Cmd(TIM_TypeDef* TIMx, FunctionalState NewState)
 807:../lib/STM32F10x_StdPeriph_Driver/src/stm32f10x_tim.c **** {
 1716              		.loc 1 807 0
 1717              		.cfi_startproc
 1718              		@ args = 0, pretend = 0, frame = 8
 1719              		@ frame_needed = 1, uses_anonymous_args = 0
 1720              		@ link register save eliminated.
 1721 0a98 80B4     		push	{r7}
 1722              	.LCFI39:
 1723              		.cfi_def_cfa_offset 4
 1724              		.cfi_offset 7, -4
 1725 0a9a 83B0     		sub	sp, sp, #12
 1726              	.LCFI40:
 1727              		.cfi_def_cfa_offset 16
 1728 0a9c 00AF     		add	r7, sp, #0
 1729              	.LCFI41:
 1730              		.cfi_def_cfa_register 7
 1731 0a9e 7860     		str	r0, [r7, #4]
 1732 0aa0 0B46     		mov	r3, r1
 1733 0aa2 FB70     		strb	r3, [r7, #3]
 808:../lib/STM32F10x_StdPeriph_Driver/src/stm32f10x_tim.c ****   /* Check the parameters */
 809:../lib/STM32F10x_StdPeriph_Driver/src/stm32f10x_tim.c ****   assert_param(IS_TIM_ALL_PERIPH(TIMx));
 810:../lib/STM32F10x_StdPeriph_Driver/src/stm32f10x_tim.c ****   assert_param(IS_FUNCTIONAL_STATE(NewState));
 811:../lib/STM32F10x_StdPeriph_Driver/src/stm32f10x_tim.c ****   
 812:../lib/STM32F10x_StdPeriph_Driver/src/stm32f10x_tim.c ****   if (NewState != DISABLE)
 1734              		.loc 1 812 0
 1735 0aa4 FB78     		ldrb	r3, [r7, #3]	@ zero_extendqisi2
 1736 0aa6 002B     		cmp	r3, #0
 1737 0aa8 08D0     		beq	.L67
 813:../lib/STM32F10x_StdPeriph_Driver/src/stm32f10x_tim.c ****   {
 814:../lib/STM32F10x_StdPeriph_Driver/src/stm32f10x_tim.c ****     /* Enable the TIM Counter */
 815:../lib/STM32F10x_StdPeriph_Driver/src/stm32f10x_tim.c ****     TIMx->CR1 |= TIM_CR1_CEN;
 1738              		.loc 1 815 0
 1739 0aaa 7B68     		ldr	r3, [r7, #4]
 1740 0aac 1B88     		ldrh	r3, [r3, #0]	@ movhi
 1741 0aae 9BB2     		uxth	r3, r3
 1742 0ab0 43F00103 		orr	r3, r3, #1
 1743 0ab4 9AB2     		uxth	r2, r3
 1744 0ab6 7B68     		ldr	r3, [r7, #4]
 1745 0ab8 1A80     		strh	r2, [r3, #0]	@ movhi
 1746 0aba 07E0     		b	.L66
 1747              	.L67:
 816:../lib/STM32F10x_StdPeriph_Driver/src/stm32f10x_tim.c ****   }
 817:../lib/STM32F10x_StdPeriph_Driver/src/stm32f10x_tim.c ****   else
 818:../lib/STM32F10x_StdPeriph_Driver/src/stm32f10x_tim.c ****   {
 819:../lib/STM32F10x_StdPeriph_Driver/src/stm32f10x_tim.c ****     /* Disable the TIM Counter */
 820:../lib/STM32F10x_StdPeriph_Driver/src/stm32f10x_tim.c ****     TIMx->CR1 &= (uint16_t)(~((uint16_t)TIM_CR1_CEN));
 1748              		.loc 1 820 0
 1749 0abc 7B68     		ldr	r3, [r7, #4]
 1750 0abe 1B88     		ldrh	r3, [r3, #0]	@ movhi
 1751 0ac0 9BB2     		uxth	r3, r3
 1752 0ac2 23F00103 		bic	r3, r3, #1
 1753 0ac6 9AB2     		uxth	r2, r3
 1754 0ac8 7B68     		ldr	r3, [r7, #4]
 1755 0aca 1A80     		strh	r2, [r3, #0]	@ movhi
 1756              	.L66:
 821:../lib/STM32F10x_StdPeriph_Driver/src/stm32f10x_tim.c ****   }
 822:../lib/STM32F10x_StdPeriph_Driver/src/stm32f10x_tim.c **** }
 1757              		.loc 1 822 0
 1758 0acc 07F10C07 		add	r7, r7, #12
 1759 0ad0 BD46     		mov	sp, r7
 1760 0ad2 80BC     		pop	{r7}
 1761 0ad4 7047     		bx	lr
 1762              		.cfi_endproc
 1763              	.LFE42:
 1765 0ad6 00BF     		.align	2
 1766              		.global	TIM_CtrlPWMOutputs
 1767              		.thumb
 1768              		.thumb_func
 1770              	TIM_CtrlPWMOutputs:
 1771              	.LFB43:
 823:../lib/STM32F10x_StdPeriph_Driver/src/stm32f10x_tim.c **** 
 824:../lib/STM32F10x_StdPeriph_Driver/src/stm32f10x_tim.c **** /**
 825:../lib/STM32F10x_StdPeriph_Driver/src/stm32f10x_tim.c ****   * @brief  Enables or disables the TIM peripheral Main Outputs.
 826:../lib/STM32F10x_StdPeriph_Driver/src/stm32f10x_tim.c ****   * @param  TIMx: where x can be 1, 8, 15, 16 or 17 to select the TIMx peripheral.
 827:../lib/STM32F10x_StdPeriph_Driver/src/stm32f10x_tim.c ****   * @param  NewState: new state of the TIM peripheral Main Outputs.
 828:../lib/STM32F10x_StdPeriph_Driver/src/stm32f10x_tim.c ****   *   This parameter can be: ENABLE or DISABLE.
 829:../lib/STM32F10x_StdPeriph_Driver/src/stm32f10x_tim.c ****   * @retval None
 830:../lib/STM32F10x_StdPeriph_Driver/src/stm32f10x_tim.c ****   */
 831:../lib/STM32F10x_StdPeriph_Driver/src/stm32f10x_tim.c **** void TIM_CtrlPWMOutputs(TIM_TypeDef* TIMx, FunctionalState NewState)
 832:../lib/STM32F10x_StdPeriph_Driver/src/stm32f10x_tim.c **** {
 1772              		.loc 1 832 0
 1773              		.cfi_startproc
 1774              		@ args = 0, pretend = 0, frame = 8
 1775              		@ frame_needed = 1, uses_anonymous_args = 0
 1776              		@ link register save eliminated.
 1777 0ad8 80B4     		push	{r7}
 1778              	.LCFI42:
 1779              		.cfi_def_cfa_offset 4
 1780              		.cfi_offset 7, -4
 1781 0ada 83B0     		sub	sp, sp, #12
 1782              	.LCFI43:
 1783              		.cfi_def_cfa_offset 16
 1784 0adc 00AF     		add	r7, sp, #0
 1785              	.LCFI44:
 1786              		.cfi_def_cfa_register 7
 1787 0ade 7860     		str	r0, [r7, #4]
 1788 0ae0 0B46     		mov	r3, r1
 1789 0ae2 FB70     		strb	r3, [r7, #3]
 833:../lib/STM32F10x_StdPeriph_Driver/src/stm32f10x_tim.c ****   /* Check the parameters */
 834:../lib/STM32F10x_StdPeriph_Driver/src/stm32f10x_tim.c ****   assert_param(IS_TIM_LIST2_PERIPH(TIMx));
 835:../lib/STM32F10x_StdPeriph_Driver/src/stm32f10x_tim.c ****   assert_param(IS_FUNCTIONAL_STATE(NewState));
 836:../lib/STM32F10x_StdPeriph_Driver/src/stm32f10x_tim.c ****   if (NewState != DISABLE)
 1790              		.loc 1 836 0
 1791 0ae4 FB78     		ldrb	r3, [r7, #3]	@ zero_extendqisi2
 1792 0ae6 002B     		cmp	r3, #0
 1793 0ae8 0CD0     		beq	.L70
 837:../lib/STM32F10x_StdPeriph_Driver/src/stm32f10x_tim.c ****   {
 838:../lib/STM32F10x_StdPeriph_Driver/src/stm32f10x_tim.c ****     /* Enable the TIM Main Output */
 839:../lib/STM32F10x_StdPeriph_Driver/src/stm32f10x_tim.c ****     TIMx->BDTR |= TIM_BDTR_MOE;
 1794              		.loc 1 839 0
 1795 0aea 7B68     		ldr	r3, [r7, #4]
 1796 0aec B3F84430 		ldrh	r3, [r3, #68]	@ movhi
 1797 0af0 9BB2     		uxth	r3, r3
 1798 0af2 6FEA4343 		mvn	r3, r3, lsl #17
 1799 0af6 6FEA5343 		mvn	r3, r3, lsr #17
 1800 0afa 9AB2     		uxth	r2, r3
 1801 0afc 7B68     		ldr	r3, [r7, #4]
 1802 0afe A3F84420 		strh	r2, [r3, #68]	@ movhi
 1803 0b02 0BE0     		b	.L69
 1804              	.L70:
 840:../lib/STM32F10x_StdPeriph_Driver/src/stm32f10x_tim.c ****   }
 841:../lib/STM32F10x_StdPeriph_Driver/src/stm32f10x_tim.c ****   else
 842:../lib/STM32F10x_StdPeriph_Driver/src/stm32f10x_tim.c ****   {
 843:../lib/STM32F10x_StdPeriph_Driver/src/stm32f10x_tim.c ****     /* Disable the TIM Main Output */
 844:../lib/STM32F10x_StdPeriph_Driver/src/stm32f10x_tim.c ****     TIMx->BDTR &= (uint16_t)(~((uint16_t)TIM_BDTR_MOE));
 1805              		.loc 1 844 0
 1806 0b04 7B68     		ldr	r3, [r7, #4]
 1807 0b06 B3F84430 		ldrh	r3, [r3, #68]	@ movhi
 1808 0b0a 9BB2     		uxth	r3, r3
 1809 0b0c 4FEA4343 		lsl	r3, r3, #17
 1810 0b10 4FEA5343 		lsr	r3, r3, #17
 1811 0b14 9AB2     		uxth	r2, r3
 1812 0b16 7B68     		ldr	r3, [r7, #4]
 1813 0b18 A3F84420 		strh	r2, [r3, #68]	@ movhi
 1814              	.L69:
 845:../lib/STM32F10x_StdPeriph_Driver/src/stm32f10x_tim.c ****   }  
 846:../lib/STM32F10x_StdPeriph_Driver/src/stm32f10x_tim.c **** }
 1815              		.loc 1 846 0
 1816 0b1c 07F10C07 		add	r7, r7, #12
 1817 0b20 BD46     		mov	sp, r7
 1818 0b22 80BC     		pop	{r7}
 1819 0b24 7047     		bx	lr
 1820              		.cfi_endproc
 1821              	.LFE43:
 1823 0b26 00BF     		.align	2
 1824              		.global	TIM_ITConfig
 1825              		.thumb
 1826              		.thumb_func
 1828              	TIM_ITConfig:
 1829              	.LFB44:
 847:../lib/STM32F10x_StdPeriph_Driver/src/stm32f10x_tim.c **** 
 848:../lib/STM32F10x_StdPeriph_Driver/src/stm32f10x_tim.c **** /**
 849:../lib/STM32F10x_StdPeriph_Driver/src/stm32f10x_tim.c ****   * @brief  Enables or disables the specified TIM interrupts.
 850:../lib/STM32F10x_StdPeriph_Driver/src/stm32f10x_tim.c ****   * @param  TIMx: where x can be 1 to 17 to select the TIMx peripheral.
 851:../lib/STM32F10x_StdPeriph_Driver/src/stm32f10x_tim.c ****   * @param  TIM_IT: specifies the TIM interrupts sources to be enabled or disabled.
 852:../lib/STM32F10x_StdPeriph_Driver/src/stm32f10x_tim.c ****   *   This parameter can be any combination of the following values:
 853:../lib/STM32F10x_StdPeriph_Driver/src/stm32f10x_tim.c ****   *     @arg TIM_IT_Update: TIM update Interrupt source
 854:../lib/STM32F10x_StdPeriph_Driver/src/stm32f10x_tim.c ****   *     @arg TIM_IT_CC1: TIM Capture Compare 1 Interrupt source
 855:../lib/STM32F10x_StdPeriph_Driver/src/stm32f10x_tim.c ****   *     @arg TIM_IT_CC2: TIM Capture Compare 2 Interrupt source
 856:../lib/STM32F10x_StdPeriph_Driver/src/stm32f10x_tim.c ****   *     @arg TIM_IT_CC3: TIM Capture Compare 3 Interrupt source
 857:../lib/STM32F10x_StdPeriph_Driver/src/stm32f10x_tim.c ****   *     @arg TIM_IT_CC4: TIM Capture Compare 4 Interrupt source
 858:../lib/STM32F10x_StdPeriph_Driver/src/stm32f10x_tim.c ****   *     @arg TIM_IT_COM: TIM Commutation Interrupt source
 859:../lib/STM32F10x_StdPeriph_Driver/src/stm32f10x_tim.c ****   *     @arg TIM_IT_Trigger: TIM Trigger Interrupt source
 860:../lib/STM32F10x_StdPeriph_Driver/src/stm32f10x_tim.c ****   *     @arg TIM_IT_Break: TIM Break Interrupt source
 861:../lib/STM32F10x_StdPeriph_Driver/src/stm32f10x_tim.c ****   * @note 
 862:../lib/STM32F10x_StdPeriph_Driver/src/stm32f10x_tim.c ****   *   - TIM6 and TIM7 can only generate an update interrupt.
 863:../lib/STM32F10x_StdPeriph_Driver/src/stm32f10x_tim.c ****   *   - TIM9, TIM12 and TIM15 can have only TIM_IT_Update, TIM_IT_CC1,
 864:../lib/STM32F10x_StdPeriph_Driver/src/stm32f10x_tim.c ****   *      TIM_IT_CC2 or TIM_IT_Trigger. 
 865:../lib/STM32F10x_StdPeriph_Driver/src/stm32f10x_tim.c ****   *   - TIM10, TIM11, TIM13, TIM14, TIM16 and TIM17 can have TIM_IT_Update or TIM_IT_CC1.   
 866:../lib/STM32F10x_StdPeriph_Driver/src/stm32f10x_tim.c ****   *   - TIM_IT_Break is used only with TIM1, TIM8 and TIM15. 
 867:../lib/STM32F10x_StdPeriph_Driver/src/stm32f10x_tim.c ****   *   - TIM_IT_COM is used only with TIM1, TIM8, TIM15, TIM16 and TIM17.    
 868:../lib/STM32F10x_StdPeriph_Driver/src/stm32f10x_tim.c ****   * @param  NewState: new state of the TIM interrupts.
 869:../lib/STM32F10x_StdPeriph_Driver/src/stm32f10x_tim.c ****   *   This parameter can be: ENABLE or DISABLE.
 870:../lib/STM32F10x_StdPeriph_Driver/src/stm32f10x_tim.c ****   * @retval None
 871:../lib/STM32F10x_StdPeriph_Driver/src/stm32f10x_tim.c ****   */
 872:../lib/STM32F10x_StdPeriph_Driver/src/stm32f10x_tim.c **** void TIM_ITConfig(TIM_TypeDef* TIMx, uint16_t TIM_IT, FunctionalState NewState)
 873:../lib/STM32F10x_StdPeriph_Driver/src/stm32f10x_tim.c **** {  
 1830              		.loc 1 873 0
 1831              		.cfi_startproc
 1832              		@ args = 0, pretend = 0, frame = 8
 1833              		@ frame_needed = 1, uses_anonymous_args = 0
 1834              		@ link register save eliminated.
 1835 0b28 80B4     		push	{r7}
 1836              	.LCFI45:
 1837              		.cfi_def_cfa_offset 4
 1838              		.cfi_offset 7, -4
 1839 0b2a 83B0     		sub	sp, sp, #12
 1840              	.LCFI46:
 1841              		.cfi_def_cfa_offset 16
 1842 0b2c 00AF     		add	r7, sp, #0
 1843              	.LCFI47:
 1844              		.cfi_def_cfa_register 7
 1845 0b2e 7860     		str	r0, [r7, #4]
 1846 0b30 1346     		mov	r3, r2
 1847 0b32 0A46     		mov	r2, r1	@ movhi
 1848 0b34 7A80     		strh	r2, [r7, #2]	@ movhi
 1849 0b36 7B70     		strb	r3, [r7, #1]
 874:../lib/STM32F10x_StdPeriph_Driver/src/stm32f10x_tim.c ****   /* Check the parameters */
 875:../lib/STM32F10x_StdPeriph_Driver/src/stm32f10x_tim.c ****   assert_param(IS_TIM_ALL_PERIPH(TIMx));
 876:../lib/STM32F10x_StdPeriph_Driver/src/stm32f10x_tim.c ****   assert_param(IS_TIM_IT(TIM_IT));
 877:../lib/STM32F10x_StdPeriph_Driver/src/stm32f10x_tim.c ****   assert_param(IS_FUNCTIONAL_STATE(NewState));
 878:../lib/STM32F10x_StdPeriph_Driver/src/stm32f10x_tim.c ****   
 879:../lib/STM32F10x_StdPeriph_Driver/src/stm32f10x_tim.c ****   if (NewState != DISABLE)
 1850              		.loc 1 879 0
 1851 0b38 7B78     		ldrb	r3, [r7, #1]	@ zero_extendqisi2
 1852 0b3a 002B     		cmp	r3, #0
 1853 0b3c 08D0     		beq	.L73
 880:../lib/STM32F10x_StdPeriph_Driver/src/stm32f10x_tim.c ****   {
 881:../lib/STM32F10x_StdPeriph_Driver/src/stm32f10x_tim.c ****     /* Enable the Interrupt sources */
 882:../lib/STM32F10x_StdPeriph_Driver/src/stm32f10x_tim.c ****     TIMx->DIER |= TIM_IT;
 1854              		.loc 1 882 0
 1855 0b3e 7B68     		ldr	r3, [r7, #4]
 1856 0b40 9B89     		ldrh	r3, [r3, #12]	@ movhi
 1857 0b42 9AB2     		uxth	r2, r3
 1858 0b44 7B88     		ldrh	r3, [r7, #2]	@ movhi
 1859 0b46 1343     		orrs	r3, r3, r2
 1860 0b48 9AB2     		uxth	r2, r3
 1861 0b4a 7B68     		ldr	r3, [r7, #4]
 1862 0b4c 9A81     		strh	r2, [r3, #12]	@ movhi
 1863 0b4e 0AE0     		b	.L72
 1864              	.L73:
 883:../lib/STM32F10x_StdPeriph_Driver/src/stm32f10x_tim.c ****   }
 884:../lib/STM32F10x_StdPeriph_Driver/src/stm32f10x_tim.c ****   else
 885:../lib/STM32F10x_StdPeriph_Driver/src/stm32f10x_tim.c ****   {
 886:../lib/STM32F10x_StdPeriph_Driver/src/stm32f10x_tim.c ****     /* Disable the Interrupt sources */
 887:../lib/STM32F10x_StdPeriph_Driver/src/stm32f10x_tim.c ****     TIMx->DIER &= (uint16_t)~TIM_IT;
 1865              		.loc 1 887 0
 1866 0b50 7B68     		ldr	r3, [r7, #4]
 1867 0b52 9B89     		ldrh	r3, [r3, #12]	@ movhi
 1868 0b54 9AB2     		uxth	r2, r3
 1869 0b56 7B88     		ldrh	r3, [r7, #2]	@ movhi
 1870 0b58 6FEA0303 		mvn	r3, r3
 1871 0b5c 9BB2     		uxth	r3, r3
 1872 0b5e 1340     		ands	r3, r3, r2
 1873 0b60 9AB2     		uxth	r2, r3
 1874 0b62 7B68     		ldr	r3, [r7, #4]
 1875 0b64 9A81     		strh	r2, [r3, #12]	@ movhi
 1876              	.L72:
 888:../lib/STM32F10x_StdPeriph_Driver/src/stm32f10x_tim.c ****   }
 889:../lib/STM32F10x_StdPeriph_Driver/src/stm32f10x_tim.c **** }
 1877              		.loc 1 889 0
 1878 0b66 07F10C07 		add	r7, r7, #12
 1879 0b6a BD46     		mov	sp, r7
 1880 0b6c 80BC     		pop	{r7}
 1881 0b6e 7047     		bx	lr
 1882              		.cfi_endproc
 1883              	.LFE44:
 1885              		.align	2
 1886              		.global	TIM_GenerateEvent
 1887              		.thumb
 1888              		.thumb_func
 1890              	TIM_GenerateEvent:
 1891              	.LFB45:
 890:../lib/STM32F10x_StdPeriph_Driver/src/stm32f10x_tim.c **** 
 891:../lib/STM32F10x_StdPeriph_Driver/src/stm32f10x_tim.c **** /**
 892:../lib/STM32F10x_StdPeriph_Driver/src/stm32f10x_tim.c ****   * @brief  Configures the TIMx event to be generate by software.
 893:../lib/STM32F10x_StdPeriph_Driver/src/stm32f10x_tim.c ****   * @param  TIMx: where x can be 1 to 17 to select the TIM peripheral.
 894:../lib/STM32F10x_StdPeriph_Driver/src/stm32f10x_tim.c ****   * @param  TIM_EventSource: specifies the event source.
 895:../lib/STM32F10x_StdPeriph_Driver/src/stm32f10x_tim.c ****   *   This parameter can be one or more of the following values:	   
 896:../lib/STM32F10x_StdPeriph_Driver/src/stm32f10x_tim.c ****   *     @arg TIM_EventSource_Update: Timer update Event source
 897:../lib/STM32F10x_StdPeriph_Driver/src/stm32f10x_tim.c ****   *     @arg TIM_EventSource_CC1: Timer Capture Compare 1 Event source
 898:../lib/STM32F10x_StdPeriph_Driver/src/stm32f10x_tim.c ****   *     @arg TIM_EventSource_CC2: Timer Capture Compare 2 Event source
 899:../lib/STM32F10x_StdPeriph_Driver/src/stm32f10x_tim.c ****   *     @arg TIM_EventSource_CC3: Timer Capture Compare 3 Event source
 900:../lib/STM32F10x_StdPeriph_Driver/src/stm32f10x_tim.c ****   *     @arg TIM_EventSource_CC4: Timer Capture Compare 4 Event source
 901:../lib/STM32F10x_StdPeriph_Driver/src/stm32f10x_tim.c ****   *     @arg TIM_EventSource_COM: Timer COM event source  
 902:../lib/STM32F10x_StdPeriph_Driver/src/stm32f10x_tim.c ****   *     @arg TIM_EventSource_Trigger: Timer Trigger Event source
 903:../lib/STM32F10x_StdPeriph_Driver/src/stm32f10x_tim.c ****   *     @arg TIM_EventSource_Break: Timer Break event source
 904:../lib/STM32F10x_StdPeriph_Driver/src/stm32f10x_tim.c ****   * @note 
 905:../lib/STM32F10x_StdPeriph_Driver/src/stm32f10x_tim.c ****   *   - TIM6 and TIM7 can only generate an update event. 
 906:../lib/STM32F10x_StdPeriph_Driver/src/stm32f10x_tim.c ****   *   - TIM_EventSource_COM and TIM_EventSource_Break are used only with TIM1 and TIM8.      
 907:../lib/STM32F10x_StdPeriph_Driver/src/stm32f10x_tim.c ****   * @retval None
 908:../lib/STM32F10x_StdPeriph_Driver/src/stm32f10x_tim.c ****   */
 909:../lib/STM32F10x_StdPeriph_Driver/src/stm32f10x_tim.c **** void TIM_GenerateEvent(TIM_TypeDef* TIMx, uint16_t TIM_EventSource)
 910:../lib/STM32F10x_StdPeriph_Driver/src/stm32f10x_tim.c **** { 
 1892              		.loc 1 910 0
 1893              		.cfi_startproc
 1894              		@ args = 0, pretend = 0, frame = 8
 1895              		@ frame_needed = 1, uses_anonymous_args = 0
 1896              		@ link register save eliminated.
 1897 0b70 80B4     		push	{r7}
 1898              	.LCFI48:
 1899              		.cfi_def_cfa_offset 4
 1900              		.cfi_offset 7, -4
 1901 0b72 83B0     		sub	sp, sp, #12
 1902              	.LCFI49:
 1903              		.cfi_def_cfa_offset 16
 1904 0b74 00AF     		add	r7, sp, #0
 1905              	.LCFI50:
 1906              		.cfi_def_cfa_register 7
 1907 0b76 7860     		str	r0, [r7, #4]
 1908 0b78 0B46     		mov	r3, r1
 1909 0b7a 7B80     		strh	r3, [r7, #2]	@ movhi
 911:../lib/STM32F10x_StdPeriph_Driver/src/stm32f10x_tim.c ****   /* Check the parameters */
 912:../lib/STM32F10x_StdPeriph_Driver/src/stm32f10x_tim.c ****   assert_param(IS_TIM_ALL_PERIPH(TIMx));
 913:../lib/STM32F10x_StdPeriph_Driver/src/stm32f10x_tim.c ****   assert_param(IS_TIM_EVENT_SOURCE(TIM_EventSource));
 914:../lib/STM32F10x_StdPeriph_Driver/src/stm32f10x_tim.c ****   
 915:../lib/STM32F10x_StdPeriph_Driver/src/stm32f10x_tim.c ****   /* Set the event sources */
 916:../lib/STM32F10x_StdPeriph_Driver/src/stm32f10x_tim.c ****   TIMx->EGR = TIM_EventSource;
 1910              		.loc 1 916 0
 1911 0b7c 7B68     		ldr	r3, [r7, #4]
 1912 0b7e 7A88     		ldrh	r2, [r7, #2]	@ movhi
 1913 0b80 9A82     		strh	r2, [r3, #20]	@ movhi
 917:../lib/STM32F10x_StdPeriph_Driver/src/stm32f10x_tim.c **** }
 1914              		.loc 1 917 0
 1915 0b82 07F10C07 		add	r7, r7, #12
 1916 0b86 BD46     		mov	sp, r7
 1917 0b88 80BC     		pop	{r7}
 1918 0b8a 7047     		bx	lr
 1919              		.cfi_endproc
 1920              	.LFE45:
 1922              		.align	2
 1923              		.global	TIM_DMAConfig
 1924              		.thumb
 1925              		.thumb_func
 1927              	TIM_DMAConfig:
 1928              	.LFB46:
 918:../lib/STM32F10x_StdPeriph_Driver/src/stm32f10x_tim.c **** 
 919:../lib/STM32F10x_StdPeriph_Driver/src/stm32f10x_tim.c **** /**
 920:../lib/STM32F10x_StdPeriph_Driver/src/stm32f10x_tim.c ****   * @brief  Configures the TIMx's DMA interface.
 921:../lib/STM32F10x_StdPeriph_Driver/src/stm32f10x_tim.c ****   * @param  TIMx: where x can be  1, 2, 3, 4, 5, 8, 15, 16 or 17 to select 
 922:../lib/STM32F10x_StdPeriph_Driver/src/stm32f10x_tim.c ****   *   the TIM peripheral.
 923:../lib/STM32F10x_StdPeriph_Driver/src/stm32f10x_tim.c ****   * @param  TIM_DMABase: DMA Base address.
 924:../lib/STM32F10x_StdPeriph_Driver/src/stm32f10x_tim.c ****   *   This parameter can be one of the following values:
 925:../lib/STM32F10x_StdPeriph_Driver/src/stm32f10x_tim.c ****   *     @arg TIM_DMABase_CR, TIM_DMABase_CR2, TIM_DMABase_SMCR,
 926:../lib/STM32F10x_StdPeriph_Driver/src/stm32f10x_tim.c ****   *          TIM_DMABase_DIER, TIM1_DMABase_SR, TIM_DMABase_EGR,
 927:../lib/STM32F10x_StdPeriph_Driver/src/stm32f10x_tim.c ****   *          TIM_DMABase_CCMR1, TIM_DMABase_CCMR2, TIM_DMABase_CCER,
 928:../lib/STM32F10x_StdPeriph_Driver/src/stm32f10x_tim.c ****   *          TIM_DMABase_CNT, TIM_DMABase_PSC, TIM_DMABase_ARR,
 929:../lib/STM32F10x_StdPeriph_Driver/src/stm32f10x_tim.c ****   *          TIM_DMABase_RCR, TIM_DMABase_CCR1, TIM_DMABase_CCR2,
 930:../lib/STM32F10x_StdPeriph_Driver/src/stm32f10x_tim.c ****   *          TIM_DMABase_CCR3, TIM_DMABase_CCR4, TIM_DMABase_BDTR,
 931:../lib/STM32F10x_StdPeriph_Driver/src/stm32f10x_tim.c ****   *          TIM_DMABase_DCR.
 932:../lib/STM32F10x_StdPeriph_Driver/src/stm32f10x_tim.c ****   * @param  TIM_DMABurstLength: DMA Burst length.
 933:../lib/STM32F10x_StdPeriph_Driver/src/stm32f10x_tim.c ****   *   This parameter can be one value between:
 934:../lib/STM32F10x_StdPeriph_Driver/src/stm32f10x_tim.c ****   *   TIM_DMABurstLength_1Transfer and TIM_DMABurstLength_18Transfers.
 935:../lib/STM32F10x_StdPeriph_Driver/src/stm32f10x_tim.c ****   * @retval None
 936:../lib/STM32F10x_StdPeriph_Driver/src/stm32f10x_tim.c ****   */
 937:../lib/STM32F10x_StdPeriph_Driver/src/stm32f10x_tim.c **** void TIM_DMAConfig(TIM_TypeDef* TIMx, uint16_t TIM_DMABase, uint16_t TIM_DMABurstLength)
 938:../lib/STM32F10x_StdPeriph_Driver/src/stm32f10x_tim.c **** {
 1929              		.loc 1 938 0
 1930              		.cfi_startproc
 1931              		@ args = 0, pretend = 0, frame = 8
 1932              		@ frame_needed = 1, uses_anonymous_args = 0
 1933              		@ link register save eliminated.
 1934 0b8c 80B4     		push	{r7}
 1935              	.LCFI51:
 1936              		.cfi_def_cfa_offset 4
 1937              		.cfi_offset 7, -4
 1938 0b8e 83B0     		sub	sp, sp, #12
 1939              	.LCFI52:
 1940              		.cfi_def_cfa_offset 16
 1941 0b90 00AF     		add	r7, sp, #0
 1942              	.LCFI53:
 1943              		.cfi_def_cfa_register 7
 1944 0b92 7860     		str	r0, [r7, #4]
 1945 0b94 1346     		mov	r3, r2
 1946 0b96 0A46     		mov	r2, r1	@ movhi
 1947 0b98 7A80     		strh	r2, [r7, #2]	@ movhi
 1948 0b9a 3B80     		strh	r3, [r7, #0]	@ movhi
 939:../lib/STM32F10x_StdPeriph_Driver/src/stm32f10x_tim.c ****   /* Check the parameters */
 940:../lib/STM32F10x_StdPeriph_Driver/src/stm32f10x_tim.c ****   assert_param(IS_TIM_LIST4_PERIPH(TIMx));
 941:../lib/STM32F10x_StdPeriph_Driver/src/stm32f10x_tim.c ****   assert_param(IS_TIM_DMA_BASE(TIM_DMABase));
 942:../lib/STM32F10x_StdPeriph_Driver/src/stm32f10x_tim.c ****   assert_param(IS_TIM_DMA_LENGTH(TIM_DMABurstLength));
 943:../lib/STM32F10x_StdPeriph_Driver/src/stm32f10x_tim.c ****   /* Set the DMA Base and the DMA Burst Length */
 944:../lib/STM32F10x_StdPeriph_Driver/src/stm32f10x_tim.c ****   TIMx->DCR = TIM_DMABase | TIM_DMABurstLength;
 1949              		.loc 1 944 0
 1950 0b9c 7A88     		ldrh	r2, [r7, #2]	@ movhi
 1951 0b9e 3B88     		ldrh	r3, [r7, #0]	@ movhi
 1952 0ba0 1343     		orrs	r3, r3, r2
 1953 0ba2 9AB2     		uxth	r2, r3
 1954 0ba4 7B68     		ldr	r3, [r7, #4]
 1955 0ba6 A3F84820 		strh	r2, [r3, #72]	@ movhi
 945:../lib/STM32F10x_StdPeriph_Driver/src/stm32f10x_tim.c **** }
 1956              		.loc 1 945 0
 1957 0baa 07F10C07 		add	r7, r7, #12
 1958 0bae BD46     		mov	sp, r7
 1959 0bb0 80BC     		pop	{r7}
 1960 0bb2 7047     		bx	lr
 1961              		.cfi_endproc
 1962              	.LFE46:
 1964              		.align	2
 1965              		.global	TIM_DMACmd
 1966              		.thumb
 1967              		.thumb_func
 1969              	TIM_DMACmd:
 1970              	.LFB47:
 946:../lib/STM32F10x_StdPeriph_Driver/src/stm32f10x_tim.c **** 
 947:../lib/STM32F10x_StdPeriph_Driver/src/stm32f10x_tim.c **** /**
 948:../lib/STM32F10x_StdPeriph_Driver/src/stm32f10x_tim.c ****   * @brief  Enables or disables the TIMx's DMA Requests.
 949:../lib/STM32F10x_StdPeriph_Driver/src/stm32f10x_tim.c ****   * @param  TIMx: where x can be  1, 2, 3, 4, 5, 6, 7, 8, 15, 16 or 17 
 950:../lib/STM32F10x_StdPeriph_Driver/src/stm32f10x_tim.c ****   *   to select the TIM peripheral. 
 951:../lib/STM32F10x_StdPeriph_Driver/src/stm32f10x_tim.c ****   * @param  TIM_DMASource: specifies the DMA Request sources.
 952:../lib/STM32F10x_StdPeriph_Driver/src/stm32f10x_tim.c ****   *   This parameter can be any combination of the following values:
 953:../lib/STM32F10x_StdPeriph_Driver/src/stm32f10x_tim.c ****   *     @arg TIM_DMA_Update: TIM update Interrupt source
 954:../lib/STM32F10x_StdPeriph_Driver/src/stm32f10x_tim.c ****   *     @arg TIM_DMA_CC1: TIM Capture Compare 1 DMA source
 955:../lib/STM32F10x_StdPeriph_Driver/src/stm32f10x_tim.c ****   *     @arg TIM_DMA_CC2: TIM Capture Compare 2 DMA source
 956:../lib/STM32F10x_StdPeriph_Driver/src/stm32f10x_tim.c ****   *     @arg TIM_DMA_CC3: TIM Capture Compare 3 DMA source
 957:../lib/STM32F10x_StdPeriph_Driver/src/stm32f10x_tim.c ****   *     @arg TIM_DMA_CC4: TIM Capture Compare 4 DMA source
 958:../lib/STM32F10x_StdPeriph_Driver/src/stm32f10x_tim.c ****   *     @arg TIM_DMA_COM: TIM Commutation DMA source
 959:../lib/STM32F10x_StdPeriph_Driver/src/stm32f10x_tim.c ****   *     @arg TIM_DMA_Trigger: TIM Trigger DMA source
 960:../lib/STM32F10x_StdPeriph_Driver/src/stm32f10x_tim.c ****   * @param  NewState: new state of the DMA Request sources.
 961:../lib/STM32F10x_StdPeriph_Driver/src/stm32f10x_tim.c ****   *   This parameter can be: ENABLE or DISABLE.
 962:../lib/STM32F10x_StdPeriph_Driver/src/stm32f10x_tim.c ****   * @retval None
 963:../lib/STM32F10x_StdPeriph_Driver/src/stm32f10x_tim.c ****   */
 964:../lib/STM32F10x_StdPeriph_Driver/src/stm32f10x_tim.c **** void TIM_DMACmd(TIM_TypeDef* TIMx, uint16_t TIM_DMASource, FunctionalState NewState)
 965:../lib/STM32F10x_StdPeriph_Driver/src/stm32f10x_tim.c **** { 
 1971              		.loc 1 965 0
 1972              		.cfi_startproc
 1973              		@ args = 0, pretend = 0, frame = 8
 1974              		@ frame_needed = 1, uses_anonymous_args = 0
 1975              		@ link register save eliminated.
 1976 0bb4 80B4     		push	{r7}
 1977              	.LCFI54:
 1978              		.cfi_def_cfa_offset 4
 1979              		.cfi_offset 7, -4
 1980 0bb6 83B0     		sub	sp, sp, #12
 1981              	.LCFI55:
 1982              		.cfi_def_cfa_offset 16
 1983 0bb8 00AF     		add	r7, sp, #0
 1984              	.LCFI56:
 1985              		.cfi_def_cfa_register 7
 1986 0bba 7860     		str	r0, [r7, #4]
 1987 0bbc 1346     		mov	r3, r2
 1988 0bbe 0A46     		mov	r2, r1	@ movhi
 1989 0bc0 7A80     		strh	r2, [r7, #2]	@ movhi
 1990 0bc2 7B70     		strb	r3, [r7, #1]
 966:../lib/STM32F10x_StdPeriph_Driver/src/stm32f10x_tim.c ****   /* Check the parameters */
 967:../lib/STM32F10x_StdPeriph_Driver/src/stm32f10x_tim.c ****   assert_param(IS_TIM_LIST9_PERIPH(TIMx));
 968:../lib/STM32F10x_StdPeriph_Driver/src/stm32f10x_tim.c ****   assert_param(IS_TIM_DMA_SOURCE(TIM_DMASource));
 969:../lib/STM32F10x_StdPeriph_Driver/src/stm32f10x_tim.c ****   assert_param(IS_FUNCTIONAL_STATE(NewState));
 970:../lib/STM32F10x_StdPeriph_Driver/src/stm32f10x_tim.c ****   
 971:../lib/STM32F10x_StdPeriph_Driver/src/stm32f10x_tim.c ****   if (NewState != DISABLE)
 1991              		.loc 1 971 0
 1992 0bc4 7B78     		ldrb	r3, [r7, #1]	@ zero_extendqisi2
 1993 0bc6 002B     		cmp	r3, #0
 1994 0bc8 08D0     		beq	.L78
 972:../lib/STM32F10x_StdPeriph_Driver/src/stm32f10x_tim.c ****   {
 973:../lib/STM32F10x_StdPeriph_Driver/src/stm32f10x_tim.c ****     /* Enable the DMA sources */
 974:../lib/STM32F10x_StdPeriph_Driver/src/stm32f10x_tim.c ****     TIMx->DIER |= TIM_DMASource; 
 1995              		.loc 1 974 0
 1996 0bca 7B68     		ldr	r3, [r7, #4]
 1997 0bcc 9B89     		ldrh	r3, [r3, #12]	@ movhi
 1998 0bce 9AB2     		uxth	r2, r3
 1999 0bd0 7B88     		ldrh	r3, [r7, #2]	@ movhi
 2000 0bd2 1343     		orrs	r3, r3, r2
 2001 0bd4 9AB2     		uxth	r2, r3
 2002 0bd6 7B68     		ldr	r3, [r7, #4]
 2003 0bd8 9A81     		strh	r2, [r3, #12]	@ movhi
 2004 0bda 0AE0     		b	.L77
 2005              	.L78:
 975:../lib/STM32F10x_StdPeriph_Driver/src/stm32f10x_tim.c ****   }
 976:../lib/STM32F10x_StdPeriph_Driver/src/stm32f10x_tim.c ****   else
 977:../lib/STM32F10x_StdPeriph_Driver/src/stm32f10x_tim.c ****   {
 978:../lib/STM32F10x_StdPeriph_Driver/src/stm32f10x_tim.c ****     /* Disable the DMA sources */
 979:../lib/STM32F10x_StdPeriph_Driver/src/stm32f10x_tim.c ****     TIMx->DIER &= (uint16_t)~TIM_DMASource;
 2006              		.loc 1 979 0
 2007 0bdc 7B68     		ldr	r3, [r7, #4]
 2008 0bde 9B89     		ldrh	r3, [r3, #12]	@ movhi
 2009 0be0 9AB2     		uxth	r2, r3
 2010 0be2 7B88     		ldrh	r3, [r7, #2]	@ movhi
 2011 0be4 6FEA0303 		mvn	r3, r3
 2012 0be8 9BB2     		uxth	r3, r3
 2013 0bea 1340     		ands	r3, r3, r2
 2014 0bec 9AB2     		uxth	r2, r3
 2015 0bee 7B68     		ldr	r3, [r7, #4]
 2016 0bf0 9A81     		strh	r2, [r3, #12]	@ movhi
 2017              	.L77:
 980:../lib/STM32F10x_StdPeriph_Driver/src/stm32f10x_tim.c ****   }
 981:../lib/STM32F10x_StdPeriph_Driver/src/stm32f10x_tim.c **** }
 2018              		.loc 1 981 0
 2019 0bf2 07F10C07 		add	r7, r7, #12
 2020 0bf6 BD46     		mov	sp, r7
 2021 0bf8 80BC     		pop	{r7}
 2022 0bfa 7047     		bx	lr
 2023              		.cfi_endproc
 2024              	.LFE47:
 2026              		.align	2
 2027              		.global	TIM_InternalClockConfig
 2028              		.thumb
 2029              		.thumb_func
 2031              	TIM_InternalClockConfig:
 2032              	.LFB48:
 982:../lib/STM32F10x_StdPeriph_Driver/src/stm32f10x_tim.c **** 
 983:../lib/STM32F10x_StdPeriph_Driver/src/stm32f10x_tim.c **** /**
 984:../lib/STM32F10x_StdPeriph_Driver/src/stm32f10x_tim.c ****   * @brief  Configures the TIMx internal Clock
 985:../lib/STM32F10x_StdPeriph_Driver/src/stm32f10x_tim.c ****   * @param  TIMx: where x can be  1, 2, 3, 4, 5, 8, 9, 12 or 15
 986:../lib/STM32F10x_StdPeriph_Driver/src/stm32f10x_tim.c ****   *         to select the TIM peripheral.
 987:../lib/STM32F10x_StdPeriph_Driver/src/stm32f10x_tim.c ****   * @retval None
 988:../lib/STM32F10x_StdPeriph_Driver/src/stm32f10x_tim.c ****   */
 989:../lib/STM32F10x_StdPeriph_Driver/src/stm32f10x_tim.c **** void TIM_InternalClockConfig(TIM_TypeDef* TIMx)
 990:../lib/STM32F10x_StdPeriph_Driver/src/stm32f10x_tim.c **** {
 2033              		.loc 1 990 0
 2034              		.cfi_startproc
 2035              		@ args = 0, pretend = 0, frame = 8
 2036              		@ frame_needed = 1, uses_anonymous_args = 0
 2037              		@ link register save eliminated.
 2038 0bfc 80B4     		push	{r7}
 2039              	.LCFI57:
 2040              		.cfi_def_cfa_offset 4
 2041              		.cfi_offset 7, -4
 2042 0bfe 83B0     		sub	sp, sp, #12
 2043              	.LCFI58:
 2044              		.cfi_def_cfa_offset 16
 2045 0c00 00AF     		add	r7, sp, #0
 2046              	.LCFI59:
 2047              		.cfi_def_cfa_register 7
 2048 0c02 7860     		str	r0, [r7, #4]
 991:../lib/STM32F10x_StdPeriph_Driver/src/stm32f10x_tim.c ****   /* Check the parameters */
 992:../lib/STM32F10x_StdPeriph_Driver/src/stm32f10x_tim.c ****   assert_param(IS_TIM_LIST6_PERIPH(TIMx));
 993:../lib/STM32F10x_StdPeriph_Driver/src/stm32f10x_tim.c ****   /* Disable slave mode to clock the prescaler directly with the internal clock */
 994:../lib/STM32F10x_StdPeriph_Driver/src/stm32f10x_tim.c ****   TIMx->SMCR &=  (uint16_t)(~((uint16_t)TIM_SMCR_SMS));
 2049              		.loc 1 994 0
 2050 0c04 7B68     		ldr	r3, [r7, #4]
 2051 0c06 1B89     		ldrh	r3, [r3, #8]	@ movhi
 2052 0c08 9BB2     		uxth	r3, r3
 2053 0c0a 23F00703 		bic	r3, r3, #7
 2054 0c0e 9AB2     		uxth	r2, r3
 2055 0c10 7B68     		ldr	r3, [r7, #4]
 2056 0c12 1A81     		strh	r2, [r3, #8]	@ movhi
 995:../lib/STM32F10x_StdPeriph_Driver/src/stm32f10x_tim.c **** }
 2057              		.loc 1 995 0
 2058 0c14 07F10C07 		add	r7, r7, #12
 2059 0c18 BD46     		mov	sp, r7
 2060 0c1a 80BC     		pop	{r7}
 2061 0c1c 7047     		bx	lr
 2062              		.cfi_endproc
 2063              	.LFE48:
 2065 0c1e 00BF     		.align	2
 2066              		.global	TIM_ITRxExternalClockConfig
 2067              		.thumb
 2068              		.thumb_func
 2070              	TIM_ITRxExternalClockConfig:
 2071              	.LFB49:
 996:../lib/STM32F10x_StdPeriph_Driver/src/stm32f10x_tim.c **** 
 997:../lib/STM32F10x_StdPeriph_Driver/src/stm32f10x_tim.c **** /**
 998:../lib/STM32F10x_StdPeriph_Driver/src/stm32f10x_tim.c ****   * @brief  Configures the TIMx Internal Trigger as External Clock
 999:../lib/STM32F10x_StdPeriph_Driver/src/stm32f10x_tim.c ****   * @param  TIMx: where x can be  1, 2, 3, 4, 5, 9, 12 or 15 to select the TIM peripheral.
1000:../lib/STM32F10x_StdPeriph_Driver/src/stm32f10x_tim.c ****   * @param  TIM_ITRSource: Trigger source.
1001:../lib/STM32F10x_StdPeriph_Driver/src/stm32f10x_tim.c ****   *   This parameter can be one of the following values:
1002:../lib/STM32F10x_StdPeriph_Driver/src/stm32f10x_tim.c ****   * @param  TIM_TS_ITR0: Internal Trigger 0
1003:../lib/STM32F10x_StdPeriph_Driver/src/stm32f10x_tim.c ****   * @param  TIM_TS_ITR1: Internal Trigger 1
1004:../lib/STM32F10x_StdPeriph_Driver/src/stm32f10x_tim.c ****   * @param  TIM_TS_ITR2: Internal Trigger 2
1005:../lib/STM32F10x_StdPeriph_Driver/src/stm32f10x_tim.c ****   * @param  TIM_TS_ITR3: Internal Trigger 3
1006:../lib/STM32F10x_StdPeriph_Driver/src/stm32f10x_tim.c ****   * @retval None
1007:../lib/STM32F10x_StdPeriph_Driver/src/stm32f10x_tim.c ****   */
1008:../lib/STM32F10x_StdPeriph_Driver/src/stm32f10x_tim.c **** void TIM_ITRxExternalClockConfig(TIM_TypeDef* TIMx, uint16_t TIM_InputTriggerSource)
1009:../lib/STM32F10x_StdPeriph_Driver/src/stm32f10x_tim.c **** {
 2072              		.loc 1 1009 0
 2073              		.cfi_startproc
 2074              		@ args = 0, pretend = 0, frame = 8
 2075              		@ frame_needed = 1, uses_anonymous_args = 0
 2076 0c20 80B5     		push	{r7, lr}
 2077              	.LCFI60:
 2078              		.cfi_def_cfa_offset 8
 2079              		.cfi_offset 7, -8
 2080              		.cfi_offset 14, -4
 2081 0c22 82B0     		sub	sp, sp, #8
 2082              	.LCFI61:
 2083              		.cfi_def_cfa_offset 16
 2084 0c24 00AF     		add	r7, sp, #0
 2085              	.LCFI62:
 2086              		.cfi_def_cfa_register 7
 2087 0c26 7860     		str	r0, [r7, #4]
 2088 0c28 0B46     		mov	r3, r1
 2089 0c2a 7B80     		strh	r3, [r7, #2]	@ movhi
1010:../lib/STM32F10x_StdPeriph_Driver/src/stm32f10x_tim.c ****   /* Check the parameters */
1011:../lib/STM32F10x_StdPeriph_Driver/src/stm32f10x_tim.c ****   assert_param(IS_TIM_LIST6_PERIPH(TIMx));
1012:../lib/STM32F10x_StdPeriph_Driver/src/stm32f10x_tim.c ****   assert_param(IS_TIM_INTERNAL_TRIGGER_SELECTION(TIM_InputTriggerSource));
1013:../lib/STM32F10x_StdPeriph_Driver/src/stm32f10x_tim.c ****   /* Select the Internal Trigger */
1014:../lib/STM32F10x_StdPeriph_Driver/src/stm32f10x_tim.c ****   TIM_SelectInputTrigger(TIMx, TIM_InputTriggerSource);
 2090              		.loc 1 1014 0
 2091 0c2c 7B88     		ldrh	r3, [r7, #2]
 2092 0c2e 7868     		ldr	r0, [r7, #4]
 2093 0c30 1946     		mov	r1, r3
 2094 0c32 FFF7FEFF 		bl	TIM_SelectInputTrigger
1015:../lib/STM32F10x_StdPeriph_Driver/src/stm32f10x_tim.c ****   /* Select the External clock mode1 */
1016:../lib/STM32F10x_StdPeriph_Driver/src/stm32f10x_tim.c ****   TIMx->SMCR |= TIM_SlaveMode_External1;
 2095              		.loc 1 1016 0
 2096 0c36 7B68     		ldr	r3, [r7, #4]
 2097 0c38 1B89     		ldrh	r3, [r3, #8]	@ movhi
 2098 0c3a 9BB2     		uxth	r3, r3
 2099 0c3c 43F00703 		orr	r3, r3, #7
 2100 0c40 9AB2     		uxth	r2, r3
 2101 0c42 7B68     		ldr	r3, [r7, #4]
 2102 0c44 1A81     		strh	r2, [r3, #8]	@ movhi
1017:../lib/STM32F10x_StdPeriph_Driver/src/stm32f10x_tim.c **** }
 2103              		.loc 1 1017 0
 2104 0c46 07F10807 		add	r7, r7, #8
 2105 0c4a BD46     		mov	sp, r7
 2106 0c4c 80BD     		pop	{r7, pc}
 2107              		.cfi_endproc
 2108              	.LFE49:
 2110 0c4e 00BF     		.align	2
 2111              		.global	TIM_TIxExternalClockConfig
 2112              		.thumb
 2113              		.thumb_func
 2115              	TIM_TIxExternalClockConfig:
 2116              	.LFB50:
1018:../lib/STM32F10x_StdPeriph_Driver/src/stm32f10x_tim.c **** 
1019:../lib/STM32F10x_StdPeriph_Driver/src/stm32f10x_tim.c **** /**
1020:../lib/STM32F10x_StdPeriph_Driver/src/stm32f10x_tim.c ****   * @brief  Configures the TIMx Trigger as External Clock
1021:../lib/STM32F10x_StdPeriph_Driver/src/stm32f10x_tim.c ****   * @param  TIMx: where x can be  1, 2, 3, 4, 5, 9, 12 or 15 to select the TIM peripheral.
1022:../lib/STM32F10x_StdPeriph_Driver/src/stm32f10x_tim.c ****   * @param  TIM_TIxExternalCLKSource: Trigger source.
1023:../lib/STM32F10x_StdPeriph_Driver/src/stm32f10x_tim.c ****   *   This parameter can be one of the following values:
1024:../lib/STM32F10x_StdPeriph_Driver/src/stm32f10x_tim.c ****   *     @arg TIM_TIxExternalCLK1Source_TI1ED: TI1 Edge Detector
1025:../lib/STM32F10x_StdPeriph_Driver/src/stm32f10x_tim.c ****   *     @arg TIM_TIxExternalCLK1Source_TI1: Filtered Timer Input 1
1026:../lib/STM32F10x_StdPeriph_Driver/src/stm32f10x_tim.c ****   *     @arg TIM_TIxExternalCLK1Source_TI2: Filtered Timer Input 2
1027:../lib/STM32F10x_StdPeriph_Driver/src/stm32f10x_tim.c ****   * @param  TIM_ICPolarity: specifies the TIx Polarity.
1028:../lib/STM32F10x_StdPeriph_Driver/src/stm32f10x_tim.c ****   *   This parameter can be one of the following values:
1029:../lib/STM32F10x_StdPeriph_Driver/src/stm32f10x_tim.c ****   *     @arg TIM_ICPolarity_Rising
1030:../lib/STM32F10x_StdPeriph_Driver/src/stm32f10x_tim.c ****   *     @arg TIM_ICPolarity_Falling
1031:../lib/STM32F10x_StdPeriph_Driver/src/stm32f10x_tim.c ****   * @param  ICFilter : specifies the filter value.
1032:../lib/STM32F10x_StdPeriph_Driver/src/stm32f10x_tim.c ****   *   This parameter must be a value between 0x0 and 0xF.
1033:../lib/STM32F10x_StdPeriph_Driver/src/stm32f10x_tim.c ****   * @retval None
1034:../lib/STM32F10x_StdPeriph_Driver/src/stm32f10x_tim.c ****   */
1035:../lib/STM32F10x_StdPeriph_Driver/src/stm32f10x_tim.c **** void TIM_TIxExternalClockConfig(TIM_TypeDef* TIMx, uint16_t TIM_TIxExternalCLKSource,
1036:../lib/STM32F10x_StdPeriph_Driver/src/stm32f10x_tim.c ****                                 uint16_t TIM_ICPolarity, uint16_t ICFilter)
1037:../lib/STM32F10x_StdPeriph_Driver/src/stm32f10x_tim.c **** {
 2117              		.loc 1 1037 0
 2118              		.cfi_startproc
 2119              		@ args = 0, pretend = 0, frame = 16
 2120              		@ frame_needed = 1, uses_anonymous_args = 0
 2121 0c50 80B5     		push	{r7, lr}
 2122              	.LCFI63:
 2123              		.cfi_def_cfa_offset 8
 2124              		.cfi_offset 7, -8
 2125              		.cfi_offset 14, -4
 2126 0c52 84B0     		sub	sp, sp, #16
 2127              	.LCFI64:
 2128              		.cfi_def_cfa_offset 24
 2129 0c54 00AF     		add	r7, sp, #0
 2130              	.LCFI65:
 2131              		.cfi_def_cfa_register 7
 2132 0c56 F860     		str	r0, [r7, #12]
 2133 0c58 7981     		strh	r1, [r7, #10]	@ movhi
 2134 0c5a 3A81     		strh	r2, [r7, #8]	@ movhi
 2135 0c5c FB80     		strh	r3, [r7, #6]	@ movhi
1038:../lib/STM32F10x_StdPeriph_Driver/src/stm32f10x_tim.c ****   /* Check the parameters */
1039:../lib/STM32F10x_StdPeriph_Driver/src/stm32f10x_tim.c ****   assert_param(IS_TIM_LIST6_PERIPH(TIMx));
1040:../lib/STM32F10x_StdPeriph_Driver/src/stm32f10x_tim.c ****   assert_param(IS_TIM_TIXCLK_SOURCE(TIM_TIxExternalCLKSource));
1041:../lib/STM32F10x_StdPeriph_Driver/src/stm32f10x_tim.c ****   assert_param(IS_TIM_IC_POLARITY(TIM_ICPolarity));
1042:../lib/STM32F10x_StdPeriph_Driver/src/stm32f10x_tim.c ****   assert_param(IS_TIM_IC_FILTER(ICFilter));
1043:../lib/STM32F10x_StdPeriph_Driver/src/stm32f10x_tim.c ****   /* Configure the Timer Input Clock Source */
1044:../lib/STM32F10x_StdPeriph_Driver/src/stm32f10x_tim.c ****   if (TIM_TIxExternalCLKSource == TIM_TIxExternalCLK1Source_TI2)
 2136              		.loc 1 1044 0
 2137 0c5e 7B89     		ldrh	r3, [r7, #10]
 2138 0c60 602B     		cmp	r3, #96
 2139 0c62 08D1     		bne	.L83
1045:../lib/STM32F10x_StdPeriph_Driver/src/stm32f10x_tim.c ****   {
1046:../lib/STM32F10x_StdPeriph_Driver/src/stm32f10x_tim.c ****     TI2_Config(TIMx, TIM_ICPolarity, TIM_ICSelection_DirectTI, ICFilter);
 2140              		.loc 1 1046 0
 2141 0c64 3A89     		ldrh	r2, [r7, #8]
 2142 0c66 FB88     		ldrh	r3, [r7, #6]
 2143 0c68 F868     		ldr	r0, [r7, #12]
 2144 0c6a 1146     		mov	r1, r2
 2145 0c6c 4FF00102 		mov	r2, #1
 2146 0c70 00F0FCFF 		bl	TI2_Config
 2147 0c74 07E0     		b	.L84
 2148              	.L83:
1047:../lib/STM32F10x_StdPeriph_Driver/src/stm32f10x_tim.c ****   }
1048:../lib/STM32F10x_StdPeriph_Driver/src/stm32f10x_tim.c ****   else
1049:../lib/STM32F10x_StdPeriph_Driver/src/stm32f10x_tim.c ****   {
1050:../lib/STM32F10x_StdPeriph_Driver/src/stm32f10x_tim.c ****     TI1_Config(TIMx, TIM_ICPolarity, TIM_ICSelection_DirectTI, ICFilter);
 2149              		.loc 1 1050 0
 2150 0c76 3A89     		ldrh	r2, [r7, #8]
 2151 0c78 FB88     		ldrh	r3, [r7, #6]
 2152 0c7a F868     		ldr	r0, [r7, #12]
 2153 0c7c 1146     		mov	r1, r2
 2154 0c7e 4FF00102 		mov	r2, #1
 2155 0c82 00F085FF 		bl	TI1_Config
 2156              	.L84:
1051:../lib/STM32F10x_StdPeriph_Driver/src/stm32f10x_tim.c ****   }
1052:../lib/STM32F10x_StdPeriph_Driver/src/stm32f10x_tim.c ****   /* Select the Trigger source */
1053:../lib/STM32F10x_StdPeriph_Driver/src/stm32f10x_tim.c ****   TIM_SelectInputTrigger(TIMx, TIM_TIxExternalCLKSource);
 2157              		.loc 1 1053 0
 2158 0c86 7B89     		ldrh	r3, [r7, #10]
 2159 0c88 F868     		ldr	r0, [r7, #12]
 2160 0c8a 1946     		mov	r1, r3
 2161 0c8c FFF7FEFF 		bl	TIM_SelectInputTrigger
1054:../lib/STM32F10x_StdPeriph_Driver/src/stm32f10x_tim.c ****   /* Select the External clock mode1 */
1055:../lib/STM32F10x_StdPeriph_Driver/src/stm32f10x_tim.c ****   TIMx->SMCR |= TIM_SlaveMode_External1;
 2162              		.loc 1 1055 0
 2163 0c90 FB68     		ldr	r3, [r7, #12]
 2164 0c92 1B89     		ldrh	r3, [r3, #8]	@ movhi
 2165 0c94 9BB2     		uxth	r3, r3
 2166 0c96 43F00703 		orr	r3, r3, #7
 2167 0c9a 9AB2     		uxth	r2, r3
 2168 0c9c FB68     		ldr	r3, [r7, #12]
 2169 0c9e 1A81     		strh	r2, [r3, #8]	@ movhi
1056:../lib/STM32F10x_StdPeriph_Driver/src/stm32f10x_tim.c **** }
 2170              		.loc 1 1056 0
 2171 0ca0 07F11007 		add	r7, r7, #16
 2172 0ca4 BD46     		mov	sp, r7
 2173 0ca6 80BD     		pop	{r7, pc}
 2174              		.cfi_endproc
 2175              	.LFE50:
 2177              		.align	2
 2178              		.global	TIM_ETRClockMode1Config
 2179              		.thumb
 2180              		.thumb_func
 2182              	TIM_ETRClockMode1Config:
 2183              	.LFB51:
1057:../lib/STM32F10x_StdPeriph_Driver/src/stm32f10x_tim.c **** 
1058:../lib/STM32F10x_StdPeriph_Driver/src/stm32f10x_tim.c **** /**
1059:../lib/STM32F10x_StdPeriph_Driver/src/stm32f10x_tim.c ****   * @brief  Configures the External clock Mode1
1060:../lib/STM32F10x_StdPeriph_Driver/src/stm32f10x_tim.c ****   * @param  TIMx: where x can be  1, 2, 3, 4, 5 or 8 to select the TIM peripheral.
1061:../lib/STM32F10x_StdPeriph_Driver/src/stm32f10x_tim.c ****   * @param  TIM_ExtTRGPrescaler: The external Trigger Prescaler.
1062:../lib/STM32F10x_StdPeriph_Driver/src/stm32f10x_tim.c ****   *   This parameter can be one of the following values:
1063:../lib/STM32F10x_StdPeriph_Driver/src/stm32f10x_tim.c ****   *     @arg TIM_ExtTRGPSC_OFF: ETRP Prescaler OFF.
1064:../lib/STM32F10x_StdPeriph_Driver/src/stm32f10x_tim.c ****   *     @arg TIM_ExtTRGPSC_DIV2: ETRP frequency divided by 2.
1065:../lib/STM32F10x_StdPeriph_Driver/src/stm32f10x_tim.c ****   *     @arg TIM_ExtTRGPSC_DIV4: ETRP frequency divided by 4.
1066:../lib/STM32F10x_StdPeriph_Driver/src/stm32f10x_tim.c ****   *     @arg TIM_ExtTRGPSC_DIV8: ETRP frequency divided by 8.
1067:../lib/STM32F10x_StdPeriph_Driver/src/stm32f10x_tim.c ****   * @param  TIM_ExtTRGPolarity: The external Trigger Polarity.
1068:../lib/STM32F10x_StdPeriph_Driver/src/stm32f10x_tim.c ****   *   This parameter can be one of the following values:
1069:../lib/STM32F10x_StdPeriph_Driver/src/stm32f10x_tim.c ****   *     @arg TIM_ExtTRGPolarity_Inverted: active low or falling edge active.
1070:../lib/STM32F10x_StdPeriph_Driver/src/stm32f10x_tim.c ****   *     @arg TIM_ExtTRGPolarity_NonInverted: active high or rising edge active.
1071:../lib/STM32F10x_StdPeriph_Driver/src/stm32f10x_tim.c ****   * @param  ExtTRGFilter: External Trigger Filter.
1072:../lib/STM32F10x_StdPeriph_Driver/src/stm32f10x_tim.c ****   *   This parameter must be a value between 0x00 and 0x0F
1073:../lib/STM32F10x_StdPeriph_Driver/src/stm32f10x_tim.c ****   * @retval None
1074:../lib/STM32F10x_StdPeriph_Driver/src/stm32f10x_tim.c ****   */
1075:../lib/STM32F10x_StdPeriph_Driver/src/stm32f10x_tim.c **** void TIM_ETRClockMode1Config(TIM_TypeDef* TIMx, uint16_t TIM_ExtTRGPrescaler, uint16_t TIM_ExtTRGPo
1076:../lib/STM32F10x_StdPeriph_Driver/src/stm32f10x_tim.c ****                              uint16_t ExtTRGFilter)
1077:../lib/STM32F10x_StdPeriph_Driver/src/stm32f10x_tim.c **** {
 2184              		.loc 1 1077 0
 2185              		.cfi_startproc
 2186              		@ args = 0, pretend = 0, frame = 24
 2187              		@ frame_needed = 1, uses_anonymous_args = 0
 2188 0ca8 80B5     		push	{r7, lr}
 2189              	.LCFI66:
 2190              		.cfi_def_cfa_offset 8
 2191              		.cfi_offset 7, -8
 2192              		.cfi_offset 14, -4
 2193 0caa 86B0     		sub	sp, sp, #24
 2194              	.LCFI67:
 2195              		.cfi_def_cfa_offset 32
 2196 0cac 00AF     		add	r7, sp, #0
 2197              	.LCFI68:
 2198              		.cfi_def_cfa_register 7
 2199 0cae F860     		str	r0, [r7, #12]
 2200 0cb0 7981     		strh	r1, [r7, #10]	@ movhi
 2201 0cb2 3A81     		strh	r2, [r7, #8]	@ movhi
 2202 0cb4 FB80     		strh	r3, [r7, #6]	@ movhi
1078:../lib/STM32F10x_StdPeriph_Driver/src/stm32f10x_tim.c ****   uint16_t tmpsmcr = 0;
 2203              		.loc 1 1078 0
 2204 0cb6 4FF00003 		mov	r3, #0
 2205 0cba FB82     		strh	r3, [r7, #22]	@ movhi
1079:../lib/STM32F10x_StdPeriph_Driver/src/stm32f10x_tim.c ****   /* Check the parameters */
1080:../lib/STM32F10x_StdPeriph_Driver/src/stm32f10x_tim.c ****   assert_param(IS_TIM_LIST3_PERIPH(TIMx));
1081:../lib/STM32F10x_StdPeriph_Driver/src/stm32f10x_tim.c ****   assert_param(IS_TIM_EXT_PRESCALER(TIM_ExtTRGPrescaler));
1082:../lib/STM32F10x_StdPeriph_Driver/src/stm32f10x_tim.c ****   assert_param(IS_TIM_EXT_POLARITY(TIM_ExtTRGPolarity));
1083:../lib/STM32F10x_StdPeriph_Driver/src/stm32f10x_tim.c ****   assert_param(IS_TIM_EXT_FILTER(ExtTRGFilter));
1084:../lib/STM32F10x_StdPeriph_Driver/src/stm32f10x_tim.c ****   /* Configure the ETR Clock source */
1085:../lib/STM32F10x_StdPeriph_Driver/src/stm32f10x_tim.c ****   TIM_ETRConfig(TIMx, TIM_ExtTRGPrescaler, TIM_ExtTRGPolarity, ExtTRGFilter);
 2206              		.loc 1 1085 0
 2207 0cbc 7989     		ldrh	r1, [r7, #10]
 2208 0cbe 3A89     		ldrh	r2, [r7, #8]
 2209 0cc0 FB88     		ldrh	r3, [r7, #6]
 2210 0cc2 F868     		ldr	r0, [r7, #12]
 2211 0cc4 FFF7FEFF 		bl	TIM_ETRConfig
1086:../lib/STM32F10x_StdPeriph_Driver/src/stm32f10x_tim.c ****   
1087:../lib/STM32F10x_StdPeriph_Driver/src/stm32f10x_tim.c ****   /* Get the TIMx SMCR register value */
1088:../lib/STM32F10x_StdPeriph_Driver/src/stm32f10x_tim.c ****   tmpsmcr = TIMx->SMCR;
 2212              		.loc 1 1088 0
 2213 0cc8 FB68     		ldr	r3, [r7, #12]
 2214 0cca 1B89     		ldrh	r3, [r3, #8]	@ movhi
 2215 0ccc FB82     		strh	r3, [r7, #22]	@ movhi
1089:../lib/STM32F10x_StdPeriph_Driver/src/stm32f10x_tim.c ****   /* Reset the SMS Bits */
1090:../lib/STM32F10x_StdPeriph_Driver/src/stm32f10x_tim.c ****   tmpsmcr &= (uint16_t)(~((uint16_t)TIM_SMCR_SMS));
 2216              		.loc 1 1090 0
 2217 0cce FB8A     		ldrh	r3, [r7, #22]	@ movhi
 2218 0cd0 23F00703 		bic	r3, r3, #7
 2219 0cd4 FB82     		strh	r3, [r7, #22]	@ movhi
1091:../lib/STM32F10x_StdPeriph_Driver/src/stm32f10x_tim.c ****   /* Select the External clock mode1 */
1092:../lib/STM32F10x_StdPeriph_Driver/src/stm32f10x_tim.c ****   tmpsmcr |= TIM_SlaveMode_External1;
 2220              		.loc 1 1092 0
 2221 0cd6 FB8A     		ldrh	r3, [r7, #22]	@ movhi
 2222 0cd8 43F00703 		orr	r3, r3, #7
 2223 0cdc FB82     		strh	r3, [r7, #22]	@ movhi
1093:../lib/STM32F10x_StdPeriph_Driver/src/stm32f10x_tim.c ****   /* Select the Trigger selection : ETRF */
1094:../lib/STM32F10x_StdPeriph_Driver/src/stm32f10x_tim.c ****   tmpsmcr &= (uint16_t)(~((uint16_t)TIM_SMCR_TS));
 2224              		.loc 1 1094 0
 2225 0cde FB8A     		ldrh	r3, [r7, #22]	@ movhi
 2226 0ce0 23F07003 		bic	r3, r3, #112
 2227 0ce4 FB82     		strh	r3, [r7, #22]	@ movhi
1095:../lib/STM32F10x_StdPeriph_Driver/src/stm32f10x_tim.c ****   tmpsmcr |= TIM_TS_ETRF;
 2228              		.loc 1 1095 0
 2229 0ce6 FB8A     		ldrh	r3, [r7, #22]	@ movhi
 2230 0ce8 43F07003 		orr	r3, r3, #112
 2231 0cec FB82     		strh	r3, [r7, #22]	@ movhi
1096:../lib/STM32F10x_StdPeriph_Driver/src/stm32f10x_tim.c ****   /* Write to TIMx SMCR */
1097:../lib/STM32F10x_StdPeriph_Driver/src/stm32f10x_tim.c ****   TIMx->SMCR = tmpsmcr;
 2232              		.loc 1 1097 0
 2233 0cee FB68     		ldr	r3, [r7, #12]
 2234 0cf0 FA8A     		ldrh	r2, [r7, #22]	@ movhi
 2235 0cf2 1A81     		strh	r2, [r3, #8]	@ movhi
1098:../lib/STM32F10x_StdPeriph_Driver/src/stm32f10x_tim.c **** }
 2236              		.loc 1 1098 0
 2237 0cf4 07F11807 		add	r7, r7, #24
 2238 0cf8 BD46     		mov	sp, r7
 2239 0cfa 80BD     		pop	{r7, pc}
 2240              		.cfi_endproc
 2241              	.LFE51:
 2243              		.align	2
 2244              		.global	TIM_ETRClockMode2Config
 2245              		.thumb
 2246              		.thumb_func
 2248              	TIM_ETRClockMode2Config:
 2249              	.LFB52:
1099:../lib/STM32F10x_StdPeriph_Driver/src/stm32f10x_tim.c **** 
1100:../lib/STM32F10x_StdPeriph_Driver/src/stm32f10x_tim.c **** /**
1101:../lib/STM32F10x_StdPeriph_Driver/src/stm32f10x_tim.c ****   * @brief  Configures the External clock Mode2
1102:../lib/STM32F10x_StdPeriph_Driver/src/stm32f10x_tim.c ****   * @param  TIMx: where x can be  1, 2, 3, 4, 5 or 8 to select the TIM peripheral.
1103:../lib/STM32F10x_StdPeriph_Driver/src/stm32f10x_tim.c ****   * @param  TIM_ExtTRGPrescaler: The external Trigger Prescaler.
1104:../lib/STM32F10x_StdPeriph_Driver/src/stm32f10x_tim.c ****   *   This parameter can be one of the following values:
1105:../lib/STM32F10x_StdPeriph_Driver/src/stm32f10x_tim.c ****   *     @arg TIM_ExtTRGPSC_OFF: ETRP Prescaler OFF.
1106:../lib/STM32F10x_StdPeriph_Driver/src/stm32f10x_tim.c ****   *     @arg TIM_ExtTRGPSC_DIV2: ETRP frequency divided by 2.
1107:../lib/STM32F10x_StdPeriph_Driver/src/stm32f10x_tim.c ****   *     @arg TIM_ExtTRGPSC_DIV4: ETRP frequency divided by 4.
1108:../lib/STM32F10x_StdPeriph_Driver/src/stm32f10x_tim.c ****   *     @arg TIM_ExtTRGPSC_DIV8: ETRP frequency divided by 8.
1109:../lib/STM32F10x_StdPeriph_Driver/src/stm32f10x_tim.c ****   * @param  TIM_ExtTRGPolarity: The external Trigger Polarity.
1110:../lib/STM32F10x_StdPeriph_Driver/src/stm32f10x_tim.c ****   *   This parameter can be one of the following values:
1111:../lib/STM32F10x_StdPeriph_Driver/src/stm32f10x_tim.c ****   *     @arg TIM_ExtTRGPolarity_Inverted: active low or falling edge active.
1112:../lib/STM32F10x_StdPeriph_Driver/src/stm32f10x_tim.c ****   *     @arg TIM_ExtTRGPolarity_NonInverted: active high or rising edge active.
1113:../lib/STM32F10x_StdPeriph_Driver/src/stm32f10x_tim.c ****   * @param  ExtTRGFilter: External Trigger Filter.
1114:../lib/STM32F10x_StdPeriph_Driver/src/stm32f10x_tim.c ****   *   This parameter must be a value between 0x00 and 0x0F
1115:../lib/STM32F10x_StdPeriph_Driver/src/stm32f10x_tim.c ****   * @retval None
1116:../lib/STM32F10x_StdPeriph_Driver/src/stm32f10x_tim.c ****   */
1117:../lib/STM32F10x_StdPeriph_Driver/src/stm32f10x_tim.c **** void TIM_ETRClockMode2Config(TIM_TypeDef* TIMx, uint16_t TIM_ExtTRGPrescaler, 
1118:../lib/STM32F10x_StdPeriph_Driver/src/stm32f10x_tim.c ****                              uint16_t TIM_ExtTRGPolarity, uint16_t ExtTRGFilter)
1119:../lib/STM32F10x_StdPeriph_Driver/src/stm32f10x_tim.c **** {
 2250              		.loc 1 1119 0
 2251              		.cfi_startproc
 2252              		@ args = 0, pretend = 0, frame = 16
 2253              		@ frame_needed = 1, uses_anonymous_args = 0
 2254 0cfc 80B5     		push	{r7, lr}
 2255              	.LCFI69:
 2256              		.cfi_def_cfa_offset 8
 2257              		.cfi_offset 7, -8
 2258              		.cfi_offset 14, -4
 2259 0cfe 84B0     		sub	sp, sp, #16
 2260              	.LCFI70:
 2261              		.cfi_def_cfa_offset 24
 2262 0d00 00AF     		add	r7, sp, #0
 2263              	.LCFI71:
 2264              		.cfi_def_cfa_register 7
 2265 0d02 F860     		str	r0, [r7, #12]
 2266 0d04 7981     		strh	r1, [r7, #10]	@ movhi
 2267 0d06 3A81     		strh	r2, [r7, #8]	@ movhi
 2268 0d08 FB80     		strh	r3, [r7, #6]	@ movhi
1120:../lib/STM32F10x_StdPeriph_Driver/src/stm32f10x_tim.c ****   /* Check the parameters */
1121:../lib/STM32F10x_StdPeriph_Driver/src/stm32f10x_tim.c ****   assert_param(IS_TIM_LIST3_PERIPH(TIMx));
1122:../lib/STM32F10x_StdPeriph_Driver/src/stm32f10x_tim.c ****   assert_param(IS_TIM_EXT_PRESCALER(TIM_ExtTRGPrescaler));
1123:../lib/STM32F10x_StdPeriph_Driver/src/stm32f10x_tim.c ****   assert_param(IS_TIM_EXT_POLARITY(TIM_ExtTRGPolarity));
1124:../lib/STM32F10x_StdPeriph_Driver/src/stm32f10x_tim.c ****   assert_param(IS_TIM_EXT_FILTER(ExtTRGFilter));
1125:../lib/STM32F10x_StdPeriph_Driver/src/stm32f10x_tim.c ****   /* Configure the ETR Clock source */
1126:../lib/STM32F10x_StdPeriph_Driver/src/stm32f10x_tim.c ****   TIM_ETRConfig(TIMx, TIM_ExtTRGPrescaler, TIM_ExtTRGPolarity, ExtTRGFilter);
 2269              		.loc 1 1126 0
 2270 0d0a 7989     		ldrh	r1, [r7, #10]
 2271 0d0c 3A89     		ldrh	r2, [r7, #8]
 2272 0d0e FB88     		ldrh	r3, [r7, #6]
 2273 0d10 F868     		ldr	r0, [r7, #12]
 2274 0d12 FFF7FEFF 		bl	TIM_ETRConfig
1127:../lib/STM32F10x_StdPeriph_Driver/src/stm32f10x_tim.c ****   /* Enable the External clock mode2 */
1128:../lib/STM32F10x_StdPeriph_Driver/src/stm32f10x_tim.c ****   TIMx->SMCR |= TIM_SMCR_ECE;
 2275              		.loc 1 1128 0
 2276 0d16 FB68     		ldr	r3, [r7, #12]
 2277 0d18 1B89     		ldrh	r3, [r3, #8]	@ movhi
 2278 0d1a 9BB2     		uxth	r3, r3
 2279 0d1c 43F48043 		orr	r3, r3, #16384
 2280 0d20 9AB2     		uxth	r2, r3
 2281 0d22 FB68     		ldr	r3, [r7, #12]
 2282 0d24 1A81     		strh	r2, [r3, #8]	@ movhi
1129:../lib/STM32F10x_StdPeriph_Driver/src/stm32f10x_tim.c **** }
 2283              		.loc 1 1129 0
 2284 0d26 07F11007 		add	r7, r7, #16
 2285 0d2a BD46     		mov	sp, r7
 2286 0d2c 80BD     		pop	{r7, pc}
 2287              		.cfi_endproc
 2288              	.LFE52:
 2290 0d2e 00BF     		.align	2
 2291              		.global	TIM_ETRConfig
 2292              		.thumb
 2293              		.thumb_func
 2295              	TIM_ETRConfig:
 2296              	.LFB53:
1130:../lib/STM32F10x_StdPeriph_Driver/src/stm32f10x_tim.c **** 
1131:../lib/STM32F10x_StdPeriph_Driver/src/stm32f10x_tim.c **** /**
1132:../lib/STM32F10x_StdPeriph_Driver/src/stm32f10x_tim.c ****   * @brief  Configures the TIMx External Trigger (ETR).
1133:../lib/STM32F10x_StdPeriph_Driver/src/stm32f10x_tim.c ****   * @param  TIMx: where x can be  1, 2, 3, 4, 5 or 8 to select the TIM peripheral.
1134:../lib/STM32F10x_StdPeriph_Driver/src/stm32f10x_tim.c ****   * @param  TIM_ExtTRGPrescaler: The external Trigger Prescaler.
1135:../lib/STM32F10x_StdPeriph_Driver/src/stm32f10x_tim.c ****   *   This parameter can be one of the following values:
1136:../lib/STM32F10x_StdPeriph_Driver/src/stm32f10x_tim.c ****   *     @arg TIM_ExtTRGPSC_OFF: ETRP Prescaler OFF.
1137:../lib/STM32F10x_StdPeriph_Driver/src/stm32f10x_tim.c ****   *     @arg TIM_ExtTRGPSC_DIV2: ETRP frequency divided by 2.
1138:../lib/STM32F10x_StdPeriph_Driver/src/stm32f10x_tim.c ****   *     @arg TIM_ExtTRGPSC_DIV4: ETRP frequency divided by 4.
1139:../lib/STM32F10x_StdPeriph_Driver/src/stm32f10x_tim.c ****   *     @arg TIM_ExtTRGPSC_DIV8: ETRP frequency divided by 8.
1140:../lib/STM32F10x_StdPeriph_Driver/src/stm32f10x_tim.c ****   * @param  TIM_ExtTRGPolarity: The external Trigger Polarity.
1141:../lib/STM32F10x_StdPeriph_Driver/src/stm32f10x_tim.c ****   *   This parameter can be one of the following values:
1142:../lib/STM32F10x_StdPeriph_Driver/src/stm32f10x_tim.c ****   *     @arg TIM_ExtTRGPolarity_Inverted: active low or falling edge active.
1143:../lib/STM32F10x_StdPeriph_Driver/src/stm32f10x_tim.c ****   *     @arg TIM_ExtTRGPolarity_NonInverted: active high or rising edge active.
1144:../lib/STM32F10x_StdPeriph_Driver/src/stm32f10x_tim.c ****   * @param  ExtTRGFilter: External Trigger Filter.
1145:../lib/STM32F10x_StdPeriph_Driver/src/stm32f10x_tim.c ****   *   This parameter must be a value between 0x00 and 0x0F
1146:../lib/STM32F10x_StdPeriph_Driver/src/stm32f10x_tim.c ****   * @retval None
1147:../lib/STM32F10x_StdPeriph_Driver/src/stm32f10x_tim.c ****   */
1148:../lib/STM32F10x_StdPeriph_Driver/src/stm32f10x_tim.c **** void TIM_ETRConfig(TIM_TypeDef* TIMx, uint16_t TIM_ExtTRGPrescaler, uint16_t TIM_ExtTRGPolarity,
1149:../lib/STM32F10x_StdPeriph_Driver/src/stm32f10x_tim.c ****                    uint16_t ExtTRGFilter)
1150:../lib/STM32F10x_StdPeriph_Driver/src/stm32f10x_tim.c **** {
 2297              		.loc 1 1150 0
 2298              		.cfi_startproc
 2299              		@ args = 0, pretend = 0, frame = 24
 2300              		@ frame_needed = 1, uses_anonymous_args = 0
 2301              		@ link register save eliminated.
 2302 0d30 80B4     		push	{r7}
 2303              	.LCFI72:
 2304              		.cfi_def_cfa_offset 4
 2305              		.cfi_offset 7, -4
 2306 0d32 87B0     		sub	sp, sp, #28
 2307              	.LCFI73:
 2308              		.cfi_def_cfa_offset 32
 2309 0d34 00AF     		add	r7, sp, #0
 2310              	.LCFI74:
 2311              		.cfi_def_cfa_register 7
 2312 0d36 F860     		str	r0, [r7, #12]
 2313 0d38 7981     		strh	r1, [r7, #10]	@ movhi
 2314 0d3a 3A81     		strh	r2, [r7, #8]	@ movhi
 2315 0d3c FB80     		strh	r3, [r7, #6]	@ movhi
1151:../lib/STM32F10x_StdPeriph_Driver/src/stm32f10x_tim.c ****   uint16_t tmpsmcr = 0;
 2316              		.loc 1 1151 0
 2317 0d3e 4FF00003 		mov	r3, #0
 2318 0d42 FB82     		strh	r3, [r7, #22]	@ movhi
1152:../lib/STM32F10x_StdPeriph_Driver/src/stm32f10x_tim.c ****   /* Check the parameters */
1153:../lib/STM32F10x_StdPeriph_Driver/src/stm32f10x_tim.c ****   assert_param(IS_TIM_LIST3_PERIPH(TIMx));
1154:../lib/STM32F10x_StdPeriph_Driver/src/stm32f10x_tim.c ****   assert_param(IS_TIM_EXT_PRESCALER(TIM_ExtTRGPrescaler));
1155:../lib/STM32F10x_StdPeriph_Driver/src/stm32f10x_tim.c ****   assert_param(IS_TIM_EXT_POLARITY(TIM_ExtTRGPolarity));
1156:../lib/STM32F10x_StdPeriph_Driver/src/stm32f10x_tim.c ****   assert_param(IS_TIM_EXT_FILTER(ExtTRGFilter));
1157:../lib/STM32F10x_StdPeriph_Driver/src/stm32f10x_tim.c ****   tmpsmcr = TIMx->SMCR;
 2319              		.loc 1 1157 0
 2320 0d44 FB68     		ldr	r3, [r7, #12]
 2321 0d46 1B89     		ldrh	r3, [r3, #8]	@ movhi
 2322 0d48 FB82     		strh	r3, [r7, #22]	@ movhi
1158:../lib/STM32F10x_StdPeriph_Driver/src/stm32f10x_tim.c ****   /* Reset the ETR Bits */
1159:../lib/STM32F10x_StdPeriph_Driver/src/stm32f10x_tim.c ****   tmpsmcr &= SMCR_ETR_Mask;
 2323              		.loc 1 1159 0
 2324 0d4a FB8A     		ldrh	r3, [r7, #22]	@ movhi
 2325 0d4c DBB2     		uxtb	r3, r3
 2326 0d4e FB82     		strh	r3, [r7, #22]	@ movhi
1160:../lib/STM32F10x_StdPeriph_Driver/src/stm32f10x_tim.c ****   /* Set the Prescaler, the Filter value and the Polarity */
1161:../lib/STM32F10x_StdPeriph_Driver/src/stm32f10x_tim.c ****   tmpsmcr |= (uint16_t)(TIM_ExtTRGPrescaler | (uint16_t)(TIM_ExtTRGPolarity | (uint16_t)(ExtTRGFilt
 2327              		.loc 1 1161 0
 2328 0d50 FB88     		ldrh	r3, [r7, #6]	@ movhi
 2329 0d52 4FEA0323 		lsl	r3, r3, #8
 2330 0d56 9AB2     		uxth	r2, r3
 2331 0d58 3B89     		ldrh	r3, [r7, #8]	@ movhi
 2332 0d5a 1343     		orrs	r3, r3, r2
 2333 0d5c 9AB2     		uxth	r2, r3
 2334 0d5e 7B89     		ldrh	r3, [r7, #10]	@ movhi
 2335 0d60 1343     		orrs	r3, r3, r2
 2336 0d62 9AB2     		uxth	r2, r3
 2337 0d64 FB8A     		ldrh	r3, [r7, #22]	@ movhi
 2338 0d66 1343     		orrs	r3, r3, r2
 2339 0d68 FB82     		strh	r3, [r7, #22]	@ movhi
1162:../lib/STM32F10x_StdPeriph_Driver/src/stm32f10x_tim.c ****   /* Write to TIMx SMCR */
1163:../lib/STM32F10x_StdPeriph_Driver/src/stm32f10x_tim.c ****   TIMx->SMCR = tmpsmcr;
 2340              		.loc 1 1163 0
 2341 0d6a FB68     		ldr	r3, [r7, #12]
 2342 0d6c FA8A     		ldrh	r2, [r7, #22]	@ movhi
 2343 0d6e 1A81     		strh	r2, [r3, #8]	@ movhi
1164:../lib/STM32F10x_StdPeriph_Driver/src/stm32f10x_tim.c **** }
 2344              		.loc 1 1164 0
 2345 0d70 07F11C07 		add	r7, r7, #28
 2346 0d74 BD46     		mov	sp, r7
 2347 0d76 80BC     		pop	{r7}
 2348 0d78 7047     		bx	lr
 2349              		.cfi_endproc
 2350              	.LFE53:
 2352 0d7a 00BF     		.align	2
 2353              		.global	TIM_PrescalerConfig
 2354              		.thumb
 2355              		.thumb_func
 2357              	TIM_PrescalerConfig:
 2358              	.LFB54:
1165:../lib/STM32F10x_StdPeriph_Driver/src/stm32f10x_tim.c **** 
1166:../lib/STM32F10x_StdPeriph_Driver/src/stm32f10x_tim.c **** /**
1167:../lib/STM32F10x_StdPeriph_Driver/src/stm32f10x_tim.c ****   * @brief  Configures the TIMx Prescaler.
1168:../lib/STM32F10x_StdPeriph_Driver/src/stm32f10x_tim.c ****   * @param  TIMx: where x can be 1 to 17 to select the TIM peripheral.
1169:../lib/STM32F10x_StdPeriph_Driver/src/stm32f10x_tim.c ****   * @param  Prescaler: specifies the Prescaler Register value
1170:../lib/STM32F10x_StdPeriph_Driver/src/stm32f10x_tim.c ****   * @param  TIM_PSCReloadMode: specifies the TIM Prescaler Reload mode
1171:../lib/STM32F10x_StdPeriph_Driver/src/stm32f10x_tim.c ****   *   This parameter can be one of the following values:
1172:../lib/STM32F10x_StdPeriph_Driver/src/stm32f10x_tim.c ****   *     @arg TIM_PSCReloadMode_Update: The Prescaler is loaded at the update event.
1173:../lib/STM32F10x_StdPeriph_Driver/src/stm32f10x_tim.c ****   *     @arg TIM_PSCReloadMode_Immediate: The Prescaler is loaded immediately.
1174:../lib/STM32F10x_StdPeriph_Driver/src/stm32f10x_tim.c ****   * @retval None
1175:../lib/STM32F10x_StdPeriph_Driver/src/stm32f10x_tim.c ****   */
1176:../lib/STM32F10x_StdPeriph_Driver/src/stm32f10x_tim.c **** void TIM_PrescalerConfig(TIM_TypeDef* TIMx, uint16_t Prescaler, uint16_t TIM_PSCReloadMode)
1177:../lib/STM32F10x_StdPeriph_Driver/src/stm32f10x_tim.c **** {
 2359              		.loc 1 1177 0
 2360              		.cfi_startproc
 2361              		@ args = 0, pretend = 0, frame = 8
 2362              		@ frame_needed = 1, uses_anonymous_args = 0
 2363              		@ link register save eliminated.
 2364 0d7c 80B4     		push	{r7}
 2365              	.LCFI75:
 2366              		.cfi_def_cfa_offset 4
 2367              		.cfi_offset 7, -4
 2368 0d7e 83B0     		sub	sp, sp, #12
 2369              	.LCFI76:
 2370              		.cfi_def_cfa_offset 16
 2371 0d80 00AF     		add	r7, sp, #0
 2372              	.LCFI77:
 2373              		.cfi_def_cfa_register 7
 2374 0d82 7860     		str	r0, [r7, #4]
 2375 0d84 1346     		mov	r3, r2
 2376 0d86 0A46     		mov	r2, r1	@ movhi
 2377 0d88 7A80     		strh	r2, [r7, #2]	@ movhi
 2378 0d8a 3B80     		strh	r3, [r7, #0]	@ movhi
1178:../lib/STM32F10x_StdPeriph_Driver/src/stm32f10x_tim.c ****   /* Check the parameters */
1179:../lib/STM32F10x_StdPeriph_Driver/src/stm32f10x_tim.c ****   assert_param(IS_TIM_ALL_PERIPH(TIMx));
1180:../lib/STM32F10x_StdPeriph_Driver/src/stm32f10x_tim.c ****   assert_param(IS_TIM_PRESCALER_RELOAD(TIM_PSCReloadMode));
1181:../lib/STM32F10x_StdPeriph_Driver/src/stm32f10x_tim.c ****   /* Set the Prescaler value */
1182:../lib/STM32F10x_StdPeriph_Driver/src/stm32f10x_tim.c ****   TIMx->PSC = Prescaler;
 2379              		.loc 1 1182 0
 2380 0d8c 7B68     		ldr	r3, [r7, #4]
 2381 0d8e 7A88     		ldrh	r2, [r7, #2]	@ movhi
 2382 0d90 1A85     		strh	r2, [r3, #40]	@ movhi
1183:../lib/STM32F10x_StdPeriph_Driver/src/stm32f10x_tim.c ****   /* Set or reset the UG Bit */
1184:../lib/STM32F10x_StdPeriph_Driver/src/stm32f10x_tim.c ****   TIMx->EGR = TIM_PSCReloadMode;
 2383              		.loc 1 1184 0
 2384 0d92 7B68     		ldr	r3, [r7, #4]
 2385 0d94 3A88     		ldrh	r2, [r7, #0]	@ movhi
 2386 0d96 9A82     		strh	r2, [r3, #20]	@ movhi
1185:../lib/STM32F10x_StdPeriph_Driver/src/stm32f10x_tim.c **** }
 2387              		.loc 1 1185 0
 2388 0d98 07F10C07 		add	r7, r7, #12
 2389 0d9c BD46     		mov	sp, r7
 2390 0d9e 80BC     		pop	{r7}
 2391 0da0 7047     		bx	lr
 2392              		.cfi_endproc
 2393              	.LFE54:
 2395 0da2 00BF     		.align	2
 2396              		.global	TIM_CounterModeConfig
 2397              		.thumb
 2398              		.thumb_func
 2400              	TIM_CounterModeConfig:
 2401              	.LFB55:
1186:../lib/STM32F10x_StdPeriph_Driver/src/stm32f10x_tim.c **** 
1187:../lib/STM32F10x_StdPeriph_Driver/src/stm32f10x_tim.c **** /**
1188:../lib/STM32F10x_StdPeriph_Driver/src/stm32f10x_tim.c ****   * @brief  Specifies the TIMx Counter Mode to be used.
1189:../lib/STM32F10x_StdPeriph_Driver/src/stm32f10x_tim.c ****   * @param  TIMx: where x can be  1, 2, 3, 4, 5 or 8 to select the TIM peripheral.
1190:../lib/STM32F10x_StdPeriph_Driver/src/stm32f10x_tim.c ****   * @param  TIM_CounterMode: specifies the Counter Mode to be used
1191:../lib/STM32F10x_StdPeriph_Driver/src/stm32f10x_tim.c ****   *   This parameter can be one of the following values:
1192:../lib/STM32F10x_StdPeriph_Driver/src/stm32f10x_tim.c ****   *     @arg TIM_CounterMode_Up: TIM Up Counting Mode
1193:../lib/STM32F10x_StdPeriph_Driver/src/stm32f10x_tim.c ****   *     @arg TIM_CounterMode_Down: TIM Down Counting Mode
1194:../lib/STM32F10x_StdPeriph_Driver/src/stm32f10x_tim.c ****   *     @arg TIM_CounterMode_CenterAligned1: TIM Center Aligned Mode1
1195:../lib/STM32F10x_StdPeriph_Driver/src/stm32f10x_tim.c ****   *     @arg TIM_CounterMode_CenterAligned2: TIM Center Aligned Mode2
1196:../lib/STM32F10x_StdPeriph_Driver/src/stm32f10x_tim.c ****   *     @arg TIM_CounterMode_CenterAligned3: TIM Center Aligned Mode3
1197:../lib/STM32F10x_StdPeriph_Driver/src/stm32f10x_tim.c ****   * @retval None
1198:../lib/STM32F10x_StdPeriph_Driver/src/stm32f10x_tim.c ****   */
1199:../lib/STM32F10x_StdPeriph_Driver/src/stm32f10x_tim.c **** void TIM_CounterModeConfig(TIM_TypeDef* TIMx, uint16_t TIM_CounterMode)
1200:../lib/STM32F10x_StdPeriph_Driver/src/stm32f10x_tim.c **** {
 2402              		.loc 1 1200 0
 2403              		.cfi_startproc
 2404              		@ args = 0, pretend = 0, frame = 16
 2405              		@ frame_needed = 1, uses_anonymous_args = 0
 2406              		@ link register save eliminated.
 2407 0da4 80B4     		push	{r7}
 2408              	.LCFI78:
 2409              		.cfi_def_cfa_offset 4
 2410              		.cfi_offset 7, -4
 2411 0da6 85B0     		sub	sp, sp, #20
 2412              	.LCFI79:
 2413              		.cfi_def_cfa_offset 24
 2414 0da8 00AF     		add	r7, sp, #0
 2415              	.LCFI80:
 2416              		.cfi_def_cfa_register 7
 2417 0daa 7860     		str	r0, [r7, #4]
 2418 0dac 0B46     		mov	r3, r1
 2419 0dae 7B80     		strh	r3, [r7, #2]	@ movhi
1201:../lib/STM32F10x_StdPeriph_Driver/src/stm32f10x_tim.c ****   uint16_t tmpcr1 = 0;
 2420              		.loc 1 1201 0
 2421 0db0 4FF00003 		mov	r3, #0
 2422 0db4 FB81     		strh	r3, [r7, #14]	@ movhi
1202:../lib/STM32F10x_StdPeriph_Driver/src/stm32f10x_tim.c ****   /* Check the parameters */
1203:../lib/STM32F10x_StdPeriph_Driver/src/stm32f10x_tim.c ****   assert_param(IS_TIM_LIST3_PERIPH(TIMx));
1204:../lib/STM32F10x_StdPeriph_Driver/src/stm32f10x_tim.c ****   assert_param(IS_TIM_COUNTER_MODE(TIM_CounterMode));
1205:../lib/STM32F10x_StdPeriph_Driver/src/stm32f10x_tim.c ****   tmpcr1 = TIMx->CR1;
 2423              		.loc 1 1205 0
 2424 0db6 7B68     		ldr	r3, [r7, #4]
 2425 0db8 1B88     		ldrh	r3, [r3, #0]	@ movhi
 2426 0dba FB81     		strh	r3, [r7, #14]	@ movhi
1206:../lib/STM32F10x_StdPeriph_Driver/src/stm32f10x_tim.c ****   /* Reset the CMS and DIR Bits */
1207:../lib/STM32F10x_StdPeriph_Driver/src/stm32f10x_tim.c ****   tmpcr1 &= (uint16_t)(~((uint16_t)(TIM_CR1_DIR | TIM_CR1_CMS)));
 2427              		.loc 1 1207 0
 2428 0dbc FB89     		ldrh	r3, [r7, #14]	@ movhi
 2429 0dbe 23F07003 		bic	r3, r3, #112
 2430 0dc2 FB81     		strh	r3, [r7, #14]	@ movhi
1208:../lib/STM32F10x_StdPeriph_Driver/src/stm32f10x_tim.c ****   /* Set the Counter Mode */
1209:../lib/STM32F10x_StdPeriph_Driver/src/stm32f10x_tim.c ****   tmpcr1 |= TIM_CounterMode;
 2431              		.loc 1 1209 0
 2432 0dc4 FA89     		ldrh	r2, [r7, #14]	@ movhi
 2433 0dc6 7B88     		ldrh	r3, [r7, #2]	@ movhi
 2434 0dc8 1343     		orrs	r3, r3, r2
 2435 0dca FB81     		strh	r3, [r7, #14]	@ movhi
1210:../lib/STM32F10x_StdPeriph_Driver/src/stm32f10x_tim.c ****   /* Write to TIMx CR1 register */
1211:../lib/STM32F10x_StdPeriph_Driver/src/stm32f10x_tim.c ****   TIMx->CR1 = tmpcr1;
 2436              		.loc 1 1211 0
 2437 0dcc 7B68     		ldr	r3, [r7, #4]
 2438 0dce FA89     		ldrh	r2, [r7, #14]	@ movhi
 2439 0dd0 1A80     		strh	r2, [r3, #0]	@ movhi
1212:../lib/STM32F10x_StdPeriph_Driver/src/stm32f10x_tim.c **** }
 2440              		.loc 1 1212 0
 2441 0dd2 07F11407 		add	r7, r7, #20
 2442 0dd6 BD46     		mov	sp, r7
 2443 0dd8 80BC     		pop	{r7}
 2444 0dda 7047     		bx	lr
 2445              		.cfi_endproc
 2446              	.LFE55:
 2448              		.align	2
 2449              		.global	TIM_SelectInputTrigger
 2450              		.thumb
 2451              		.thumb_func
 2453              	TIM_SelectInputTrigger:
 2454              	.LFB56:
1213:../lib/STM32F10x_StdPeriph_Driver/src/stm32f10x_tim.c **** 
1214:../lib/STM32F10x_StdPeriph_Driver/src/stm32f10x_tim.c **** /**
1215:../lib/STM32F10x_StdPeriph_Driver/src/stm32f10x_tim.c ****   * @brief  Selects the Input Trigger source
1216:../lib/STM32F10x_StdPeriph_Driver/src/stm32f10x_tim.c ****   * @param  TIMx: where x can be  1, 2, 3, 4, 5, 8, 9, 12 or 15 to select the TIM peripheral.
1217:../lib/STM32F10x_StdPeriph_Driver/src/stm32f10x_tim.c ****   * @param  TIM_InputTriggerSource: The Input Trigger source.
1218:../lib/STM32F10x_StdPeriph_Driver/src/stm32f10x_tim.c ****   *   This parameter can be one of the following values:
1219:../lib/STM32F10x_StdPeriph_Driver/src/stm32f10x_tim.c ****   *     @arg TIM_TS_ITR0: Internal Trigger 0
1220:../lib/STM32F10x_StdPeriph_Driver/src/stm32f10x_tim.c ****   *     @arg TIM_TS_ITR1: Internal Trigger 1
1221:../lib/STM32F10x_StdPeriph_Driver/src/stm32f10x_tim.c ****   *     @arg TIM_TS_ITR2: Internal Trigger 2
1222:../lib/STM32F10x_StdPeriph_Driver/src/stm32f10x_tim.c ****   *     @arg TIM_TS_ITR3: Internal Trigger 3
1223:../lib/STM32F10x_StdPeriph_Driver/src/stm32f10x_tim.c ****   *     @arg TIM_TS_TI1F_ED: TI1 Edge Detector
1224:../lib/STM32F10x_StdPeriph_Driver/src/stm32f10x_tim.c ****   *     @arg TIM_TS_TI1FP1: Filtered Timer Input 1
1225:../lib/STM32F10x_StdPeriph_Driver/src/stm32f10x_tim.c ****   *     @arg TIM_TS_TI2FP2: Filtered Timer Input 2
1226:../lib/STM32F10x_StdPeriph_Driver/src/stm32f10x_tim.c ****   *     @arg TIM_TS_ETRF: External Trigger input
1227:../lib/STM32F10x_StdPeriph_Driver/src/stm32f10x_tim.c ****   * @retval None
1228:../lib/STM32F10x_StdPeriph_Driver/src/stm32f10x_tim.c ****   */
1229:../lib/STM32F10x_StdPeriph_Driver/src/stm32f10x_tim.c **** void TIM_SelectInputTrigger(TIM_TypeDef* TIMx, uint16_t TIM_InputTriggerSource)
1230:../lib/STM32F10x_StdPeriph_Driver/src/stm32f10x_tim.c **** {
 2455              		.loc 1 1230 0
 2456              		.cfi_startproc
 2457              		@ args = 0, pretend = 0, frame = 16
 2458              		@ frame_needed = 1, uses_anonymous_args = 0
 2459              		@ link register save eliminated.
 2460 0ddc 80B4     		push	{r7}
 2461              	.LCFI81:
 2462              		.cfi_def_cfa_offset 4
 2463              		.cfi_offset 7, -4
 2464 0dde 85B0     		sub	sp, sp, #20
 2465              	.LCFI82:
 2466              		.cfi_def_cfa_offset 24
 2467 0de0 00AF     		add	r7, sp, #0
 2468              	.LCFI83:
 2469              		.cfi_def_cfa_register 7
 2470 0de2 7860     		str	r0, [r7, #4]
 2471 0de4 0B46     		mov	r3, r1
 2472 0de6 7B80     		strh	r3, [r7, #2]	@ movhi
1231:../lib/STM32F10x_StdPeriph_Driver/src/stm32f10x_tim.c ****   uint16_t tmpsmcr = 0;
 2473              		.loc 1 1231 0
 2474 0de8 4FF00003 		mov	r3, #0
 2475 0dec FB81     		strh	r3, [r7, #14]	@ movhi
1232:../lib/STM32F10x_StdPeriph_Driver/src/stm32f10x_tim.c ****   /* Check the parameters */
1233:../lib/STM32F10x_StdPeriph_Driver/src/stm32f10x_tim.c ****   assert_param(IS_TIM_LIST6_PERIPH(TIMx));
1234:../lib/STM32F10x_StdPeriph_Driver/src/stm32f10x_tim.c ****   assert_param(IS_TIM_TRIGGER_SELECTION(TIM_InputTriggerSource));
1235:../lib/STM32F10x_StdPeriph_Driver/src/stm32f10x_tim.c ****   /* Get the TIMx SMCR register value */
1236:../lib/STM32F10x_StdPeriph_Driver/src/stm32f10x_tim.c ****   tmpsmcr = TIMx->SMCR;
 2476              		.loc 1 1236 0
 2477 0dee 7B68     		ldr	r3, [r7, #4]
 2478 0df0 1B89     		ldrh	r3, [r3, #8]	@ movhi
 2479 0df2 FB81     		strh	r3, [r7, #14]	@ movhi
1237:../lib/STM32F10x_StdPeriph_Driver/src/stm32f10x_tim.c ****   /* Reset the TS Bits */
1238:../lib/STM32F10x_StdPeriph_Driver/src/stm32f10x_tim.c ****   tmpsmcr &= (uint16_t)(~((uint16_t)TIM_SMCR_TS));
 2480              		.loc 1 1238 0
 2481 0df4 FB89     		ldrh	r3, [r7, #14]	@ movhi
 2482 0df6 23F07003 		bic	r3, r3, #112
 2483 0dfa FB81     		strh	r3, [r7, #14]	@ movhi
1239:../lib/STM32F10x_StdPeriph_Driver/src/stm32f10x_tim.c ****   /* Set the Input Trigger source */
1240:../lib/STM32F10x_StdPeriph_Driver/src/stm32f10x_tim.c ****   tmpsmcr |= TIM_InputTriggerSource;
 2484              		.loc 1 1240 0
 2485 0dfc FA89     		ldrh	r2, [r7, #14]	@ movhi
 2486 0dfe 7B88     		ldrh	r3, [r7, #2]	@ movhi
 2487 0e00 1343     		orrs	r3, r3, r2
 2488 0e02 FB81     		strh	r3, [r7, #14]	@ movhi
1241:../lib/STM32F10x_StdPeriph_Driver/src/stm32f10x_tim.c ****   /* Write to TIMx SMCR */
1242:../lib/STM32F10x_StdPeriph_Driver/src/stm32f10x_tim.c ****   TIMx->SMCR = tmpsmcr;
 2489              		.loc 1 1242 0
 2490 0e04 7B68     		ldr	r3, [r7, #4]
 2491 0e06 FA89     		ldrh	r2, [r7, #14]	@ movhi
 2492 0e08 1A81     		strh	r2, [r3, #8]	@ movhi
1243:../lib/STM32F10x_StdPeriph_Driver/src/stm32f10x_tim.c **** }
 2493              		.loc 1 1243 0
 2494 0e0a 07F11407 		add	r7, r7, #20
 2495 0e0e BD46     		mov	sp, r7
 2496 0e10 80BC     		pop	{r7}
 2497 0e12 7047     		bx	lr
 2498              		.cfi_endproc
 2499              	.LFE56:
 2501              		.align	2
 2502              		.global	TIM_EncoderInterfaceConfig
 2503              		.thumb
 2504              		.thumb_func
 2506              	TIM_EncoderInterfaceConfig:
 2507              	.LFB57:
1244:../lib/STM32F10x_StdPeriph_Driver/src/stm32f10x_tim.c **** 
1245:../lib/STM32F10x_StdPeriph_Driver/src/stm32f10x_tim.c **** /**
1246:../lib/STM32F10x_StdPeriph_Driver/src/stm32f10x_tim.c ****   * @brief  Configures the TIMx Encoder Interface.
1247:../lib/STM32F10x_StdPeriph_Driver/src/stm32f10x_tim.c ****   * @param  TIMx: where x can be  1, 2, 3, 4, 5 or 8 to select the TIM peripheral.
1248:../lib/STM32F10x_StdPeriph_Driver/src/stm32f10x_tim.c ****   * @param  TIM_EncoderMode: specifies the TIMx Encoder Mode.
1249:../lib/STM32F10x_StdPeriph_Driver/src/stm32f10x_tim.c ****   *   This parameter can be one of the following values:
1250:../lib/STM32F10x_StdPeriph_Driver/src/stm32f10x_tim.c ****   *     @arg TIM_EncoderMode_TI1: Counter counts on TI1FP1 edge depending on TI2FP2 level.
1251:../lib/STM32F10x_StdPeriph_Driver/src/stm32f10x_tim.c ****   *     @arg TIM_EncoderMode_TI2: Counter counts on TI2FP2 edge depending on TI1FP1 level.
1252:../lib/STM32F10x_StdPeriph_Driver/src/stm32f10x_tim.c ****   *     @arg TIM_EncoderMode_TI12: Counter counts on both TI1FP1 and TI2FP2 edges depending
1253:../lib/STM32F10x_StdPeriph_Driver/src/stm32f10x_tim.c ****   *                                on the level of the other input.
1254:../lib/STM32F10x_StdPeriph_Driver/src/stm32f10x_tim.c ****   * @param  TIM_IC1Polarity: specifies the IC1 Polarity
1255:../lib/STM32F10x_StdPeriph_Driver/src/stm32f10x_tim.c ****   *   This parameter can be one of the following values:
1256:../lib/STM32F10x_StdPeriph_Driver/src/stm32f10x_tim.c ****   *     @arg TIM_ICPolarity_Falling: IC Falling edge.
1257:../lib/STM32F10x_StdPeriph_Driver/src/stm32f10x_tim.c ****   *     @arg TIM_ICPolarity_Rising: IC Rising edge.
1258:../lib/STM32F10x_StdPeriph_Driver/src/stm32f10x_tim.c ****   * @param  TIM_IC2Polarity: specifies the IC2 Polarity
1259:../lib/STM32F10x_StdPeriph_Driver/src/stm32f10x_tim.c ****   *   This parameter can be one of the following values:
1260:../lib/STM32F10x_StdPeriph_Driver/src/stm32f10x_tim.c ****   *     @arg TIM_ICPolarity_Falling: IC Falling edge.
1261:../lib/STM32F10x_StdPeriph_Driver/src/stm32f10x_tim.c ****   *     @arg TIM_ICPolarity_Rising: IC Rising edge.
1262:../lib/STM32F10x_StdPeriph_Driver/src/stm32f10x_tim.c ****   * @retval None
1263:../lib/STM32F10x_StdPeriph_Driver/src/stm32f10x_tim.c ****   */
1264:../lib/STM32F10x_StdPeriph_Driver/src/stm32f10x_tim.c **** void TIM_EncoderInterfaceConfig(TIM_TypeDef* TIMx, uint16_t TIM_EncoderMode,
1265:../lib/STM32F10x_StdPeriph_Driver/src/stm32f10x_tim.c ****                                 uint16_t TIM_IC1Polarity, uint16_t TIM_IC2Polarity)
1266:../lib/STM32F10x_StdPeriph_Driver/src/stm32f10x_tim.c **** {
 2508              		.loc 1 1266 0
 2509              		.cfi_startproc
 2510              		@ args = 0, pretend = 0, frame = 24
 2511              		@ frame_needed = 1, uses_anonymous_args = 0
 2512              		@ link register save eliminated.
 2513 0e14 80B4     		push	{r7}
 2514              	.LCFI84:
 2515              		.cfi_def_cfa_offset 4
 2516              		.cfi_offset 7, -4
 2517 0e16 87B0     		sub	sp, sp, #28
 2518              	.LCFI85:
 2519              		.cfi_def_cfa_offset 32
 2520 0e18 00AF     		add	r7, sp, #0
 2521              	.LCFI86:
 2522              		.cfi_def_cfa_register 7
 2523 0e1a F860     		str	r0, [r7, #12]
 2524 0e1c 7981     		strh	r1, [r7, #10]	@ movhi
 2525 0e1e 3A81     		strh	r2, [r7, #8]	@ movhi
 2526 0e20 FB80     		strh	r3, [r7, #6]	@ movhi
1267:../lib/STM32F10x_StdPeriph_Driver/src/stm32f10x_tim.c ****   uint16_t tmpsmcr = 0;
 2527              		.loc 1 1267 0
 2528 0e22 4FF00003 		mov	r3, #0
 2529 0e26 FB82     		strh	r3, [r7, #22]	@ movhi
1268:../lib/STM32F10x_StdPeriph_Driver/src/stm32f10x_tim.c ****   uint16_t tmpccmr1 = 0;
 2530              		.loc 1 1268 0
 2531 0e28 4FF00003 		mov	r3, #0
 2532 0e2c BB82     		strh	r3, [r7, #20]	@ movhi
1269:../lib/STM32F10x_StdPeriph_Driver/src/stm32f10x_tim.c ****   uint16_t tmpccer = 0;
 2533              		.loc 1 1269 0
 2534 0e2e 4FF00003 		mov	r3, #0
 2535 0e32 7B82     		strh	r3, [r7, #18]	@ movhi
1270:../lib/STM32F10x_StdPeriph_Driver/src/stm32f10x_tim.c ****     
1271:../lib/STM32F10x_StdPeriph_Driver/src/stm32f10x_tim.c ****   /* Check the parameters */
1272:../lib/STM32F10x_StdPeriph_Driver/src/stm32f10x_tim.c ****   assert_param(IS_TIM_LIST5_PERIPH(TIMx));
1273:../lib/STM32F10x_StdPeriph_Driver/src/stm32f10x_tim.c ****   assert_param(IS_TIM_ENCODER_MODE(TIM_EncoderMode));
1274:../lib/STM32F10x_StdPeriph_Driver/src/stm32f10x_tim.c ****   assert_param(IS_TIM_IC_POLARITY(TIM_IC1Polarity));
1275:../lib/STM32F10x_StdPeriph_Driver/src/stm32f10x_tim.c ****   assert_param(IS_TIM_IC_POLARITY(TIM_IC2Polarity));
1276:../lib/STM32F10x_StdPeriph_Driver/src/stm32f10x_tim.c **** 
1277:../lib/STM32F10x_StdPeriph_Driver/src/stm32f10x_tim.c ****   /* Get the TIMx SMCR register value */
1278:../lib/STM32F10x_StdPeriph_Driver/src/stm32f10x_tim.c ****   tmpsmcr = TIMx->SMCR;
 2536              		.loc 1 1278 0
 2537 0e34 FB68     		ldr	r3, [r7, #12]
 2538 0e36 1B89     		ldrh	r3, [r3, #8]	@ movhi
 2539 0e38 FB82     		strh	r3, [r7, #22]	@ movhi
1279:../lib/STM32F10x_StdPeriph_Driver/src/stm32f10x_tim.c ****   
1280:../lib/STM32F10x_StdPeriph_Driver/src/stm32f10x_tim.c ****   /* Get the TIMx CCMR1 register value */
1281:../lib/STM32F10x_StdPeriph_Driver/src/stm32f10x_tim.c ****   tmpccmr1 = TIMx->CCMR1;
 2540              		.loc 1 1281 0
 2541 0e3a FB68     		ldr	r3, [r7, #12]
 2542 0e3c 1B8B     		ldrh	r3, [r3, #24]	@ movhi
 2543 0e3e BB82     		strh	r3, [r7, #20]	@ movhi
1282:../lib/STM32F10x_StdPeriph_Driver/src/stm32f10x_tim.c ****   
1283:../lib/STM32F10x_StdPeriph_Driver/src/stm32f10x_tim.c ****   /* Get the TIMx CCER register value */
1284:../lib/STM32F10x_StdPeriph_Driver/src/stm32f10x_tim.c ****   tmpccer = TIMx->CCER;
 2544              		.loc 1 1284 0
 2545 0e40 FB68     		ldr	r3, [r7, #12]
 2546 0e42 1B8C     		ldrh	r3, [r3, #32]	@ movhi
 2547 0e44 7B82     		strh	r3, [r7, #18]	@ movhi
1285:../lib/STM32F10x_StdPeriph_Driver/src/stm32f10x_tim.c ****   
1286:../lib/STM32F10x_StdPeriph_Driver/src/stm32f10x_tim.c ****   /* Set the encoder Mode */
1287:../lib/STM32F10x_StdPeriph_Driver/src/stm32f10x_tim.c ****   tmpsmcr &= (uint16_t)(~((uint16_t)TIM_SMCR_SMS));
 2548              		.loc 1 1287 0
 2549 0e46 FB8A     		ldrh	r3, [r7, #22]	@ movhi
 2550 0e48 23F00703 		bic	r3, r3, #7
 2551 0e4c FB82     		strh	r3, [r7, #22]	@ movhi
1288:../lib/STM32F10x_StdPeriph_Driver/src/stm32f10x_tim.c ****   tmpsmcr |= TIM_EncoderMode;
 2552              		.loc 1 1288 0
 2553 0e4e FA8A     		ldrh	r2, [r7, #22]	@ movhi
 2554 0e50 7B89     		ldrh	r3, [r7, #10]	@ movhi
 2555 0e52 1343     		orrs	r3, r3, r2
 2556 0e54 FB82     		strh	r3, [r7, #22]	@ movhi
1289:../lib/STM32F10x_StdPeriph_Driver/src/stm32f10x_tim.c ****   
1290:../lib/STM32F10x_StdPeriph_Driver/src/stm32f10x_tim.c ****   /* Select the Capture Compare 1 and the Capture Compare 2 as input */
1291:../lib/STM32F10x_StdPeriph_Driver/src/stm32f10x_tim.c ****   tmpccmr1 &= (uint16_t)(((uint16_t)~((uint16_t)TIM_CCMR1_CC1S)) & (uint16_t)(~((uint16_t)TIM_CCMR1
 2557              		.loc 1 1291 0
 2558 0e56 BB8A     		ldrh	r3, [r7, #20]	@ movhi
 2559 0e58 23F44073 		bic	r3, r3, #768
 2560 0e5c 23F00303 		bic	r3, r3, #3
 2561 0e60 BB82     		strh	r3, [r7, #20]	@ movhi
1292:../lib/STM32F10x_StdPeriph_Driver/src/stm32f10x_tim.c ****   tmpccmr1 |= TIM_CCMR1_CC1S_0 | TIM_CCMR1_CC2S_0;
 2562              		.loc 1 1292 0
 2563 0e62 BB8A     		ldrh	r3, [r7, #20]	@ movhi
 2564 0e64 43F48073 		orr	r3, r3, #256
 2565 0e68 43F00103 		orr	r3, r3, #1
 2566 0e6c BB82     		strh	r3, [r7, #20]	@ movhi
1293:../lib/STM32F10x_StdPeriph_Driver/src/stm32f10x_tim.c ****   
1294:../lib/STM32F10x_StdPeriph_Driver/src/stm32f10x_tim.c ****   /* Set the TI1 and the TI2 Polarities */
1295:../lib/STM32F10x_StdPeriph_Driver/src/stm32f10x_tim.c ****   tmpccer &= (uint16_t)(((uint16_t)~((uint16_t)TIM_CCER_CC1P)) & ((uint16_t)~((uint16_t)TIM_CCER_CC
 2567              		.loc 1 1295 0
 2568 0e6e 7B8A     		ldrh	r3, [r7, #18]	@ movhi
 2569 0e70 23F02203 		bic	r3, r3, #34
 2570 0e74 7B82     		strh	r3, [r7, #18]	@ movhi
1296:../lib/STM32F10x_StdPeriph_Driver/src/stm32f10x_tim.c ****   tmpccer |= (uint16_t)(TIM_IC1Polarity | (uint16_t)(TIM_IC2Polarity << (uint16_t)4));
 2571              		.loc 1 1296 0
 2572 0e76 FB88     		ldrh	r3, [r7, #6]	@ movhi
 2573 0e78 4FEA0313 		lsl	r3, r3, #4
 2574 0e7c 9AB2     		uxth	r2, r3
 2575 0e7e 3B89     		ldrh	r3, [r7, #8]	@ movhi
 2576 0e80 1343     		orrs	r3, r3, r2
 2577 0e82 9AB2     		uxth	r2, r3
 2578 0e84 7B8A     		ldrh	r3, [r7, #18]	@ movhi
 2579 0e86 1343     		orrs	r3, r3, r2
 2580 0e88 7B82     		strh	r3, [r7, #18]	@ movhi
1297:../lib/STM32F10x_StdPeriph_Driver/src/stm32f10x_tim.c ****   
1298:../lib/STM32F10x_StdPeriph_Driver/src/stm32f10x_tim.c ****   /* Write to TIMx SMCR */
1299:../lib/STM32F10x_StdPeriph_Driver/src/stm32f10x_tim.c ****   TIMx->SMCR = tmpsmcr;
 2581              		.loc 1 1299 0
 2582 0e8a FB68     		ldr	r3, [r7, #12]
 2583 0e8c FA8A     		ldrh	r2, [r7, #22]	@ movhi
 2584 0e8e 1A81     		strh	r2, [r3, #8]	@ movhi
1300:../lib/STM32F10x_StdPeriph_Driver/src/stm32f10x_tim.c ****   /* Write to TIMx CCMR1 */
1301:../lib/STM32F10x_StdPeriph_Driver/src/stm32f10x_tim.c ****   TIMx->CCMR1 = tmpccmr1;
 2585              		.loc 1 1301 0
 2586 0e90 FB68     		ldr	r3, [r7, #12]
 2587 0e92 BA8A     		ldrh	r2, [r7, #20]	@ movhi
 2588 0e94 1A83     		strh	r2, [r3, #24]	@ movhi
1302:../lib/STM32F10x_StdPeriph_Driver/src/stm32f10x_tim.c ****   /* Write to TIMx CCER */
1303:../lib/STM32F10x_StdPeriph_Driver/src/stm32f10x_tim.c ****   TIMx->CCER = tmpccer;
 2589              		.loc 1 1303 0
 2590 0e96 FB68     		ldr	r3, [r7, #12]
 2591 0e98 7A8A     		ldrh	r2, [r7, #18]	@ movhi
 2592 0e9a 1A84     		strh	r2, [r3, #32]	@ movhi
1304:../lib/STM32F10x_StdPeriph_Driver/src/stm32f10x_tim.c **** }
 2593              		.loc 1 1304 0
 2594 0e9c 07F11C07 		add	r7, r7, #28
 2595 0ea0 BD46     		mov	sp, r7
 2596 0ea2 80BC     		pop	{r7}
 2597 0ea4 7047     		bx	lr
 2598              		.cfi_endproc
 2599              	.LFE57:
 2601 0ea6 00BF     		.align	2
 2602              		.global	TIM_ForcedOC1Config
 2603              		.thumb
 2604              		.thumb_func
 2606              	TIM_ForcedOC1Config:
 2607              	.LFB58:
1305:../lib/STM32F10x_StdPeriph_Driver/src/stm32f10x_tim.c **** 
1306:../lib/STM32F10x_StdPeriph_Driver/src/stm32f10x_tim.c **** /**
1307:../lib/STM32F10x_StdPeriph_Driver/src/stm32f10x_tim.c ****   * @brief  Forces the TIMx output 1 waveform to active or inactive level.
1308:../lib/STM32F10x_StdPeriph_Driver/src/stm32f10x_tim.c ****   * @param  TIMx: where x can be  1 to 17 except 6 and 7 to select the TIM peripheral.
1309:../lib/STM32F10x_StdPeriph_Driver/src/stm32f10x_tim.c ****   * @param  TIM_ForcedAction: specifies the forced Action to be set to the output waveform.
1310:../lib/STM32F10x_StdPeriph_Driver/src/stm32f10x_tim.c ****   *   This parameter can be one of the following values:
1311:../lib/STM32F10x_StdPeriph_Driver/src/stm32f10x_tim.c ****   *     @arg TIM_ForcedAction_Active: Force active level on OC1REF
1312:../lib/STM32F10x_StdPeriph_Driver/src/stm32f10x_tim.c ****   *     @arg TIM_ForcedAction_InActive: Force inactive level on OC1REF.
1313:../lib/STM32F10x_StdPeriph_Driver/src/stm32f10x_tim.c ****   * @retval None
1314:../lib/STM32F10x_StdPeriph_Driver/src/stm32f10x_tim.c ****   */
1315:../lib/STM32F10x_StdPeriph_Driver/src/stm32f10x_tim.c **** void TIM_ForcedOC1Config(TIM_TypeDef* TIMx, uint16_t TIM_ForcedAction)
1316:../lib/STM32F10x_StdPeriph_Driver/src/stm32f10x_tim.c **** {
 2608              		.loc 1 1316 0
 2609              		.cfi_startproc
 2610              		@ args = 0, pretend = 0, frame = 16
 2611              		@ frame_needed = 1, uses_anonymous_args = 0
 2612              		@ link register save eliminated.
 2613 0ea8 80B4     		push	{r7}
 2614              	.LCFI87:
 2615              		.cfi_def_cfa_offset 4
 2616              		.cfi_offset 7, -4
 2617 0eaa 85B0     		sub	sp, sp, #20
 2618              	.LCFI88:
 2619              		.cfi_def_cfa_offset 24
 2620 0eac 00AF     		add	r7, sp, #0
 2621              	.LCFI89:
 2622              		.cfi_def_cfa_register 7
 2623 0eae 7860     		str	r0, [r7, #4]
 2624 0eb0 0B46     		mov	r3, r1
 2625 0eb2 7B80     		strh	r3, [r7, #2]	@ movhi
1317:../lib/STM32F10x_StdPeriph_Driver/src/stm32f10x_tim.c ****   uint16_t tmpccmr1 = 0;
 2626              		.loc 1 1317 0
 2627 0eb4 4FF00003 		mov	r3, #0
 2628 0eb8 FB81     		strh	r3, [r7, #14]	@ movhi
1318:../lib/STM32F10x_StdPeriph_Driver/src/stm32f10x_tim.c ****   /* Check the parameters */
1319:../lib/STM32F10x_StdPeriph_Driver/src/stm32f10x_tim.c ****   assert_param(IS_TIM_LIST8_PERIPH(TIMx));
1320:../lib/STM32F10x_StdPeriph_Driver/src/stm32f10x_tim.c ****   assert_param(IS_TIM_FORCED_ACTION(TIM_ForcedAction));
1321:../lib/STM32F10x_StdPeriph_Driver/src/stm32f10x_tim.c ****   tmpccmr1 = TIMx->CCMR1;
 2629              		.loc 1 1321 0
 2630 0eba 7B68     		ldr	r3, [r7, #4]
 2631 0ebc 1B8B     		ldrh	r3, [r3, #24]	@ movhi
 2632 0ebe FB81     		strh	r3, [r7, #14]	@ movhi
1322:../lib/STM32F10x_StdPeriph_Driver/src/stm32f10x_tim.c ****   /* Reset the OC1M Bits */
1323:../lib/STM32F10x_StdPeriph_Driver/src/stm32f10x_tim.c ****   tmpccmr1 &= (uint16_t)~((uint16_t)TIM_CCMR1_OC1M);
 2633              		.loc 1 1323 0
 2634 0ec0 FB89     		ldrh	r3, [r7, #14]	@ movhi
 2635 0ec2 23F07003 		bic	r3, r3, #112
 2636 0ec6 FB81     		strh	r3, [r7, #14]	@ movhi
1324:../lib/STM32F10x_StdPeriph_Driver/src/stm32f10x_tim.c ****   /* Configure The Forced output Mode */
1325:../lib/STM32F10x_StdPeriph_Driver/src/stm32f10x_tim.c ****   tmpccmr1 |= TIM_ForcedAction;
 2637              		.loc 1 1325 0
 2638 0ec8 FA89     		ldrh	r2, [r7, #14]	@ movhi
 2639 0eca 7B88     		ldrh	r3, [r7, #2]	@ movhi
 2640 0ecc 1343     		orrs	r3, r3, r2
 2641 0ece FB81     		strh	r3, [r7, #14]	@ movhi
1326:../lib/STM32F10x_StdPeriph_Driver/src/stm32f10x_tim.c ****   /* Write to TIMx CCMR1 register */
1327:../lib/STM32F10x_StdPeriph_Driver/src/stm32f10x_tim.c ****   TIMx->CCMR1 = tmpccmr1;
 2642              		.loc 1 1327 0
 2643 0ed0 7B68     		ldr	r3, [r7, #4]
 2644 0ed2 FA89     		ldrh	r2, [r7, #14]	@ movhi
 2645 0ed4 1A83     		strh	r2, [r3, #24]	@ movhi
1328:../lib/STM32F10x_StdPeriph_Driver/src/stm32f10x_tim.c **** }
 2646              		.loc 1 1328 0
 2647 0ed6 07F11407 		add	r7, r7, #20
 2648 0eda BD46     		mov	sp, r7
 2649 0edc 80BC     		pop	{r7}
 2650 0ede 7047     		bx	lr
 2651              		.cfi_endproc
 2652              	.LFE58:
 2654              		.align	2
 2655              		.global	TIM_ForcedOC2Config
 2656              		.thumb
 2657              		.thumb_func
 2659              	TIM_ForcedOC2Config:
 2660              	.LFB59:
1329:../lib/STM32F10x_StdPeriph_Driver/src/stm32f10x_tim.c **** 
1330:../lib/STM32F10x_StdPeriph_Driver/src/stm32f10x_tim.c **** /**
1331:../lib/STM32F10x_StdPeriph_Driver/src/stm32f10x_tim.c ****   * @brief  Forces the TIMx output 2 waveform to active or inactive level.
1332:../lib/STM32F10x_StdPeriph_Driver/src/stm32f10x_tim.c ****   * @param  TIMx: where x can be  1, 2, 3, 4, 5, 8, 9, 12 or 15 to select the TIM peripheral.
1333:../lib/STM32F10x_StdPeriph_Driver/src/stm32f10x_tim.c ****   * @param  TIM_ForcedAction: specifies the forced Action to be set to the output waveform.
1334:../lib/STM32F10x_StdPeriph_Driver/src/stm32f10x_tim.c ****   *   This parameter can be one of the following values:
1335:../lib/STM32F10x_StdPeriph_Driver/src/stm32f10x_tim.c ****   *     @arg TIM_ForcedAction_Active: Force active level on OC2REF
1336:../lib/STM32F10x_StdPeriph_Driver/src/stm32f10x_tim.c ****   *     @arg TIM_ForcedAction_InActive: Force inactive level on OC2REF.
1337:../lib/STM32F10x_StdPeriph_Driver/src/stm32f10x_tim.c ****   * @retval None
1338:../lib/STM32F10x_StdPeriph_Driver/src/stm32f10x_tim.c ****   */
1339:../lib/STM32F10x_StdPeriph_Driver/src/stm32f10x_tim.c **** void TIM_ForcedOC2Config(TIM_TypeDef* TIMx, uint16_t TIM_ForcedAction)
1340:../lib/STM32F10x_StdPeriph_Driver/src/stm32f10x_tim.c **** {
 2661              		.loc 1 1340 0
 2662              		.cfi_startproc
 2663              		@ args = 0, pretend = 0, frame = 16
 2664              		@ frame_needed = 1, uses_anonymous_args = 0
 2665              		@ link register save eliminated.
 2666 0ee0 80B4     		push	{r7}
 2667              	.LCFI90:
 2668              		.cfi_def_cfa_offset 4
 2669              		.cfi_offset 7, -4
 2670 0ee2 85B0     		sub	sp, sp, #20
 2671              	.LCFI91:
 2672              		.cfi_def_cfa_offset 24
 2673 0ee4 00AF     		add	r7, sp, #0
 2674              	.LCFI92:
 2675              		.cfi_def_cfa_register 7
 2676 0ee6 7860     		str	r0, [r7, #4]
 2677 0ee8 0B46     		mov	r3, r1
 2678 0eea 7B80     		strh	r3, [r7, #2]	@ movhi
1341:../lib/STM32F10x_StdPeriph_Driver/src/stm32f10x_tim.c ****   uint16_t tmpccmr1 = 0;
 2679              		.loc 1 1341 0
 2680 0eec 4FF00003 		mov	r3, #0
 2681 0ef0 FB81     		strh	r3, [r7, #14]	@ movhi
1342:../lib/STM32F10x_StdPeriph_Driver/src/stm32f10x_tim.c ****   /* Check the parameters */
1343:../lib/STM32F10x_StdPeriph_Driver/src/stm32f10x_tim.c ****   assert_param(IS_TIM_LIST6_PERIPH(TIMx));
1344:../lib/STM32F10x_StdPeriph_Driver/src/stm32f10x_tim.c ****   assert_param(IS_TIM_FORCED_ACTION(TIM_ForcedAction));
1345:../lib/STM32F10x_StdPeriph_Driver/src/stm32f10x_tim.c ****   tmpccmr1 = TIMx->CCMR1;
 2682              		.loc 1 1345 0
 2683 0ef2 7B68     		ldr	r3, [r7, #4]
 2684 0ef4 1B8B     		ldrh	r3, [r3, #24]	@ movhi
 2685 0ef6 FB81     		strh	r3, [r7, #14]	@ movhi
1346:../lib/STM32F10x_StdPeriph_Driver/src/stm32f10x_tim.c ****   /* Reset the OC2M Bits */
1347:../lib/STM32F10x_StdPeriph_Driver/src/stm32f10x_tim.c ****   tmpccmr1 &= (uint16_t)~((uint16_t)TIM_CCMR1_OC2M);
 2686              		.loc 1 1347 0
 2687 0ef8 FB89     		ldrh	r3, [r7, #14]	@ movhi
 2688 0efa 23F4E043 		bic	r3, r3, #28672
 2689 0efe FB81     		strh	r3, [r7, #14]	@ movhi
1348:../lib/STM32F10x_StdPeriph_Driver/src/stm32f10x_tim.c ****   /* Configure The Forced output Mode */
1349:../lib/STM32F10x_StdPeriph_Driver/src/stm32f10x_tim.c ****   tmpccmr1 |= (uint16_t)(TIM_ForcedAction << 8);
 2690              		.loc 1 1349 0
 2691 0f00 7B88     		ldrh	r3, [r7, #2]	@ movhi
 2692 0f02 4FEA0323 		lsl	r3, r3, #8
 2693 0f06 9AB2     		uxth	r2, r3
 2694 0f08 FB89     		ldrh	r3, [r7, #14]	@ movhi
 2695 0f0a 1343     		orrs	r3, r3, r2
 2696 0f0c FB81     		strh	r3, [r7, #14]	@ movhi
1350:../lib/STM32F10x_StdPeriph_Driver/src/stm32f10x_tim.c ****   /* Write to TIMx CCMR1 register */
1351:../lib/STM32F10x_StdPeriph_Driver/src/stm32f10x_tim.c ****   TIMx->CCMR1 = tmpccmr1;
 2697              		.loc 1 1351 0
 2698 0f0e 7B68     		ldr	r3, [r7, #4]
 2699 0f10 FA89     		ldrh	r2, [r7, #14]	@ movhi
 2700 0f12 1A83     		strh	r2, [r3, #24]	@ movhi
1352:../lib/STM32F10x_StdPeriph_Driver/src/stm32f10x_tim.c **** }
 2701              		.loc 1 1352 0
 2702 0f14 07F11407 		add	r7, r7, #20
 2703 0f18 BD46     		mov	sp, r7
 2704 0f1a 80BC     		pop	{r7}
 2705 0f1c 7047     		bx	lr
 2706              		.cfi_endproc
 2707              	.LFE59:
 2709 0f1e 00BF     		.align	2
 2710              		.global	TIM_ForcedOC3Config
 2711              		.thumb
 2712              		.thumb_func
 2714              	TIM_ForcedOC3Config:
 2715              	.LFB60:
1353:../lib/STM32F10x_StdPeriph_Driver/src/stm32f10x_tim.c **** 
1354:../lib/STM32F10x_StdPeriph_Driver/src/stm32f10x_tim.c **** /**
1355:../lib/STM32F10x_StdPeriph_Driver/src/stm32f10x_tim.c ****   * @brief  Forces the TIMx output 3 waveform to active or inactive level.
1356:../lib/STM32F10x_StdPeriph_Driver/src/stm32f10x_tim.c ****   * @param  TIMx: where x can be  1, 2, 3, 4, 5 or 8 to select the TIM peripheral.
1357:../lib/STM32F10x_StdPeriph_Driver/src/stm32f10x_tim.c ****   * @param  TIM_ForcedAction: specifies the forced Action to be set to the output waveform.
1358:../lib/STM32F10x_StdPeriph_Driver/src/stm32f10x_tim.c ****   *   This parameter can be one of the following values:
1359:../lib/STM32F10x_StdPeriph_Driver/src/stm32f10x_tim.c ****   *     @arg TIM_ForcedAction_Active: Force active level on OC3REF
1360:../lib/STM32F10x_StdPeriph_Driver/src/stm32f10x_tim.c ****   *     @arg TIM_ForcedAction_InActive: Force inactive level on OC3REF.
1361:../lib/STM32F10x_StdPeriph_Driver/src/stm32f10x_tim.c ****   * @retval None
1362:../lib/STM32F10x_StdPeriph_Driver/src/stm32f10x_tim.c ****   */
1363:../lib/STM32F10x_StdPeriph_Driver/src/stm32f10x_tim.c **** void TIM_ForcedOC3Config(TIM_TypeDef* TIMx, uint16_t TIM_ForcedAction)
1364:../lib/STM32F10x_StdPeriph_Driver/src/stm32f10x_tim.c **** {
 2716              		.loc 1 1364 0
 2717              		.cfi_startproc
 2718              		@ args = 0, pretend = 0, frame = 16
 2719              		@ frame_needed = 1, uses_anonymous_args = 0
 2720              		@ link register save eliminated.
 2721 0f20 80B4     		push	{r7}
 2722              	.LCFI93:
 2723              		.cfi_def_cfa_offset 4
 2724              		.cfi_offset 7, -4
 2725 0f22 85B0     		sub	sp, sp, #20
 2726              	.LCFI94:
 2727              		.cfi_def_cfa_offset 24
 2728 0f24 00AF     		add	r7, sp, #0
 2729              	.LCFI95:
 2730              		.cfi_def_cfa_register 7
 2731 0f26 7860     		str	r0, [r7, #4]
 2732 0f28 0B46     		mov	r3, r1
 2733 0f2a 7B80     		strh	r3, [r7, #2]	@ movhi
1365:../lib/STM32F10x_StdPeriph_Driver/src/stm32f10x_tim.c ****   uint16_t tmpccmr2 = 0;
 2734              		.loc 1 1365 0
 2735 0f2c 4FF00003 		mov	r3, #0
 2736 0f30 FB81     		strh	r3, [r7, #14]	@ movhi
1366:../lib/STM32F10x_StdPeriph_Driver/src/stm32f10x_tim.c ****   /* Check the parameters */
1367:../lib/STM32F10x_StdPeriph_Driver/src/stm32f10x_tim.c ****   assert_param(IS_TIM_LIST3_PERIPH(TIMx));
1368:../lib/STM32F10x_StdPeriph_Driver/src/stm32f10x_tim.c ****   assert_param(IS_TIM_FORCED_ACTION(TIM_ForcedAction));
1369:../lib/STM32F10x_StdPeriph_Driver/src/stm32f10x_tim.c ****   tmpccmr2 = TIMx->CCMR2;
 2737              		.loc 1 1369 0
 2738 0f32 7B68     		ldr	r3, [r7, #4]
 2739 0f34 9B8B     		ldrh	r3, [r3, #28]	@ movhi
 2740 0f36 FB81     		strh	r3, [r7, #14]	@ movhi
1370:../lib/STM32F10x_StdPeriph_Driver/src/stm32f10x_tim.c ****   /* Reset the OC1M Bits */
1371:../lib/STM32F10x_StdPeriph_Driver/src/stm32f10x_tim.c ****   tmpccmr2 &= (uint16_t)~((uint16_t)TIM_CCMR2_OC3M);
 2741              		.loc 1 1371 0
 2742 0f38 FB89     		ldrh	r3, [r7, #14]	@ movhi
 2743 0f3a 23F07003 		bic	r3, r3, #112
 2744 0f3e FB81     		strh	r3, [r7, #14]	@ movhi
1372:../lib/STM32F10x_StdPeriph_Driver/src/stm32f10x_tim.c ****   /* Configure The Forced output Mode */
1373:../lib/STM32F10x_StdPeriph_Driver/src/stm32f10x_tim.c ****   tmpccmr2 |= TIM_ForcedAction;
 2745              		.loc 1 1373 0
 2746 0f40 FA89     		ldrh	r2, [r7, #14]	@ movhi
 2747 0f42 7B88     		ldrh	r3, [r7, #2]	@ movhi
 2748 0f44 1343     		orrs	r3, r3, r2
 2749 0f46 FB81     		strh	r3, [r7, #14]	@ movhi
1374:../lib/STM32F10x_StdPeriph_Driver/src/stm32f10x_tim.c ****   /* Write to TIMx CCMR2 register */
1375:../lib/STM32F10x_StdPeriph_Driver/src/stm32f10x_tim.c ****   TIMx->CCMR2 = tmpccmr2;
 2750              		.loc 1 1375 0
 2751 0f48 7B68     		ldr	r3, [r7, #4]
 2752 0f4a FA89     		ldrh	r2, [r7, #14]	@ movhi
 2753 0f4c 9A83     		strh	r2, [r3, #28]	@ movhi
1376:../lib/STM32F10x_StdPeriph_Driver/src/stm32f10x_tim.c **** }
 2754              		.loc 1 1376 0
 2755 0f4e 07F11407 		add	r7, r7, #20
 2756 0f52 BD46     		mov	sp, r7
 2757 0f54 80BC     		pop	{r7}
 2758 0f56 7047     		bx	lr
 2759              		.cfi_endproc
 2760              	.LFE60:
 2762              		.align	2
 2763              		.global	TIM_ForcedOC4Config
 2764              		.thumb
 2765              		.thumb_func
 2767              	TIM_ForcedOC4Config:
 2768              	.LFB61:
1377:../lib/STM32F10x_StdPeriph_Driver/src/stm32f10x_tim.c **** 
1378:../lib/STM32F10x_StdPeriph_Driver/src/stm32f10x_tim.c **** /**
1379:../lib/STM32F10x_StdPeriph_Driver/src/stm32f10x_tim.c ****   * @brief  Forces the TIMx output 4 waveform to active or inactive level.
1380:../lib/STM32F10x_StdPeriph_Driver/src/stm32f10x_tim.c ****   * @param  TIMx: where x can be  1, 2, 3, 4, 5 or 8 to select the TIM peripheral.
1381:../lib/STM32F10x_StdPeriph_Driver/src/stm32f10x_tim.c ****   * @param  TIM_ForcedAction: specifies the forced Action to be set to the output waveform.
1382:../lib/STM32F10x_StdPeriph_Driver/src/stm32f10x_tim.c ****   *   This parameter can be one of the following values:
1383:../lib/STM32F10x_StdPeriph_Driver/src/stm32f10x_tim.c ****   *     @arg TIM_ForcedAction_Active: Force active level on OC4REF
1384:../lib/STM32F10x_StdPeriph_Driver/src/stm32f10x_tim.c ****   *     @arg TIM_ForcedAction_InActive: Force inactive level on OC4REF.
1385:../lib/STM32F10x_StdPeriph_Driver/src/stm32f10x_tim.c ****   * @retval None
1386:../lib/STM32F10x_StdPeriph_Driver/src/stm32f10x_tim.c ****   */
1387:../lib/STM32F10x_StdPeriph_Driver/src/stm32f10x_tim.c **** void TIM_ForcedOC4Config(TIM_TypeDef* TIMx, uint16_t TIM_ForcedAction)
1388:../lib/STM32F10x_StdPeriph_Driver/src/stm32f10x_tim.c **** {
 2769              		.loc 1 1388 0
 2770              		.cfi_startproc
 2771              		@ args = 0, pretend = 0, frame = 16
 2772              		@ frame_needed = 1, uses_anonymous_args = 0
 2773              		@ link register save eliminated.
 2774 0f58 80B4     		push	{r7}
 2775              	.LCFI96:
 2776              		.cfi_def_cfa_offset 4
 2777              		.cfi_offset 7, -4
 2778 0f5a 85B0     		sub	sp, sp, #20
 2779              	.LCFI97:
 2780              		.cfi_def_cfa_offset 24
 2781 0f5c 00AF     		add	r7, sp, #0
 2782              	.LCFI98:
 2783              		.cfi_def_cfa_register 7
 2784 0f5e 7860     		str	r0, [r7, #4]
 2785 0f60 0B46     		mov	r3, r1
 2786 0f62 7B80     		strh	r3, [r7, #2]	@ movhi
1389:../lib/STM32F10x_StdPeriph_Driver/src/stm32f10x_tim.c ****   uint16_t tmpccmr2 = 0;
 2787              		.loc 1 1389 0
 2788 0f64 4FF00003 		mov	r3, #0
 2789 0f68 FB81     		strh	r3, [r7, #14]	@ movhi
1390:../lib/STM32F10x_StdPeriph_Driver/src/stm32f10x_tim.c ****   /* Check the parameters */
1391:../lib/STM32F10x_StdPeriph_Driver/src/stm32f10x_tim.c ****   assert_param(IS_TIM_LIST3_PERIPH(TIMx));
1392:../lib/STM32F10x_StdPeriph_Driver/src/stm32f10x_tim.c ****   assert_param(IS_TIM_FORCED_ACTION(TIM_ForcedAction));
1393:../lib/STM32F10x_StdPeriph_Driver/src/stm32f10x_tim.c ****   tmpccmr2 = TIMx->CCMR2;
 2790              		.loc 1 1393 0
 2791 0f6a 7B68     		ldr	r3, [r7, #4]
 2792 0f6c 9B8B     		ldrh	r3, [r3, #28]	@ movhi
 2793 0f6e FB81     		strh	r3, [r7, #14]	@ movhi
1394:../lib/STM32F10x_StdPeriph_Driver/src/stm32f10x_tim.c ****   /* Reset the OC2M Bits */
1395:../lib/STM32F10x_StdPeriph_Driver/src/stm32f10x_tim.c ****   tmpccmr2 &= (uint16_t)~((uint16_t)TIM_CCMR2_OC4M);
 2794              		.loc 1 1395 0
 2795 0f70 FB89     		ldrh	r3, [r7, #14]	@ movhi
 2796 0f72 23F4E043 		bic	r3, r3, #28672
 2797 0f76 FB81     		strh	r3, [r7, #14]	@ movhi
1396:../lib/STM32F10x_StdPeriph_Driver/src/stm32f10x_tim.c ****   /* Configure The Forced output Mode */
1397:../lib/STM32F10x_StdPeriph_Driver/src/stm32f10x_tim.c ****   tmpccmr2 |= (uint16_t)(TIM_ForcedAction << 8);
 2798              		.loc 1 1397 0
 2799 0f78 7B88     		ldrh	r3, [r7, #2]	@ movhi
 2800 0f7a 4FEA0323 		lsl	r3, r3, #8
 2801 0f7e 9AB2     		uxth	r2, r3
 2802 0f80 FB89     		ldrh	r3, [r7, #14]	@ movhi
 2803 0f82 1343     		orrs	r3, r3, r2
 2804 0f84 FB81     		strh	r3, [r7, #14]	@ movhi
1398:../lib/STM32F10x_StdPeriph_Driver/src/stm32f10x_tim.c ****   /* Write to TIMx CCMR2 register */
1399:../lib/STM32F10x_StdPeriph_Driver/src/stm32f10x_tim.c ****   TIMx->CCMR2 = tmpccmr2;
 2805              		.loc 1 1399 0
 2806 0f86 7B68     		ldr	r3, [r7, #4]
 2807 0f88 FA89     		ldrh	r2, [r7, #14]	@ movhi
 2808 0f8a 9A83     		strh	r2, [r3, #28]	@ movhi
1400:../lib/STM32F10x_StdPeriph_Driver/src/stm32f10x_tim.c **** }
 2809              		.loc 1 1400 0
 2810 0f8c 07F11407 		add	r7, r7, #20
 2811 0f90 BD46     		mov	sp, r7
 2812 0f92 80BC     		pop	{r7}
 2813 0f94 7047     		bx	lr
 2814              		.cfi_endproc
 2815              	.LFE61:
 2817 0f96 00BF     		.align	2
 2818              		.global	TIM_ARRPreloadConfig
 2819              		.thumb
 2820              		.thumb_func
 2822              	TIM_ARRPreloadConfig:
 2823              	.LFB62:
1401:../lib/STM32F10x_StdPeriph_Driver/src/stm32f10x_tim.c **** 
1402:../lib/STM32F10x_StdPeriph_Driver/src/stm32f10x_tim.c **** /**
1403:../lib/STM32F10x_StdPeriph_Driver/src/stm32f10x_tim.c ****   * @brief  Enables or disables TIMx peripheral Preload register on ARR.
1404:../lib/STM32F10x_StdPeriph_Driver/src/stm32f10x_tim.c ****   * @param  TIMx: where x can be  1 to 17 to select the TIM peripheral.
1405:../lib/STM32F10x_StdPeriph_Driver/src/stm32f10x_tim.c ****   * @param  NewState: new state of the TIMx peripheral Preload register
1406:../lib/STM32F10x_StdPeriph_Driver/src/stm32f10x_tim.c ****   *   This parameter can be: ENABLE or DISABLE.
1407:../lib/STM32F10x_StdPeriph_Driver/src/stm32f10x_tim.c ****   * @retval None
1408:../lib/STM32F10x_StdPeriph_Driver/src/stm32f10x_tim.c ****   */
1409:../lib/STM32F10x_StdPeriph_Driver/src/stm32f10x_tim.c **** void TIM_ARRPreloadConfig(TIM_TypeDef* TIMx, FunctionalState NewState)
1410:../lib/STM32F10x_StdPeriph_Driver/src/stm32f10x_tim.c **** {
 2824              		.loc 1 1410 0
 2825              		.cfi_startproc
 2826              		@ args = 0, pretend = 0, frame = 8
 2827              		@ frame_needed = 1, uses_anonymous_args = 0
 2828              		@ link register save eliminated.
