   1              		.syntax unified
   2              		.cpu cortex-m3
   3              		.fpu softvfp
   4              		.eabi_attribute 20, 1
   5              		.eabi_attribute 21, 1
   6              		.eabi_attribute 23, 3
   7              		.eabi_attribute 24, 1
   8              		.eabi_attribute 25, 1
   9              		.eabi_attribute 26, 1
  10              		.eabi_attribute 30, 6
  11              		.eabi_attribute 34, 1
  12              		.eabi_attribute 18, 4
  13              		.thumb
  14              		.file	"stm32f10x_flash.c"
  15              		.text
  16              	.Ltext0:
  17              		.cfi_sections	.debug_frame
  18              		.align	2
  19              		.global	FLASH_SetLatency
  20              		.thumb
  21              		.thumb_func
  23              	FLASH_SetLatency:
  24              	.LFB29:
  25              		.file 1 "../lib/STM32F10x_StdPeriph_Driver/src/stm32f10x_flash.c"
   1:../lib/STM32F10x_StdPeriph_Driver/src/stm32f10x_flash.c **** /**
   2:../lib/STM32F10x_StdPeriph_Driver/src/stm32f10x_flash.c ****   ******************************************************************************
   3:../lib/STM32F10x_StdPeriph_Driver/src/stm32f10x_flash.c ****   * @file    stm32f10x_flash.c
   4:../lib/STM32F10x_StdPeriph_Driver/src/stm32f10x_flash.c ****   * @author  MCD Application Team
   5:../lib/STM32F10x_StdPeriph_Driver/src/stm32f10x_flash.c ****   * @version V3.5.0
   6:../lib/STM32F10x_StdPeriph_Driver/src/stm32f10x_flash.c ****   * @date    11-March-2011
   7:../lib/STM32F10x_StdPeriph_Driver/src/stm32f10x_flash.c ****   * @brief   This file provides all the FLASH firmware functions.
   8:../lib/STM32F10x_StdPeriph_Driver/src/stm32f10x_flash.c ****   ******************************************************************************
   9:../lib/STM32F10x_StdPeriph_Driver/src/stm32f10x_flash.c ****   * @attention
  10:../lib/STM32F10x_StdPeriph_Driver/src/stm32f10x_flash.c ****   *
  11:../lib/STM32F10x_StdPeriph_Driver/src/stm32f10x_flash.c ****   * THE PRESENT FIRMWARE WHICH IS FOR GUIDANCE ONLY AIMS AT PROVIDING CUSTOMERS
  12:../lib/STM32F10x_StdPeriph_Driver/src/stm32f10x_flash.c ****   * WITH CODING INFORMATION REGARDING THEIR PRODUCTS IN ORDER FOR THEM TO SAVE
  13:../lib/STM32F10x_StdPeriph_Driver/src/stm32f10x_flash.c ****   * TIME. AS A RESULT, STMICROELECTRONICS SHALL NOT BE HELD LIABLE FOR ANY
  14:../lib/STM32F10x_StdPeriph_Driver/src/stm32f10x_flash.c ****   * DIRECT, INDIRECT OR CONSEQUENTIAL DAMAGES WITH RESPECT TO ANY CLAIMS ARISING
  15:../lib/STM32F10x_StdPeriph_Driver/src/stm32f10x_flash.c ****   * FROM THE CONTENT OF SUCH FIRMWARE AND/OR THE USE MADE BY CUSTOMERS OF THE
  16:../lib/STM32F10x_StdPeriph_Driver/src/stm32f10x_flash.c ****   * CODING INFORMATION CONTAINED HEREIN IN CONNECTION WITH THEIR PRODUCTS.
  17:../lib/STM32F10x_StdPeriph_Driver/src/stm32f10x_flash.c ****   *
  18:../lib/STM32F10x_StdPeriph_Driver/src/stm32f10x_flash.c ****   * <h2><center>&copy; COPYRIGHT 2011 STMicroelectronics</center></h2>
  19:../lib/STM32F10x_StdPeriph_Driver/src/stm32f10x_flash.c ****   ******************************************************************************
  20:../lib/STM32F10x_StdPeriph_Driver/src/stm32f10x_flash.c ****   */
  21:../lib/STM32F10x_StdPeriph_Driver/src/stm32f10x_flash.c **** 
  22:../lib/STM32F10x_StdPeriph_Driver/src/stm32f10x_flash.c **** /* Includes ------------------------------------------------------------------*/
  23:../lib/STM32F10x_StdPeriph_Driver/src/stm32f10x_flash.c **** #include "stm32f10x_flash.h"
  24:../lib/STM32F10x_StdPeriph_Driver/src/stm32f10x_flash.c **** 
  25:../lib/STM32F10x_StdPeriph_Driver/src/stm32f10x_flash.c **** /** @addtogroup STM32F10x_StdPeriph_Driver
  26:../lib/STM32F10x_StdPeriph_Driver/src/stm32f10x_flash.c ****   * @{
  27:../lib/STM32F10x_StdPeriph_Driver/src/stm32f10x_flash.c ****   */
  28:../lib/STM32F10x_StdPeriph_Driver/src/stm32f10x_flash.c **** 
  29:../lib/STM32F10x_StdPeriph_Driver/src/stm32f10x_flash.c **** /** @defgroup FLASH 
  30:../lib/STM32F10x_StdPeriph_Driver/src/stm32f10x_flash.c ****   * @brief FLASH driver modules
  31:../lib/STM32F10x_StdPeriph_Driver/src/stm32f10x_flash.c ****   * @{
  32:../lib/STM32F10x_StdPeriph_Driver/src/stm32f10x_flash.c ****   */ 
  33:../lib/STM32F10x_StdPeriph_Driver/src/stm32f10x_flash.c **** 
  34:../lib/STM32F10x_StdPeriph_Driver/src/stm32f10x_flash.c **** /** @defgroup FLASH_Private_TypesDefinitions
  35:../lib/STM32F10x_StdPeriph_Driver/src/stm32f10x_flash.c ****   * @{
  36:../lib/STM32F10x_StdPeriph_Driver/src/stm32f10x_flash.c ****   */
  37:../lib/STM32F10x_StdPeriph_Driver/src/stm32f10x_flash.c **** 
  38:../lib/STM32F10x_StdPeriph_Driver/src/stm32f10x_flash.c **** /**
  39:../lib/STM32F10x_StdPeriph_Driver/src/stm32f10x_flash.c ****   * @}
  40:../lib/STM32F10x_StdPeriph_Driver/src/stm32f10x_flash.c ****   */ 
  41:../lib/STM32F10x_StdPeriph_Driver/src/stm32f10x_flash.c **** 
  42:../lib/STM32F10x_StdPeriph_Driver/src/stm32f10x_flash.c **** /** @defgroup FLASH_Private_Defines
  43:../lib/STM32F10x_StdPeriph_Driver/src/stm32f10x_flash.c ****   * @{
  44:../lib/STM32F10x_StdPeriph_Driver/src/stm32f10x_flash.c ****   */ 
  45:../lib/STM32F10x_StdPeriph_Driver/src/stm32f10x_flash.c **** 
  46:../lib/STM32F10x_StdPeriph_Driver/src/stm32f10x_flash.c **** /* Flash Access Control Register bits */
  47:../lib/STM32F10x_StdPeriph_Driver/src/stm32f10x_flash.c **** #define ACR_LATENCY_Mask         ((uint32_t)0x00000038)
  48:../lib/STM32F10x_StdPeriph_Driver/src/stm32f10x_flash.c **** #define ACR_HLFCYA_Mask          ((uint32_t)0xFFFFFFF7)
  49:../lib/STM32F10x_StdPeriph_Driver/src/stm32f10x_flash.c **** #define ACR_PRFTBE_Mask          ((uint32_t)0xFFFFFFEF)
  50:../lib/STM32F10x_StdPeriph_Driver/src/stm32f10x_flash.c **** 
  51:../lib/STM32F10x_StdPeriph_Driver/src/stm32f10x_flash.c **** /* Flash Access Control Register bits */
  52:../lib/STM32F10x_StdPeriph_Driver/src/stm32f10x_flash.c **** #define ACR_PRFTBS_Mask          ((uint32_t)0x00000020) 
  53:../lib/STM32F10x_StdPeriph_Driver/src/stm32f10x_flash.c **** 
  54:../lib/STM32F10x_StdPeriph_Driver/src/stm32f10x_flash.c **** /* Flash Control Register bits */
  55:../lib/STM32F10x_StdPeriph_Driver/src/stm32f10x_flash.c **** #define CR_PG_Set                ((uint32_t)0x00000001)
  56:../lib/STM32F10x_StdPeriph_Driver/src/stm32f10x_flash.c **** #define CR_PG_Reset              ((uint32_t)0x00001FFE) 
  57:../lib/STM32F10x_StdPeriph_Driver/src/stm32f10x_flash.c **** #define CR_PER_Set               ((uint32_t)0x00000002)
  58:../lib/STM32F10x_StdPeriph_Driver/src/stm32f10x_flash.c **** #define CR_PER_Reset             ((uint32_t)0x00001FFD)
  59:../lib/STM32F10x_StdPeriph_Driver/src/stm32f10x_flash.c **** #define CR_MER_Set               ((uint32_t)0x00000004)
  60:../lib/STM32F10x_StdPeriph_Driver/src/stm32f10x_flash.c **** #define CR_MER_Reset             ((uint32_t)0x00001FFB)
  61:../lib/STM32F10x_StdPeriph_Driver/src/stm32f10x_flash.c **** #define CR_OPTPG_Set             ((uint32_t)0x00000010)
  62:../lib/STM32F10x_StdPeriph_Driver/src/stm32f10x_flash.c **** #define CR_OPTPG_Reset           ((uint32_t)0x00001FEF)
  63:../lib/STM32F10x_StdPeriph_Driver/src/stm32f10x_flash.c **** #define CR_OPTER_Set             ((uint32_t)0x00000020)
  64:../lib/STM32F10x_StdPeriph_Driver/src/stm32f10x_flash.c **** #define CR_OPTER_Reset           ((uint32_t)0x00001FDF)
  65:../lib/STM32F10x_StdPeriph_Driver/src/stm32f10x_flash.c **** #define CR_STRT_Set              ((uint32_t)0x00000040)
  66:../lib/STM32F10x_StdPeriph_Driver/src/stm32f10x_flash.c **** #define CR_LOCK_Set              ((uint32_t)0x00000080)
  67:../lib/STM32F10x_StdPeriph_Driver/src/stm32f10x_flash.c **** 
  68:../lib/STM32F10x_StdPeriph_Driver/src/stm32f10x_flash.c **** /* FLASH Mask */
  69:../lib/STM32F10x_StdPeriph_Driver/src/stm32f10x_flash.c **** #define RDPRT_Mask               ((uint32_t)0x00000002)
  70:../lib/STM32F10x_StdPeriph_Driver/src/stm32f10x_flash.c **** #define WRP0_Mask                ((uint32_t)0x000000FF)
  71:../lib/STM32F10x_StdPeriph_Driver/src/stm32f10x_flash.c **** #define WRP1_Mask                ((uint32_t)0x0000FF00)
  72:../lib/STM32F10x_StdPeriph_Driver/src/stm32f10x_flash.c **** #define WRP2_Mask                ((uint32_t)0x00FF0000)
  73:../lib/STM32F10x_StdPeriph_Driver/src/stm32f10x_flash.c **** #define WRP3_Mask                ((uint32_t)0xFF000000)
  74:../lib/STM32F10x_StdPeriph_Driver/src/stm32f10x_flash.c **** #define OB_USER_BFB2             ((uint16_t)0x0008)
  75:../lib/STM32F10x_StdPeriph_Driver/src/stm32f10x_flash.c **** 
  76:../lib/STM32F10x_StdPeriph_Driver/src/stm32f10x_flash.c **** /* FLASH Keys */
  77:../lib/STM32F10x_StdPeriph_Driver/src/stm32f10x_flash.c **** #define RDP_Key                  ((uint16_t)0x00A5)
  78:../lib/STM32F10x_StdPeriph_Driver/src/stm32f10x_flash.c **** #define FLASH_KEY1               ((uint32_t)0x45670123)
  79:../lib/STM32F10x_StdPeriph_Driver/src/stm32f10x_flash.c **** #define FLASH_KEY2               ((uint32_t)0xCDEF89AB)
  80:../lib/STM32F10x_StdPeriph_Driver/src/stm32f10x_flash.c **** 
  81:../lib/STM32F10x_StdPeriph_Driver/src/stm32f10x_flash.c **** /* FLASH BANK address */
  82:../lib/STM32F10x_StdPeriph_Driver/src/stm32f10x_flash.c **** #define FLASH_BANK1_END_ADDRESS   ((uint32_t)0x807FFFF)
  83:../lib/STM32F10x_StdPeriph_Driver/src/stm32f10x_flash.c **** 
  84:../lib/STM32F10x_StdPeriph_Driver/src/stm32f10x_flash.c **** /* Delay definition */   
  85:../lib/STM32F10x_StdPeriph_Driver/src/stm32f10x_flash.c **** #define EraseTimeout          ((uint32_t)0x000B0000)
  86:../lib/STM32F10x_StdPeriph_Driver/src/stm32f10x_flash.c **** #define ProgramTimeout        ((uint32_t)0x00002000)
  87:../lib/STM32F10x_StdPeriph_Driver/src/stm32f10x_flash.c **** /**
  88:../lib/STM32F10x_StdPeriph_Driver/src/stm32f10x_flash.c ****   * @}
  89:../lib/STM32F10x_StdPeriph_Driver/src/stm32f10x_flash.c ****   */ 
  90:../lib/STM32F10x_StdPeriph_Driver/src/stm32f10x_flash.c **** 
  91:../lib/STM32F10x_StdPeriph_Driver/src/stm32f10x_flash.c **** /** @defgroup FLASH_Private_Macros
  92:../lib/STM32F10x_StdPeriph_Driver/src/stm32f10x_flash.c ****   * @{
  93:../lib/STM32F10x_StdPeriph_Driver/src/stm32f10x_flash.c ****   */
  94:../lib/STM32F10x_StdPeriph_Driver/src/stm32f10x_flash.c **** 
  95:../lib/STM32F10x_StdPeriph_Driver/src/stm32f10x_flash.c **** /**
  96:../lib/STM32F10x_StdPeriph_Driver/src/stm32f10x_flash.c ****   * @}
  97:../lib/STM32F10x_StdPeriph_Driver/src/stm32f10x_flash.c ****   */ 
  98:../lib/STM32F10x_StdPeriph_Driver/src/stm32f10x_flash.c **** 
  99:../lib/STM32F10x_StdPeriph_Driver/src/stm32f10x_flash.c **** /** @defgroup FLASH_Private_Variables
 100:../lib/STM32F10x_StdPeriph_Driver/src/stm32f10x_flash.c ****   * @{
 101:../lib/STM32F10x_StdPeriph_Driver/src/stm32f10x_flash.c ****   */
 102:../lib/STM32F10x_StdPeriph_Driver/src/stm32f10x_flash.c **** 
 103:../lib/STM32F10x_StdPeriph_Driver/src/stm32f10x_flash.c **** /**
 104:../lib/STM32F10x_StdPeriph_Driver/src/stm32f10x_flash.c ****   * @}
 105:../lib/STM32F10x_StdPeriph_Driver/src/stm32f10x_flash.c ****   */ 
 106:../lib/STM32F10x_StdPeriph_Driver/src/stm32f10x_flash.c **** 
 107:../lib/STM32F10x_StdPeriph_Driver/src/stm32f10x_flash.c **** /** @defgroup FLASH_Private_FunctionPrototypes
 108:../lib/STM32F10x_StdPeriph_Driver/src/stm32f10x_flash.c ****   * @{
 109:../lib/STM32F10x_StdPeriph_Driver/src/stm32f10x_flash.c ****   */
 110:../lib/STM32F10x_StdPeriph_Driver/src/stm32f10x_flash.c ****   
 111:../lib/STM32F10x_StdPeriph_Driver/src/stm32f10x_flash.c **** /**
 112:../lib/STM32F10x_StdPeriph_Driver/src/stm32f10x_flash.c ****   * @}
 113:../lib/STM32F10x_StdPeriph_Driver/src/stm32f10x_flash.c ****   */
 114:../lib/STM32F10x_StdPeriph_Driver/src/stm32f10x_flash.c **** 
 115:../lib/STM32F10x_StdPeriph_Driver/src/stm32f10x_flash.c **** /** @defgroup FLASH_Private_Functions
 116:../lib/STM32F10x_StdPeriph_Driver/src/stm32f10x_flash.c ****   * @{
 117:../lib/STM32F10x_StdPeriph_Driver/src/stm32f10x_flash.c ****   */
 118:../lib/STM32F10x_StdPeriph_Driver/src/stm32f10x_flash.c **** 
 119:../lib/STM32F10x_StdPeriph_Driver/src/stm32f10x_flash.c **** /**
 120:../lib/STM32F10x_StdPeriph_Driver/src/stm32f10x_flash.c **** @code  
 121:../lib/STM32F10x_StdPeriph_Driver/src/stm32f10x_flash.c ****  
 122:../lib/STM32F10x_StdPeriph_Driver/src/stm32f10x_flash.c ****  This driver provides functions to configure and program the Flash memory of all STM32F10x devices,
 123:../lib/STM32F10x_StdPeriph_Driver/src/stm32f10x_flash.c ****  including the latest STM32F10x_XL density devices. 
 124:../lib/STM32F10x_StdPeriph_Driver/src/stm32f10x_flash.c **** 
 125:../lib/STM32F10x_StdPeriph_Driver/src/stm32f10x_flash.c ****  STM32F10x_XL devices feature up to 1 Mbyte with dual bank architecture for read-while-write (RWW) 
 126:../lib/STM32F10x_StdPeriph_Driver/src/stm32f10x_flash.c ****     - bank1: fixed size of 512 Kbytes (256 pages of 2Kbytes each)
 127:../lib/STM32F10x_StdPeriph_Driver/src/stm32f10x_flash.c ****     - bank2: up to 512 Kbytes (up to 256 pages of 2Kbytes each)
 128:../lib/STM32F10x_StdPeriph_Driver/src/stm32f10x_flash.c ****  While other STM32F10x devices features only one bank with memory up to 512 Kbytes.
 129:../lib/STM32F10x_StdPeriph_Driver/src/stm32f10x_flash.c **** 
 130:../lib/STM32F10x_StdPeriph_Driver/src/stm32f10x_flash.c ****  In version V3.3.0, some functions were updated and new ones were added to support
 131:../lib/STM32F10x_StdPeriph_Driver/src/stm32f10x_flash.c ****  STM32F10x_XL devices. Thus some functions manages all devices, while other are 
 132:../lib/STM32F10x_StdPeriph_Driver/src/stm32f10x_flash.c ****  dedicated for XL devices only.
 133:../lib/STM32F10x_StdPeriph_Driver/src/stm32f10x_flash.c ****  
 134:../lib/STM32F10x_StdPeriph_Driver/src/stm32f10x_flash.c ****  The table below presents the list of available functions depending on the used STM32F10x devices. 
 135:../lib/STM32F10x_StdPeriph_Driver/src/stm32f10x_flash.c ****       
 136:../lib/STM32F10x_StdPeriph_Driver/src/stm32f10x_flash.c ****    ***************************************************
 137:../lib/STM32F10x_StdPeriph_Driver/src/stm32f10x_flash.c ****    * Legacy functions used for all STM32F10x devices *
 138:../lib/STM32F10x_StdPeriph_Driver/src/stm32f10x_flash.c ****    ***************************************************
 139:../lib/STM32F10x_StdPeriph_Driver/src/stm32f10x_flash.c ****    +-----------------------------------------------------------------------------------------------
 140:../lib/STM32F10x_StdPeriph_Driver/src/stm32f10x_flash.c ****    |       Functions prototypes         |STM32F10x_XL|Other STM32F10x|    Comments                 
 141:../lib/STM32F10x_StdPeriph_Driver/src/stm32f10x_flash.c ****    |                                    |   devices  |  devices      |                             
 142:../lib/STM32F10x_StdPeriph_Driver/src/stm32f10x_flash.c ****    |-----------------------------------------------------------------------------------------------
 143:../lib/STM32F10x_StdPeriph_Driver/src/stm32f10x_flash.c ****    |FLASH_SetLatency                    |    Yes     |      Yes      | No change                   
 144:../lib/STM32F10x_StdPeriph_Driver/src/stm32f10x_flash.c ****    |-----------------------------------------------------------------------------------------------
 145:../lib/STM32F10x_StdPeriph_Driver/src/stm32f10x_flash.c ****    |FLASH_HalfCycleAccessCmd            |    Yes     |      Yes      | No change                   
 146:../lib/STM32F10x_StdPeriph_Driver/src/stm32f10x_flash.c ****    |-----------------------------------------------------------------------------------------------
 147:../lib/STM32F10x_StdPeriph_Driver/src/stm32f10x_flash.c ****    |FLASH_PrefetchBufferCmd             |    Yes     |      Yes      | No change                   
 148:../lib/STM32F10x_StdPeriph_Driver/src/stm32f10x_flash.c ****    |-----------------------------------------------------------------------------------------------
 149:../lib/STM32F10x_StdPeriph_Driver/src/stm32f10x_flash.c ****    |FLASH_Unlock                        |    Yes     |      Yes      | - For STM32F10X_XL devices: 
 150:../lib/STM32F10x_StdPeriph_Driver/src/stm32f10x_flash.c ****    |                                    |            |               | - For other devices: unlock 
 151:../lib/STM32F10x_StdPeriph_Driver/src/stm32f10x_flash.c ****    |                                    |            |               |   to FLASH_UnlockBank1 funct
 152:../lib/STM32F10x_StdPeriph_Driver/src/stm32f10x_flash.c ****    |-----------------------------------------------------------------------------------------------
 153:../lib/STM32F10x_StdPeriph_Driver/src/stm32f10x_flash.c ****    |FLASH_Lock                          |    Yes     |      Yes      | - For STM32F10X_XL devices: 
 154:../lib/STM32F10x_StdPeriph_Driver/src/stm32f10x_flash.c ****    |                                    |            |               | - For other devices: lock Ba
 155:../lib/STM32F10x_StdPeriph_Driver/src/stm32f10x_flash.c ****    |                                    |            |               |   to FLASH_LockBank1 functio
 156:../lib/STM32F10x_StdPeriph_Driver/src/stm32f10x_flash.c ****    |-----------------------------------------------------------------------------------------------
 157:../lib/STM32F10x_StdPeriph_Driver/src/stm32f10x_flash.c ****    |FLASH_ErasePage                     |    Yes     |      Yes      | - For STM32F10x_XL devices: 
 158:../lib/STM32F10x_StdPeriph_Driver/src/stm32f10x_flash.c ****    |                                    |            |               | - For other devices: erase a
 159:../lib/STM32F10x_StdPeriph_Driver/src/stm32f10x_flash.c ****    |-----------------------------------------------------------------------------------------------
 160:../lib/STM32F10x_StdPeriph_Driver/src/stm32f10x_flash.c ****    |FLASH_EraseAllPages                 |    Yes     |      Yes      | - For STM32F10x_XL devices: 
 161:../lib/STM32F10x_StdPeriph_Driver/src/stm32f10x_flash.c ****    |                                    |            |               | - For other devices: erase a
 162:../lib/STM32F10x_StdPeriph_Driver/src/stm32f10x_flash.c ****    |-----------------------------------------------------------------------------------------------
 163:../lib/STM32F10x_StdPeriph_Driver/src/stm32f10x_flash.c ****    |FLASH_EraseOptionBytes              |    Yes     |      Yes      | No change                   
 164:../lib/STM32F10x_StdPeriph_Driver/src/stm32f10x_flash.c ****    |-----------------------------------------------------------------------------------------------
 165:../lib/STM32F10x_StdPeriph_Driver/src/stm32f10x_flash.c ****    |FLASH_ProgramWord                   |    Yes     |      Yes      | Updated to program up to 1MB
 166:../lib/STM32F10x_StdPeriph_Driver/src/stm32f10x_flash.c ****    |-----------------------------------------------------------------------------------------------
 167:../lib/STM32F10x_StdPeriph_Driver/src/stm32f10x_flash.c ****    |FLASH_ProgramHalfWord               |    Yes     |      Yes      | Updated to program up to 1MB
 168:../lib/STM32F10x_StdPeriph_Driver/src/stm32f10x_flash.c ****    |-----------------------------------------------------------------------------------------------
 169:../lib/STM32F10x_StdPeriph_Driver/src/stm32f10x_flash.c ****    |FLASH_ProgramOptionByteData         |    Yes     |      Yes      | No change                   
 170:../lib/STM32F10x_StdPeriph_Driver/src/stm32f10x_flash.c ****    |-----------------------------------------------------------------------------------------------
 171:../lib/STM32F10x_StdPeriph_Driver/src/stm32f10x_flash.c ****    |FLASH_EnableWriteProtection         |    Yes     |      Yes      | No change                   
 172:../lib/STM32F10x_StdPeriph_Driver/src/stm32f10x_flash.c ****    |-----------------------------------------------------------------------------------------------
 173:../lib/STM32F10x_StdPeriph_Driver/src/stm32f10x_flash.c ****    |FLASH_ReadOutProtection             |    Yes     |      Yes      | No change                   
 174:../lib/STM32F10x_StdPeriph_Driver/src/stm32f10x_flash.c ****    |-----------------------------------------------------------------------------------------------
 175:../lib/STM32F10x_StdPeriph_Driver/src/stm32f10x_flash.c ****    |FLASH_UserOptionByteConfig          |    Yes     |      Yes      | No change                   
 176:../lib/STM32F10x_StdPeriph_Driver/src/stm32f10x_flash.c ****    |-----------------------------------------------------------------------------------------------
 177:../lib/STM32F10x_StdPeriph_Driver/src/stm32f10x_flash.c ****    |FLASH_GetUserOptionByte             |    Yes     |      Yes      | No change                   
 178:../lib/STM32F10x_StdPeriph_Driver/src/stm32f10x_flash.c ****    |-----------------------------------------------------------------------------------------------
 179:../lib/STM32F10x_StdPeriph_Driver/src/stm32f10x_flash.c ****    |FLASH_GetWriteProtectionOptionByte  |    Yes     |      Yes      | No change                   
 180:../lib/STM32F10x_StdPeriph_Driver/src/stm32f10x_flash.c ****    |-----------------------------------------------------------------------------------------------
 181:../lib/STM32F10x_StdPeriph_Driver/src/stm32f10x_flash.c ****    |FLASH_GetReadOutProtectionStatus    |    Yes     |      Yes      | No change                   
 182:../lib/STM32F10x_StdPeriph_Driver/src/stm32f10x_flash.c ****    |-----------------------------------------------------------------------------------------------
 183:../lib/STM32F10x_StdPeriph_Driver/src/stm32f10x_flash.c ****    |FLASH_GetPrefetchBufferStatus       |    Yes     |      Yes      | No change                   
 184:../lib/STM32F10x_StdPeriph_Driver/src/stm32f10x_flash.c ****    |-----------------------------------------------------------------------------------------------
 185:../lib/STM32F10x_StdPeriph_Driver/src/stm32f10x_flash.c ****    |FLASH_ITConfig                      |    Yes     |      Yes      | - For STM32F10x_XL devices: 
 186:../lib/STM32F10x_StdPeriph_Driver/src/stm32f10x_flash.c ****    |                                    |            |               | - For other devices: enable 
 187:../lib/STM32F10x_StdPeriph_Driver/src/stm32f10x_flash.c ****    |-----------------------------------------------------------------------------------------------
 188:../lib/STM32F10x_StdPeriph_Driver/src/stm32f10x_flash.c ****    |FLASH_GetFlagStatus                 |    Yes     |      Yes      | - For STM32F10x_XL devices: 
 189:../lib/STM32F10x_StdPeriph_Driver/src/stm32f10x_flash.c ****    |                                    |            |               | - For other devices: return 
 190:../lib/STM32F10x_StdPeriph_Driver/src/stm32f10x_flash.c ****    |-----------------------------------------------------------------------------------------------
 191:../lib/STM32F10x_StdPeriph_Driver/src/stm32f10x_flash.c ****    |FLASH_ClearFlag                     |    Yes     |      Yes      | - For STM32F10x_XL devices: 
 192:../lib/STM32F10x_StdPeriph_Driver/src/stm32f10x_flash.c ****    |                                    |            |               | - For other devices: clear B
 193:../lib/STM32F10x_StdPeriph_Driver/src/stm32f10x_flash.c ****    |-----------------------------------------------------------------------------------------------
 194:../lib/STM32F10x_StdPeriph_Driver/src/stm32f10x_flash.c ****    |FLASH_GetStatus                     |    Yes     |      Yes      | - Return the status of Bank1
 195:../lib/STM32F10x_StdPeriph_Driver/src/stm32f10x_flash.c ****    |                                    |            |               |   equivalent to FLASH_GetBan
 196:../lib/STM32F10x_StdPeriph_Driver/src/stm32f10x_flash.c ****    |-----------------------------------------------------------------------------------------------
 197:../lib/STM32F10x_StdPeriph_Driver/src/stm32f10x_flash.c ****    |FLASH_WaitForLastOperation          |    Yes     |      Yes      | - Wait for Bank1 last operat
 198:../lib/STM32F10x_StdPeriph_Driver/src/stm32f10x_flash.c ****    |                                    |            |               |   equivalent to: FLASH_WaitF
 199:../lib/STM32F10x_StdPeriph_Driver/src/stm32f10x_flash.c ****    +-----------------------------------------------------------------------------------------------
 200:../lib/STM32F10x_StdPeriph_Driver/src/stm32f10x_flash.c **** 
 201:../lib/STM32F10x_StdPeriph_Driver/src/stm32f10x_flash.c ****    ************************************************************************************************
 202:../lib/STM32F10x_StdPeriph_Driver/src/stm32f10x_flash.c ****    * New functions used for all STM32F10x devices to manage Bank1:                                 
 203:../lib/STM32F10x_StdPeriph_Driver/src/stm32f10x_flash.c ****    *   - These functions are mainly useful for STM32F10x_XL density devices, to have separate contr
 204:../lib/STM32F10x_StdPeriph_Driver/src/stm32f10x_flash.c ****    *   - For other devices, these functions are optional (covered by functions listed above)       
 205:../lib/STM32F10x_StdPeriph_Driver/src/stm32f10x_flash.c ****    ************************************************************************************************
 206:../lib/STM32F10x_StdPeriph_Driver/src/stm32f10x_flash.c ****    +-----------------------------------------------------------------------------------------------
 207:../lib/STM32F10x_StdPeriph_Driver/src/stm32f10x_flash.c ****    |       Functions prototypes         |STM32F10x_XL|Other STM32F10x|    Comments                 
 208:../lib/STM32F10x_StdPeriph_Driver/src/stm32f10x_flash.c ****    |                                    |   devices  |  devices      |                             
 209:../lib/STM32F10x_StdPeriph_Driver/src/stm32f10x_flash.c ****    |-----------------------------------------------------------------------------------------------
 210:../lib/STM32F10x_StdPeriph_Driver/src/stm32f10x_flash.c ****    | FLASH_UnlockBank1                  |    Yes     |      Yes      | - Unlock Bank1              
 211:../lib/STM32F10x_StdPeriph_Driver/src/stm32f10x_flash.c ****    |-----------------------------------------------------------------------------------------------
 212:../lib/STM32F10x_StdPeriph_Driver/src/stm32f10x_flash.c ****    |FLASH_LockBank1                     |    Yes     |      Yes      | - Lock Bank1                
 213:../lib/STM32F10x_StdPeriph_Driver/src/stm32f10x_flash.c ****    |-----------------------------------------------------------------------------------------------
 214:../lib/STM32F10x_StdPeriph_Driver/src/stm32f10x_flash.c ****    | FLASH_EraseAllBank1Pages           |    Yes     |      Yes      | - Erase all pages in Bank1  
 215:../lib/STM32F10x_StdPeriph_Driver/src/stm32f10x_flash.c ****    |-----------------------------------------------------------------------------------------------
 216:../lib/STM32F10x_StdPeriph_Driver/src/stm32f10x_flash.c ****    | FLASH_GetBank1Status               |    Yes     |      Yes      | - Return the status of Bank1
 217:../lib/STM32F10x_StdPeriph_Driver/src/stm32f10x_flash.c ****    |-----------------------------------------------------------------------------------------------
 218:../lib/STM32F10x_StdPeriph_Driver/src/stm32f10x_flash.c ****    | FLASH_WaitForLastBank1Operation    |    Yes     |      Yes      | - Wait for Bank1 last operat
 219:../lib/STM32F10x_StdPeriph_Driver/src/stm32f10x_flash.c ****    +-----------------------------------------------------------------------------------------------
 220:../lib/STM32F10x_StdPeriph_Driver/src/stm32f10x_flash.c **** 
 221:../lib/STM32F10x_StdPeriph_Driver/src/stm32f10x_flash.c ****    *****************************************************************************
 222:../lib/STM32F10x_StdPeriph_Driver/src/stm32f10x_flash.c ****    * New Functions used only with STM32F10x_XL density devices to manage Bank2 *
 223:../lib/STM32F10x_StdPeriph_Driver/src/stm32f10x_flash.c ****    *****************************************************************************
 224:../lib/STM32F10x_StdPeriph_Driver/src/stm32f10x_flash.c ****    +-----------------------------------------------------------------------------------------------
 225:../lib/STM32F10x_StdPeriph_Driver/src/stm32f10x_flash.c ****    |       Functions prototypes         |STM32F10x_XL|Other STM32F10x|    Comments                 
 226:../lib/STM32F10x_StdPeriph_Driver/src/stm32f10x_flash.c ****    |                                    |   devices  |  devices      |                             
 227:../lib/STM32F10x_StdPeriph_Driver/src/stm32f10x_flash.c ****    |-----------------------------------------------------------------------------------------------
 228:../lib/STM32F10x_StdPeriph_Driver/src/stm32f10x_flash.c ****    | FLASH_UnlockBank2                  |    Yes     |      No       | - Unlock Bank2              
 229:../lib/STM32F10x_StdPeriph_Driver/src/stm32f10x_flash.c ****    |-----------------------------------------------------------------------------------------------
 230:../lib/STM32F10x_StdPeriph_Driver/src/stm32f10x_flash.c ****    |FLASH_LockBank2                     |    Yes     |      No       | - Lock Bank2                
 231:../lib/STM32F10x_StdPeriph_Driver/src/stm32f10x_flash.c ****    |-----------------------------------------------------------------------------------------------
 232:../lib/STM32F10x_StdPeriph_Driver/src/stm32f10x_flash.c ****    | FLASH_EraseAllBank2Pages           |    Yes     |      No       | - Erase all pages in Bank2  
 233:../lib/STM32F10x_StdPeriph_Driver/src/stm32f10x_flash.c ****    |-----------------------------------------------------------------------------------------------
 234:../lib/STM32F10x_StdPeriph_Driver/src/stm32f10x_flash.c ****    | FLASH_GetBank2Status               |    Yes     |      No       | - Return the status of Bank2
 235:../lib/STM32F10x_StdPeriph_Driver/src/stm32f10x_flash.c ****    |-----------------------------------------------------------------------------------------------
 236:../lib/STM32F10x_StdPeriph_Driver/src/stm32f10x_flash.c ****    | FLASH_WaitForLastBank2Operation    |    Yes     |      No       | - Wait for Bank2 last operat
 237:../lib/STM32F10x_StdPeriph_Driver/src/stm32f10x_flash.c ****    |-----------------------------------------------------------------------------------------------
 238:../lib/STM32F10x_StdPeriph_Driver/src/stm32f10x_flash.c ****    | FLASH_BootConfig                   |    Yes     |      No       | - Configure to boot from Ban
 239:../lib/STM32F10x_StdPeriph_Driver/src/stm32f10x_flash.c ****    +-----------------------------------------------------------------------------------------------
 240:../lib/STM32F10x_StdPeriph_Driver/src/stm32f10x_flash.c **** @endcode
 241:../lib/STM32F10x_StdPeriph_Driver/src/stm32f10x_flash.c **** */
 242:../lib/STM32F10x_StdPeriph_Driver/src/stm32f10x_flash.c **** 
 243:../lib/STM32F10x_StdPeriph_Driver/src/stm32f10x_flash.c **** 
 244:../lib/STM32F10x_StdPeriph_Driver/src/stm32f10x_flash.c **** /**
 245:../lib/STM32F10x_StdPeriph_Driver/src/stm32f10x_flash.c ****   * @brief  Sets the code latency value.
 246:../lib/STM32F10x_StdPeriph_Driver/src/stm32f10x_flash.c ****   * @note   This function can be used for all STM32F10x devices.
 247:../lib/STM32F10x_StdPeriph_Driver/src/stm32f10x_flash.c ****   * @param  FLASH_Latency: specifies the FLASH Latency value.
 248:../lib/STM32F10x_StdPeriph_Driver/src/stm32f10x_flash.c ****   *   This parameter can be one of the following values:
 249:../lib/STM32F10x_StdPeriph_Driver/src/stm32f10x_flash.c ****   *     @arg FLASH_Latency_0: FLASH Zero Latency cycle
 250:../lib/STM32F10x_StdPeriph_Driver/src/stm32f10x_flash.c ****   *     @arg FLASH_Latency_1: FLASH One Latency cycle
 251:../lib/STM32F10x_StdPeriph_Driver/src/stm32f10x_flash.c ****   *     @arg FLASH_Latency_2: FLASH Two Latency cycles
 252:../lib/STM32F10x_StdPeriph_Driver/src/stm32f10x_flash.c ****   * @retval None
 253:../lib/STM32F10x_StdPeriph_Driver/src/stm32f10x_flash.c ****   */
 254:../lib/STM32F10x_StdPeriph_Driver/src/stm32f10x_flash.c **** void FLASH_SetLatency(uint32_t FLASH_Latency)
 255:../lib/STM32F10x_StdPeriph_Driver/src/stm32f10x_flash.c **** {
  26              		.loc 1 255 0
  27              		.cfi_startproc
  28              		@ args = 0, pretend = 0, frame = 16
  29              		@ frame_needed = 1, uses_anonymous_args = 0
  30              		@ link register save eliminated.
  31 0000 80B4     		push	{r7}
  32              	.LCFI0:
  33              		.cfi_def_cfa_offset 4
  34              		.cfi_offset 7, -4
  35 0002 85B0     		sub	sp, sp, #20
  36              	.LCFI1:
  37              		.cfi_def_cfa_offset 24
  38 0004 00AF     		add	r7, sp, #0
  39              	.LCFI2:
  40              		.cfi_def_cfa_register 7
  41 0006 7860     		str	r0, [r7, #4]
 256:../lib/STM32F10x_StdPeriph_Driver/src/stm32f10x_flash.c ****   uint32_t tmpreg = 0;
  42              		.loc 1 256 0
  43 0008 4FF00003 		mov	r3, #0
  44 000c FB60     		str	r3, [r7, #12]
 257:../lib/STM32F10x_StdPeriph_Driver/src/stm32f10x_flash.c ****   
 258:../lib/STM32F10x_StdPeriph_Driver/src/stm32f10x_flash.c ****   /* Check the parameters */
 259:../lib/STM32F10x_StdPeriph_Driver/src/stm32f10x_flash.c ****   assert_param(IS_FLASH_LATENCY(FLASH_Latency));
 260:../lib/STM32F10x_StdPeriph_Driver/src/stm32f10x_flash.c ****   
 261:../lib/STM32F10x_StdPeriph_Driver/src/stm32f10x_flash.c ****   /* Read the ACR register */
 262:../lib/STM32F10x_StdPeriph_Driver/src/stm32f10x_flash.c ****   tmpreg = FLASH->ACR;  
  45              		.loc 1 262 0
  46 000e 094B     		ldr	r3, .L2
  47 0010 1B68     		ldr	r3, [r3, #0]
  48 0012 FB60     		str	r3, [r7, #12]
 263:../lib/STM32F10x_StdPeriph_Driver/src/stm32f10x_flash.c ****   
 264:../lib/STM32F10x_StdPeriph_Driver/src/stm32f10x_flash.c ****   /* Sets the Latency value */
 265:../lib/STM32F10x_StdPeriph_Driver/src/stm32f10x_flash.c ****   tmpreg &= ACR_LATENCY_Mask;
  49              		.loc 1 265 0
  50 0014 FB68     		ldr	r3, [r7, #12]
  51 0016 03F03803 		and	r3, r3, #56
  52 001a FB60     		str	r3, [r7, #12]
 266:../lib/STM32F10x_StdPeriph_Driver/src/stm32f10x_flash.c ****   tmpreg |= FLASH_Latency;
  53              		.loc 1 266 0
  54 001c FA68     		ldr	r2, [r7, #12]
  55 001e 7B68     		ldr	r3, [r7, #4]
  56 0020 1343     		orrs	r3, r3, r2
  57 0022 FB60     		str	r3, [r7, #12]
 267:../lib/STM32F10x_StdPeriph_Driver/src/stm32f10x_flash.c ****   
 268:../lib/STM32F10x_StdPeriph_Driver/src/stm32f10x_flash.c ****   /* Write the ACR register */
 269:../lib/STM32F10x_StdPeriph_Driver/src/stm32f10x_flash.c ****   FLASH->ACR = tmpreg;
  58              		.loc 1 269 0
  59 0024 034B     		ldr	r3, .L2
  60 0026 FA68     		ldr	r2, [r7, #12]
  61 0028 1A60     		str	r2, [r3, #0]
 270:../lib/STM32F10x_StdPeriph_Driver/src/stm32f10x_flash.c **** }
  62              		.loc 1 270 0
  63 002a 07F11407 		add	r7, r7, #20
  64 002e BD46     		mov	sp, r7
  65 0030 80BC     		pop	{r7}
  66 0032 7047     		bx	lr
  67              	.L3:
  68              		.align	2
  69              	.L2:
  70 0034 00200240 		.word	1073881088
  71              		.cfi_endproc
  72              	.LFE29:
  74              		.align	2
  75              		.global	FLASH_HalfCycleAccessCmd
  76              		.thumb
  77              		.thumb_func
  79              	FLASH_HalfCycleAccessCmd:
  80              	.LFB30:
 271:../lib/STM32F10x_StdPeriph_Driver/src/stm32f10x_flash.c **** 
 272:../lib/STM32F10x_StdPeriph_Driver/src/stm32f10x_flash.c **** /**
 273:../lib/STM32F10x_StdPeriph_Driver/src/stm32f10x_flash.c ****   * @brief  Enables or disables the Half cycle flash access.
 274:../lib/STM32F10x_StdPeriph_Driver/src/stm32f10x_flash.c ****   * @note   This function can be used for all STM32F10x devices.
 275:../lib/STM32F10x_StdPeriph_Driver/src/stm32f10x_flash.c ****   * @param  FLASH_HalfCycleAccess: specifies the FLASH Half cycle Access mode.
 276:../lib/STM32F10x_StdPeriph_Driver/src/stm32f10x_flash.c ****   *   This parameter can be one of the following values:
 277:../lib/STM32F10x_StdPeriph_Driver/src/stm32f10x_flash.c ****   *     @arg FLASH_HalfCycleAccess_Enable: FLASH Half Cycle Enable
 278:../lib/STM32F10x_StdPeriph_Driver/src/stm32f10x_flash.c ****   *     @arg FLASH_HalfCycleAccess_Disable: FLASH Half Cycle Disable
 279:../lib/STM32F10x_StdPeriph_Driver/src/stm32f10x_flash.c ****   * @retval None
 280:../lib/STM32F10x_StdPeriph_Driver/src/stm32f10x_flash.c ****   */
 281:../lib/STM32F10x_StdPeriph_Driver/src/stm32f10x_flash.c **** void FLASH_HalfCycleAccessCmd(uint32_t FLASH_HalfCycleAccess)
 282:../lib/STM32F10x_StdPeriph_Driver/src/stm32f10x_flash.c **** {
  81              		.loc 1 282 0
  82              		.cfi_startproc
  83              		@ args = 0, pretend = 0, frame = 8
  84              		@ frame_needed = 1, uses_anonymous_args = 0
  85              		@ link register save eliminated.
  86 0038 80B4     		push	{r7}
  87              	.LCFI3:
  88              		.cfi_def_cfa_offset 4
  89              		.cfi_offset 7, -4
  90 003a 83B0     		sub	sp, sp, #12
  91              	.LCFI4:
  92              		.cfi_def_cfa_offset 16
  93 003c 00AF     		add	r7, sp, #0
  94              	.LCFI5:
  95              		.cfi_def_cfa_register 7
  96 003e 7860     		str	r0, [r7, #4]
 283:../lib/STM32F10x_StdPeriph_Driver/src/stm32f10x_flash.c ****   /* Check the parameters */
 284:../lib/STM32F10x_StdPeriph_Driver/src/stm32f10x_flash.c ****   assert_param(IS_FLASH_HALFCYCLEACCESS_STATE(FLASH_HalfCycleAccess));
 285:../lib/STM32F10x_StdPeriph_Driver/src/stm32f10x_flash.c ****   
 286:../lib/STM32F10x_StdPeriph_Driver/src/stm32f10x_flash.c ****   /* Enable or disable the Half cycle access */
 287:../lib/STM32F10x_StdPeriph_Driver/src/stm32f10x_flash.c ****   FLASH->ACR &= ACR_HLFCYA_Mask;
  97              		.loc 1 287 0
  98 0040 084B     		ldr	r3, .L5
  99 0042 084A     		ldr	r2, .L5
 100 0044 1268     		ldr	r2, [r2, #0]
 101 0046 22F00802 		bic	r2, r2, #8
 102 004a 1A60     		str	r2, [r3, #0]
 288:../lib/STM32F10x_StdPeriph_Driver/src/stm32f10x_flash.c ****   FLASH->ACR |= FLASH_HalfCycleAccess;
 103              		.loc 1 288 0
 104 004c 054B     		ldr	r3, .L5
 105 004e 054A     		ldr	r2, .L5
 106 0050 1168     		ldr	r1, [r2, #0]
 107 0052 7A68     		ldr	r2, [r7, #4]
 108 0054 0A43     		orrs	r2, r2, r1
 109 0056 1A60     		str	r2, [r3, #0]
 289:../lib/STM32F10x_StdPeriph_Driver/src/stm32f10x_flash.c **** }
 110              		.loc 1 289 0
 111 0058 07F10C07 		add	r7, r7, #12
 112 005c BD46     		mov	sp, r7
 113 005e 80BC     		pop	{r7}
 114 0060 7047     		bx	lr
 115              	.L6:
 116 0062 00BF     		.align	2
 117              	.L5:
 118 0064 00200240 		.word	1073881088
 119              		.cfi_endproc
 120              	.LFE30:
 122              		.align	2
 123              		.global	FLASH_PrefetchBufferCmd
 124              		.thumb
 125              		.thumb_func
 127              	FLASH_PrefetchBufferCmd:
 128              	.LFB31:
 290:../lib/STM32F10x_StdPeriph_Driver/src/stm32f10x_flash.c **** 
 291:../lib/STM32F10x_StdPeriph_Driver/src/stm32f10x_flash.c **** /**
 292:../lib/STM32F10x_StdPeriph_Driver/src/stm32f10x_flash.c ****   * @brief  Enables or disables the Prefetch Buffer.
 293:../lib/STM32F10x_StdPeriph_Driver/src/stm32f10x_flash.c ****   * @note   This function can be used for all STM32F10x devices.
 294:../lib/STM32F10x_StdPeriph_Driver/src/stm32f10x_flash.c ****   * @param  FLASH_PrefetchBuffer: specifies the Prefetch buffer status.
 295:../lib/STM32F10x_StdPeriph_Driver/src/stm32f10x_flash.c ****   *   This parameter can be one of the following values:
 296:../lib/STM32F10x_StdPeriph_Driver/src/stm32f10x_flash.c ****   *     @arg FLASH_PrefetchBuffer_Enable: FLASH Prefetch Buffer Enable
 297:../lib/STM32F10x_StdPeriph_Driver/src/stm32f10x_flash.c ****   *     @arg FLASH_PrefetchBuffer_Disable: FLASH Prefetch Buffer Disable
 298:../lib/STM32F10x_StdPeriph_Driver/src/stm32f10x_flash.c ****   * @retval None
 299:../lib/STM32F10x_StdPeriph_Driver/src/stm32f10x_flash.c ****   */
 300:../lib/STM32F10x_StdPeriph_Driver/src/stm32f10x_flash.c **** void FLASH_PrefetchBufferCmd(uint32_t FLASH_PrefetchBuffer)
 301:../lib/STM32F10x_StdPeriph_Driver/src/stm32f10x_flash.c **** {
 129              		.loc 1 301 0
 130              		.cfi_startproc
 131              		@ args = 0, pretend = 0, frame = 8
 132              		@ frame_needed = 1, uses_anonymous_args = 0
 133              		@ link register save eliminated.
 134 0068 80B4     		push	{r7}
 135              	.LCFI6:
 136              		.cfi_def_cfa_offset 4
 137              		.cfi_offset 7, -4
 138 006a 83B0     		sub	sp, sp, #12
 139              	.LCFI7:
 140              		.cfi_def_cfa_offset 16
 141 006c 00AF     		add	r7, sp, #0
 142              	.LCFI8:
 143              		.cfi_def_cfa_register 7
 144 006e 7860     		str	r0, [r7, #4]
 302:../lib/STM32F10x_StdPeriph_Driver/src/stm32f10x_flash.c ****   /* Check the parameters */
 303:../lib/STM32F10x_StdPeriph_Driver/src/stm32f10x_flash.c ****   assert_param(IS_FLASH_PREFETCHBUFFER_STATE(FLASH_PrefetchBuffer));
 304:../lib/STM32F10x_StdPeriph_Driver/src/stm32f10x_flash.c ****   
 305:../lib/STM32F10x_StdPeriph_Driver/src/stm32f10x_flash.c ****   /* Enable or disable the Prefetch Buffer */
 306:../lib/STM32F10x_StdPeriph_Driver/src/stm32f10x_flash.c ****   FLASH->ACR &= ACR_PRFTBE_Mask;
 145              		.loc 1 306 0
 146 0070 084B     		ldr	r3, .L8
 147 0072 084A     		ldr	r2, .L8
 148 0074 1268     		ldr	r2, [r2, #0]
 149 0076 22F01002 		bic	r2, r2, #16
 150 007a 1A60     		str	r2, [r3, #0]
 307:../lib/STM32F10x_StdPeriph_Driver/src/stm32f10x_flash.c ****   FLASH->ACR |= FLASH_PrefetchBuffer;
 151              		.loc 1 307 0
 152 007c 054B     		ldr	r3, .L8
 153 007e 054A     		ldr	r2, .L8
 154 0080 1168     		ldr	r1, [r2, #0]
 155 0082 7A68     		ldr	r2, [r7, #4]
 156 0084 0A43     		orrs	r2, r2, r1
 157 0086 1A60     		str	r2, [r3, #0]
 308:../lib/STM32F10x_StdPeriph_Driver/src/stm32f10x_flash.c **** }
 158              		.loc 1 308 0
 159 0088 07F10C07 		add	r7, r7, #12
 160 008c BD46     		mov	sp, r7
 161 008e 80BC     		pop	{r7}
 162 0090 7047     		bx	lr
 163              	.L9:
 164 0092 00BF     		.align	2
 165              	.L8:
 166 0094 00200240 		.word	1073881088
 167              		.cfi_endproc
 168              	.LFE31:
 170              		.align	2
 171              		.global	FLASH_Unlock
 172              		.thumb
 173              		.thumb_func
 175              	FLASH_Unlock:
 176              	.LFB32:
 309:../lib/STM32F10x_StdPeriph_Driver/src/stm32f10x_flash.c **** 
 310:../lib/STM32F10x_StdPeriph_Driver/src/stm32f10x_flash.c **** /**
 311:../lib/STM32F10x_StdPeriph_Driver/src/stm32f10x_flash.c ****   * @brief  Unlocks the FLASH Program Erase Controller.
 312:../lib/STM32F10x_StdPeriph_Driver/src/stm32f10x_flash.c ****   * @note   This function can be used for all STM32F10x devices.
 313:../lib/STM32F10x_StdPeriph_Driver/src/stm32f10x_flash.c ****   *         - For STM32F10X_XL devices this function unlocks Bank1 and Bank2.
 314:../lib/STM32F10x_StdPeriph_Driver/src/stm32f10x_flash.c ****   *         - For all other devices it unlocks Bank1 and it is equivalent 
 315:../lib/STM32F10x_StdPeriph_Driver/src/stm32f10x_flash.c ****   *           to FLASH_UnlockBank1 function.. 
 316:../lib/STM32F10x_StdPeriph_Driver/src/stm32f10x_flash.c ****   * @param  None
 317:../lib/STM32F10x_StdPeriph_Driver/src/stm32f10x_flash.c ****   * @retval None
 318:../lib/STM32F10x_StdPeriph_Driver/src/stm32f10x_flash.c ****   */
 319:../lib/STM32F10x_StdPeriph_Driver/src/stm32f10x_flash.c **** void FLASH_Unlock(void)
 320:../lib/STM32F10x_StdPeriph_Driver/src/stm32f10x_flash.c **** {
 177              		.loc 1 320 0
 178              		.cfi_startproc
 179              		@ args = 0, pretend = 0, frame = 0
 180              		@ frame_needed = 1, uses_anonymous_args = 0
 181              		@ link register save eliminated.
 182 0098 80B4     		push	{r7}
 183              	.LCFI9:
 184              		.cfi_def_cfa_offset 4
 185              		.cfi_offset 7, -4
 186 009a 00AF     		add	r7, sp, #0
 187              	.LCFI10:
 188              		.cfi_def_cfa_register 7
 321:../lib/STM32F10x_StdPeriph_Driver/src/stm32f10x_flash.c ****   /* Authorize the FPEC of Bank1 Access */
 322:../lib/STM32F10x_StdPeriph_Driver/src/stm32f10x_flash.c ****   FLASH->KEYR = FLASH_KEY1;
 189              		.loc 1 322 0
 190 009c 044B     		ldr	r3, .L11
 191 009e 054A     		ldr	r2, .L11+4
 192 00a0 5A60     		str	r2, [r3, #4]
 323:../lib/STM32F10x_StdPeriph_Driver/src/stm32f10x_flash.c ****   FLASH->KEYR = FLASH_KEY2;
 193              		.loc 1 323 0
 194 00a2 034B     		ldr	r3, .L11
 195 00a4 044A     		ldr	r2, .L11+8
 196 00a6 5A60     		str	r2, [r3, #4]
 324:../lib/STM32F10x_StdPeriph_Driver/src/stm32f10x_flash.c **** 
 325:../lib/STM32F10x_StdPeriph_Driver/src/stm32f10x_flash.c **** #ifdef STM32F10X_XL
 326:../lib/STM32F10x_StdPeriph_Driver/src/stm32f10x_flash.c ****   /* Authorize the FPEC of Bank2 Access */
 327:../lib/STM32F10x_StdPeriph_Driver/src/stm32f10x_flash.c ****   FLASH->KEYR2 = FLASH_KEY1;
 328:../lib/STM32F10x_StdPeriph_Driver/src/stm32f10x_flash.c ****   FLASH->KEYR2 = FLASH_KEY2;
 329:../lib/STM32F10x_StdPeriph_Driver/src/stm32f10x_flash.c **** #endif /* STM32F10X_XL */
 330:../lib/STM32F10x_StdPeriph_Driver/src/stm32f10x_flash.c **** }
 197              		.loc 1 330 0
 198 00a8 BD46     		mov	sp, r7
 199 00aa 80BC     		pop	{r7}
 200 00ac 7047     		bx	lr
 201              	.L12:
 202 00ae 00BF     		.align	2
 203              	.L11:
 204 00b0 00200240 		.word	1073881088
 205 00b4 23016745 		.word	1164378403
 206 00b8 AB89EFCD 		.word	-839939669
 207              		.cfi_endproc
 208              	.LFE32:
 210              		.align	2
 211              		.global	FLASH_UnlockBank1
 212              		.thumb
 213              		.thumb_func
 215              	FLASH_UnlockBank1:
 216              	.LFB33:
 331:../lib/STM32F10x_StdPeriph_Driver/src/stm32f10x_flash.c **** /**
 332:../lib/STM32F10x_StdPeriph_Driver/src/stm32f10x_flash.c ****   * @brief  Unlocks the FLASH Bank1 Program Erase Controller.
 333:../lib/STM32F10x_StdPeriph_Driver/src/stm32f10x_flash.c ****   * @note   This function can be used for all STM32F10x devices.
 334:../lib/STM32F10x_StdPeriph_Driver/src/stm32f10x_flash.c ****   *         - For STM32F10X_XL devices this function unlocks Bank1.
 335:../lib/STM32F10x_StdPeriph_Driver/src/stm32f10x_flash.c ****   *         - For all other devices it unlocks Bank1 and it is 
 336:../lib/STM32F10x_StdPeriph_Driver/src/stm32f10x_flash.c ****   *           equivalent to FLASH_Unlock function.
 337:../lib/STM32F10x_StdPeriph_Driver/src/stm32f10x_flash.c ****   * @param  None
 338:../lib/STM32F10x_StdPeriph_Driver/src/stm32f10x_flash.c ****   * @retval None
 339:../lib/STM32F10x_StdPeriph_Driver/src/stm32f10x_flash.c ****   */
 340:../lib/STM32F10x_StdPeriph_Driver/src/stm32f10x_flash.c **** void FLASH_UnlockBank1(void)
 341:../lib/STM32F10x_StdPeriph_Driver/src/stm32f10x_flash.c **** {
 217              		.loc 1 341 0
 218              		.cfi_startproc
 219              		@ args = 0, pretend = 0, frame = 0
 220              		@ frame_needed = 1, uses_anonymous_args = 0
 221              		@ link register save eliminated.
 222 00bc 80B4     		push	{r7}
 223              	.LCFI11:
 224              		.cfi_def_cfa_offset 4
 225              		.cfi_offset 7, -4
 226 00be 00AF     		add	r7, sp, #0
 227              	.LCFI12:
 228              		.cfi_def_cfa_register 7
 342:../lib/STM32F10x_StdPeriph_Driver/src/stm32f10x_flash.c ****   /* Authorize the FPEC of Bank1 Access */
 343:../lib/STM32F10x_StdPeriph_Driver/src/stm32f10x_flash.c ****   FLASH->KEYR = FLASH_KEY1;
 229              		.loc 1 343 0
 230 00c0 044B     		ldr	r3, .L14
 231 00c2 054A     		ldr	r2, .L14+4
 232 00c4 5A60     		str	r2, [r3, #4]
 344:../lib/STM32F10x_StdPeriph_Driver/src/stm32f10x_flash.c ****   FLASH->KEYR = FLASH_KEY2;
 233              		.loc 1 344 0
 234 00c6 034B     		ldr	r3, .L14
 235 00c8 044A     		ldr	r2, .L14+8
 236 00ca 5A60     		str	r2, [r3, #4]
 345:../lib/STM32F10x_StdPeriph_Driver/src/stm32f10x_flash.c **** }
 237              		.loc 1 345 0
 238 00cc BD46     		mov	sp, r7
 239 00ce 80BC     		pop	{r7}
 240 00d0 7047     		bx	lr
 241              	.L15:
 242 00d2 00BF     		.align	2
 243              	.L14:
 244 00d4 00200240 		.word	1073881088
 245 00d8 23016745 		.word	1164378403
 246 00dc AB89EFCD 		.word	-839939669
 247              		.cfi_endproc
 248              	.LFE33:
 250              		.align	2
 251              		.global	FLASH_Lock
 252              		.thumb
 253              		.thumb_func
 255              	FLASH_Lock:
 256              	.LFB34:
 346:../lib/STM32F10x_StdPeriph_Driver/src/stm32f10x_flash.c **** 
 347:../lib/STM32F10x_StdPeriph_Driver/src/stm32f10x_flash.c **** #ifdef STM32F10X_XL
 348:../lib/STM32F10x_StdPeriph_Driver/src/stm32f10x_flash.c **** /**
 349:../lib/STM32F10x_StdPeriph_Driver/src/stm32f10x_flash.c ****   * @brief  Unlocks the FLASH Bank2 Program Erase Controller.
 350:../lib/STM32F10x_StdPeriph_Driver/src/stm32f10x_flash.c ****   * @note   This function can be used only for STM32F10X_XL density devices.
 351:../lib/STM32F10x_StdPeriph_Driver/src/stm32f10x_flash.c ****   * @param  None
 352:../lib/STM32F10x_StdPeriph_Driver/src/stm32f10x_flash.c ****   * @retval None
 353:../lib/STM32F10x_StdPeriph_Driver/src/stm32f10x_flash.c ****   */
 354:../lib/STM32F10x_StdPeriph_Driver/src/stm32f10x_flash.c **** void FLASH_UnlockBank2(void)
 355:../lib/STM32F10x_StdPeriph_Driver/src/stm32f10x_flash.c **** {
 356:../lib/STM32F10x_StdPeriph_Driver/src/stm32f10x_flash.c ****   /* Authorize the FPEC of Bank2 Access */
 357:../lib/STM32F10x_StdPeriph_Driver/src/stm32f10x_flash.c ****   FLASH->KEYR2 = FLASH_KEY1;
 358:../lib/STM32F10x_StdPeriph_Driver/src/stm32f10x_flash.c ****   FLASH->KEYR2 = FLASH_KEY2;
 359:../lib/STM32F10x_StdPeriph_Driver/src/stm32f10x_flash.c **** 
 360:../lib/STM32F10x_StdPeriph_Driver/src/stm32f10x_flash.c **** }
 361:../lib/STM32F10x_StdPeriph_Driver/src/stm32f10x_flash.c **** #endif /* STM32F10X_XL */
 362:../lib/STM32F10x_StdPeriph_Driver/src/stm32f10x_flash.c **** 
 363:../lib/STM32F10x_StdPeriph_Driver/src/stm32f10x_flash.c **** /**
 364:../lib/STM32F10x_StdPeriph_Driver/src/stm32f10x_flash.c ****   * @brief  Locks the FLASH Program Erase Controller.
 365:../lib/STM32F10x_StdPeriph_Driver/src/stm32f10x_flash.c ****   * @note   This function can be used for all STM32F10x devices.
 366:../lib/STM32F10x_StdPeriph_Driver/src/stm32f10x_flash.c ****   *         - For STM32F10X_XL devices this function Locks Bank1 and Bank2.
 367:../lib/STM32F10x_StdPeriph_Driver/src/stm32f10x_flash.c ****   *         - For all other devices it Locks Bank1 and it is equivalent 
 368:../lib/STM32F10x_StdPeriph_Driver/src/stm32f10x_flash.c ****   *           to FLASH_LockBank1 function.
 369:../lib/STM32F10x_StdPeriph_Driver/src/stm32f10x_flash.c ****   * @param  None
 370:../lib/STM32F10x_StdPeriph_Driver/src/stm32f10x_flash.c ****   * @retval None
 371:../lib/STM32F10x_StdPeriph_Driver/src/stm32f10x_flash.c ****   */
 372:../lib/STM32F10x_StdPeriph_Driver/src/stm32f10x_flash.c **** void FLASH_Lock(void)
 373:../lib/STM32F10x_StdPeriph_Driver/src/stm32f10x_flash.c **** {
 257              		.loc 1 373 0
 258              		.cfi_startproc
 259              		@ args = 0, pretend = 0, frame = 0
 260              		@ frame_needed = 1, uses_anonymous_args = 0
 261              		@ link register save eliminated.
 262 00e0 80B4     		push	{r7}
 263              	.LCFI13:
 264              		.cfi_def_cfa_offset 4
 265              		.cfi_offset 7, -4
 266 00e2 00AF     		add	r7, sp, #0
 267              	.LCFI14:
 268              		.cfi_def_cfa_register 7
 374:../lib/STM32F10x_StdPeriph_Driver/src/stm32f10x_flash.c ****   /* Set the Lock Bit to lock the FPEC and the CR of  Bank1 */
 375:../lib/STM32F10x_StdPeriph_Driver/src/stm32f10x_flash.c ****   FLASH->CR |= CR_LOCK_Set;
 269              		.loc 1 375 0
 270 00e4 044B     		ldr	r3, .L17
 271 00e6 044A     		ldr	r2, .L17
 272 00e8 1269     		ldr	r2, [r2, #16]
 273 00ea 42F08002 		orr	r2, r2, #128
 274 00ee 1A61     		str	r2, [r3, #16]
 376:../lib/STM32F10x_StdPeriph_Driver/src/stm32f10x_flash.c **** 
 377:../lib/STM32F10x_StdPeriph_Driver/src/stm32f10x_flash.c **** #ifdef STM32F10X_XL
 378:../lib/STM32F10x_StdPeriph_Driver/src/stm32f10x_flash.c ****   /* Set the Lock Bit to lock the FPEC and the CR of  Bank2 */
 379:../lib/STM32F10x_StdPeriph_Driver/src/stm32f10x_flash.c ****   FLASH->CR2 |= CR_LOCK_Set;
 380:../lib/STM32F10x_StdPeriph_Driver/src/stm32f10x_flash.c **** #endif /* STM32F10X_XL */
 381:../lib/STM32F10x_StdPeriph_Driver/src/stm32f10x_flash.c **** }
 275              		.loc 1 381 0
 276 00f0 BD46     		mov	sp, r7
 277 00f2 80BC     		pop	{r7}
 278 00f4 7047     		bx	lr
 279              	.L18:
 280 00f6 00BF     		.align	2
 281              	.L17:
 282 00f8 00200240 		.word	1073881088
 283              		.cfi_endproc
 284              	.LFE34:
 286              		.align	2
 287              		.global	FLASH_LockBank1
 288              		.thumb
 289              		.thumb_func
 291              	FLASH_LockBank1:
 292              	.LFB35:
 382:../lib/STM32F10x_StdPeriph_Driver/src/stm32f10x_flash.c **** 
 383:../lib/STM32F10x_StdPeriph_Driver/src/stm32f10x_flash.c **** /**
 384:../lib/STM32F10x_StdPeriph_Driver/src/stm32f10x_flash.c ****   * @brief  Locks the FLASH Bank1 Program Erase Controller.
 385:../lib/STM32F10x_StdPeriph_Driver/src/stm32f10x_flash.c ****   * @note   this function can be used for all STM32F10x devices.
 386:../lib/STM32F10x_StdPeriph_Driver/src/stm32f10x_flash.c ****   *         - For STM32F10X_XL devices this function Locks Bank1.
 387:../lib/STM32F10x_StdPeriph_Driver/src/stm32f10x_flash.c ****   *         - For all other devices it Locks Bank1 and it is equivalent 
 388:../lib/STM32F10x_StdPeriph_Driver/src/stm32f10x_flash.c ****   *           to FLASH_Lock function.
 389:../lib/STM32F10x_StdPeriph_Driver/src/stm32f10x_flash.c ****   * @param  None
 390:../lib/STM32F10x_StdPeriph_Driver/src/stm32f10x_flash.c ****   * @retval None
 391:../lib/STM32F10x_StdPeriph_Driver/src/stm32f10x_flash.c ****   */
 392:../lib/STM32F10x_StdPeriph_Driver/src/stm32f10x_flash.c **** void FLASH_LockBank1(void)
 393:../lib/STM32F10x_StdPeriph_Driver/src/stm32f10x_flash.c **** {
 293              		.loc 1 393 0
 294              		.cfi_startproc
 295              		@ args = 0, pretend = 0, frame = 0
 296              		@ frame_needed = 1, uses_anonymous_args = 0
 297              		@ link register save eliminated.
 298 00fc 80B4     		push	{r7}
 299              	.LCFI15:
 300              		.cfi_def_cfa_offset 4
 301              		.cfi_offset 7, -4
 302 00fe 00AF     		add	r7, sp, #0
 303              	.LCFI16:
 304              		.cfi_def_cfa_register 7
 394:../lib/STM32F10x_StdPeriph_Driver/src/stm32f10x_flash.c ****   /* Set the Lock Bit to lock the FPEC and the CR of  Bank1 */
 395:../lib/STM32F10x_StdPeriph_Driver/src/stm32f10x_flash.c ****   FLASH->CR |= CR_LOCK_Set;
 305              		.loc 1 395 0
 306 0100 044B     		ldr	r3, .L20
 307 0102 044A     		ldr	r2, .L20
 308 0104 1269     		ldr	r2, [r2, #16]
 309 0106 42F08002 		orr	r2, r2, #128
 310 010a 1A61     		str	r2, [r3, #16]
 396:../lib/STM32F10x_StdPeriph_Driver/src/stm32f10x_flash.c **** }
 311              		.loc 1 396 0
 312 010c BD46     		mov	sp, r7
 313 010e 80BC     		pop	{r7}
 314 0110 7047     		bx	lr
 315              	.L21:
 316 0112 00BF     		.align	2
 317              	.L20:
 318 0114 00200240 		.word	1073881088
 319              		.cfi_endproc
 320              	.LFE35:
 322              		.align	2
 323              		.global	FLASH_ErasePage
 324              		.thumb
 325              		.thumb_func
 327              	FLASH_ErasePage:
 328              	.LFB36:
 397:../lib/STM32F10x_StdPeriph_Driver/src/stm32f10x_flash.c **** 
 398:../lib/STM32F10x_StdPeriph_Driver/src/stm32f10x_flash.c **** #ifdef STM32F10X_XL
 399:../lib/STM32F10x_StdPeriph_Driver/src/stm32f10x_flash.c **** /**
 400:../lib/STM32F10x_StdPeriph_Driver/src/stm32f10x_flash.c ****   * @brief  Locks the FLASH Bank2 Program Erase Controller.
 401:../lib/STM32F10x_StdPeriph_Driver/src/stm32f10x_flash.c ****   * @note   This function can be used only for STM32F10X_XL density devices.
 402:../lib/STM32F10x_StdPeriph_Driver/src/stm32f10x_flash.c ****   * @param  None
 403:../lib/STM32F10x_StdPeriph_Driver/src/stm32f10x_flash.c ****   * @retval None
 404:../lib/STM32F10x_StdPeriph_Driver/src/stm32f10x_flash.c ****   */
 405:../lib/STM32F10x_StdPeriph_Driver/src/stm32f10x_flash.c **** void FLASH_LockBank2(void)
 406:../lib/STM32F10x_StdPeriph_Driver/src/stm32f10x_flash.c **** {
 407:../lib/STM32F10x_StdPeriph_Driver/src/stm32f10x_flash.c ****   /* Set the Lock Bit to lock the FPEC and the CR of  Bank2 */
 408:../lib/STM32F10x_StdPeriph_Driver/src/stm32f10x_flash.c ****   FLASH->CR2 |= CR_LOCK_Set;
 409:../lib/STM32F10x_StdPeriph_Driver/src/stm32f10x_flash.c **** }
 410:../lib/STM32F10x_StdPeriph_Driver/src/stm32f10x_flash.c **** #endif /* STM32F10X_XL */
 411:../lib/STM32F10x_StdPeriph_Driver/src/stm32f10x_flash.c **** 
 412:../lib/STM32F10x_StdPeriph_Driver/src/stm32f10x_flash.c **** /**
 413:../lib/STM32F10x_StdPeriph_Driver/src/stm32f10x_flash.c ****   * @brief  Erases a specified FLASH page.
 414:../lib/STM32F10x_StdPeriph_Driver/src/stm32f10x_flash.c ****   * @note   This function can be used for all STM32F10x devices.
 415:../lib/STM32F10x_StdPeriph_Driver/src/stm32f10x_flash.c ****   * @param  Page_Address: The page address to be erased.
 416:../lib/STM32F10x_StdPeriph_Driver/src/stm32f10x_flash.c ****   * @retval FLASH Status: The returned value can be: FLASH_BUSY, FLASH_ERROR_PG,
 417:../lib/STM32F10x_StdPeriph_Driver/src/stm32f10x_flash.c ****   *         FLASH_ERROR_WRP, FLASH_COMPLETE or FLASH_TIMEOUT.
 418:../lib/STM32F10x_StdPeriph_Driver/src/stm32f10x_flash.c ****   */
 419:../lib/STM32F10x_StdPeriph_Driver/src/stm32f10x_flash.c **** FLASH_Status FLASH_ErasePage(uint32_t Page_Address)
 420:../lib/STM32F10x_StdPeriph_Driver/src/stm32f10x_flash.c **** {
 329              		.loc 1 420 0
 330              		.cfi_startproc
 331              		@ args = 0, pretend = 0, frame = 16
 332              		@ frame_needed = 1, uses_anonymous_args = 0
 333 0118 80B5     		push	{r7, lr}
 334              	.LCFI17:
 335              		.cfi_def_cfa_offset 8
 336              		.cfi_offset 7, -8
 337              		.cfi_offset 14, -4
 338 011a 84B0     		sub	sp, sp, #16
 339              	.LCFI18:
 340              		.cfi_def_cfa_offset 24
 341 011c 00AF     		add	r7, sp, #0
 342              	.LCFI19:
 343              		.cfi_def_cfa_register 7
 344 011e 7860     		str	r0, [r7, #4]
 421:../lib/STM32F10x_StdPeriph_Driver/src/stm32f10x_flash.c ****   FLASH_Status status = FLASH_COMPLETE;
 345              		.loc 1 421 0
 346 0120 4FF00403 		mov	r3, #4
 347 0124 FB73     		strb	r3, [r7, #15]
 422:../lib/STM32F10x_StdPeriph_Driver/src/stm32f10x_flash.c ****   /* Check the parameters */
 423:../lib/STM32F10x_StdPeriph_Driver/src/stm32f10x_flash.c ****   assert_param(IS_FLASH_ADDRESS(Page_Address));
 424:../lib/STM32F10x_StdPeriph_Driver/src/stm32f10x_flash.c **** 
 425:../lib/STM32F10x_StdPeriph_Driver/src/stm32f10x_flash.c **** #ifdef STM32F10X_XL
 426:../lib/STM32F10x_StdPeriph_Driver/src/stm32f10x_flash.c ****   if(Page_Address < FLASH_BANK1_END_ADDRESS)  
 427:../lib/STM32F10x_StdPeriph_Driver/src/stm32f10x_flash.c ****   {
 428:../lib/STM32F10x_StdPeriph_Driver/src/stm32f10x_flash.c ****     /* Wait for last operation to be completed */
 429:../lib/STM32F10x_StdPeriph_Driver/src/stm32f10x_flash.c ****     status = FLASH_WaitForLastBank1Operation(EraseTimeout);
 430:../lib/STM32F10x_StdPeriph_Driver/src/stm32f10x_flash.c ****     if(status == FLASH_COMPLETE)
 431:../lib/STM32F10x_StdPeriph_Driver/src/stm32f10x_flash.c ****     { 
 432:../lib/STM32F10x_StdPeriph_Driver/src/stm32f10x_flash.c ****       /* if the previous operation is completed, proceed to erase the page */
 433:../lib/STM32F10x_StdPeriph_Driver/src/stm32f10x_flash.c ****       FLASH->CR|= CR_PER_Set;
 434:../lib/STM32F10x_StdPeriph_Driver/src/stm32f10x_flash.c ****       FLASH->AR = Page_Address; 
 435:../lib/STM32F10x_StdPeriph_Driver/src/stm32f10x_flash.c ****       FLASH->CR|= CR_STRT_Set;
 436:../lib/STM32F10x_StdPeriph_Driver/src/stm32f10x_flash.c ****     
 437:../lib/STM32F10x_StdPeriph_Driver/src/stm32f10x_flash.c ****       /* Wait for last operation to be completed */
 438:../lib/STM32F10x_StdPeriph_Driver/src/stm32f10x_flash.c ****       status = FLASH_WaitForLastBank1Operation(EraseTimeout);
 439:../lib/STM32F10x_StdPeriph_Driver/src/stm32f10x_flash.c **** 
 440:../lib/STM32F10x_StdPeriph_Driver/src/stm32f10x_flash.c ****       /* Disable the PER Bit */
 441:../lib/STM32F10x_StdPeriph_Driver/src/stm32f10x_flash.c ****       FLASH->CR &= CR_PER_Reset;
 442:../lib/STM32F10x_StdPeriph_Driver/src/stm32f10x_flash.c ****     }
 443:../lib/STM32F10x_StdPeriph_Driver/src/stm32f10x_flash.c ****   }
 444:../lib/STM32F10x_StdPeriph_Driver/src/stm32f10x_flash.c ****   else
 445:../lib/STM32F10x_StdPeriph_Driver/src/stm32f10x_flash.c ****   {
 446:../lib/STM32F10x_StdPeriph_Driver/src/stm32f10x_flash.c ****     /* Wait for last operation to be completed */
 447:../lib/STM32F10x_StdPeriph_Driver/src/stm32f10x_flash.c ****     status = FLASH_WaitForLastBank2Operation(EraseTimeout);
 448:../lib/STM32F10x_StdPeriph_Driver/src/stm32f10x_flash.c ****     if(status == FLASH_COMPLETE)
 449:../lib/STM32F10x_StdPeriph_Driver/src/stm32f10x_flash.c ****     { 
 450:../lib/STM32F10x_StdPeriph_Driver/src/stm32f10x_flash.c ****       /* if the previous operation is completed, proceed to erase the page */
 451:../lib/STM32F10x_StdPeriph_Driver/src/stm32f10x_flash.c ****       FLASH->CR2|= CR_PER_Set;
 452:../lib/STM32F10x_StdPeriph_Driver/src/stm32f10x_flash.c ****       FLASH->AR2 = Page_Address; 
 453:../lib/STM32F10x_StdPeriph_Driver/src/stm32f10x_flash.c ****       FLASH->CR2|= CR_STRT_Set;
 454:../lib/STM32F10x_StdPeriph_Driver/src/stm32f10x_flash.c ****     
 455:../lib/STM32F10x_StdPeriph_Driver/src/stm32f10x_flash.c ****       /* Wait for last operation to be completed */
 456:../lib/STM32F10x_StdPeriph_Driver/src/stm32f10x_flash.c ****       status = FLASH_WaitForLastBank2Operation(EraseTimeout);
 457:../lib/STM32F10x_StdPeriph_Driver/src/stm32f10x_flash.c ****       
 458:../lib/STM32F10x_StdPeriph_Driver/src/stm32f10x_flash.c ****       /* Disable the PER Bit */
 459:../lib/STM32F10x_StdPeriph_Driver/src/stm32f10x_flash.c ****       FLASH->CR2 &= CR_PER_Reset;
 460:../lib/STM32F10x_StdPeriph_Driver/src/stm32f10x_flash.c ****     }
 461:../lib/STM32F10x_StdPeriph_Driver/src/stm32f10x_flash.c ****   }
 462:../lib/STM32F10x_StdPeriph_Driver/src/stm32f10x_flash.c **** #else
 463:../lib/STM32F10x_StdPeriph_Driver/src/stm32f10x_flash.c ****   /* Wait for last operation to be completed */
 464:../lib/STM32F10x_StdPeriph_Driver/src/stm32f10x_flash.c ****   status = FLASH_WaitForLastOperation(EraseTimeout);
 348              		.loc 1 464 0
 349 0126 4FF43020 		mov	r0, #720896
 350 012a FFF7FEFF 		bl	FLASH_WaitForLastOperation
 351 012e 0346     		mov	r3, r0
 352 0130 FB73     		strb	r3, [r7, #15]
 465:../lib/STM32F10x_StdPeriph_Driver/src/stm32f10x_flash.c ****   
 466:../lib/STM32F10x_StdPeriph_Driver/src/stm32f10x_flash.c ****   if(status == FLASH_COMPLETE)
 353              		.loc 1 466 0
 354 0132 FB7B     		ldrb	r3, [r7, #15]	@ zero_extendqisi2
 355 0134 042B     		cmp	r3, #4
 356 0136 1BD1     		bne	.L23
 467:../lib/STM32F10x_StdPeriph_Driver/src/stm32f10x_flash.c ****   { 
 468:../lib/STM32F10x_StdPeriph_Driver/src/stm32f10x_flash.c ****     /* if the previous operation is completed, proceed to erase the page */
 469:../lib/STM32F10x_StdPeriph_Driver/src/stm32f10x_flash.c ****     FLASH->CR|= CR_PER_Set;
 357              		.loc 1 469 0
 358 0138 104B     		ldr	r3, .L25
 359 013a 104A     		ldr	r2, .L25
 360 013c 1269     		ldr	r2, [r2, #16]
 361 013e 42F00202 		orr	r2, r2, #2
 362 0142 1A61     		str	r2, [r3, #16]
 470:../lib/STM32F10x_StdPeriph_Driver/src/stm32f10x_flash.c ****     FLASH->AR = Page_Address; 
 363              		.loc 1 470 0
 364 0144 0D4B     		ldr	r3, .L25
 365 0146 7A68     		ldr	r2, [r7, #4]
 366 0148 5A61     		str	r2, [r3, #20]
 471:../lib/STM32F10x_StdPeriph_Driver/src/stm32f10x_flash.c ****     FLASH->CR|= CR_STRT_Set;
 367              		.loc 1 471 0
 368 014a 0C4B     		ldr	r3, .L25
 369 014c 0B4A     		ldr	r2, .L25
 370 014e 1269     		ldr	r2, [r2, #16]
 371 0150 42F04002 		orr	r2, r2, #64
 372 0154 1A61     		str	r2, [r3, #16]
 472:../lib/STM32F10x_StdPeriph_Driver/src/stm32f10x_flash.c ****     
 473:../lib/STM32F10x_StdPeriph_Driver/src/stm32f10x_flash.c ****     /* Wait for last operation to be completed */
 474:../lib/STM32F10x_StdPeriph_Driver/src/stm32f10x_flash.c ****     status = FLASH_WaitForLastOperation(EraseTimeout);
 373              		.loc 1 474 0
 374 0156 4FF43020 		mov	r0, #720896
 375 015a FFF7FEFF 		bl	FLASH_WaitForLastOperation
 376 015e 0346     		mov	r3, r0
 377 0160 FB73     		strb	r3, [r7, #15]
 475:../lib/STM32F10x_StdPeriph_Driver/src/stm32f10x_flash.c ****     
 476:../lib/STM32F10x_StdPeriph_Driver/src/stm32f10x_flash.c ****     /* Disable the PER Bit */
 477:../lib/STM32F10x_StdPeriph_Driver/src/stm32f10x_flash.c ****     FLASH->CR &= CR_PER_Reset;
 378              		.loc 1 477 0
 379 0162 064A     		ldr	r2, .L25
 380 0164 054B     		ldr	r3, .L25
 381 0166 1969     		ldr	r1, [r3, #16]
 382 0168 41F6FD73 		movw	r3, #8189
 383 016c 0B40     		ands	r3, r3, r1
 384 016e 1361     		str	r3, [r2, #16]
 385              	.L23:
 478:../lib/STM32F10x_StdPeriph_Driver/src/stm32f10x_flash.c ****   }
 479:../lib/STM32F10x_StdPeriph_Driver/src/stm32f10x_flash.c **** #endif /* STM32F10X_XL */
 480:../lib/STM32F10x_StdPeriph_Driver/src/stm32f10x_flash.c **** 
 481:../lib/STM32F10x_StdPeriph_Driver/src/stm32f10x_flash.c ****   /* Return the Erase Status */
 482:../lib/STM32F10x_StdPeriph_Driver/src/stm32f10x_flash.c ****   return status;
 386              		.loc 1 482 0
 387 0170 FB7B     		ldrb	r3, [r7, #15]	@ zero_extendqisi2
 483:../lib/STM32F10x_StdPeriph_Driver/src/stm32f10x_flash.c **** }
 388              		.loc 1 483 0
 389 0172 1846     		mov	r0, r3
 390 0174 07F11007 		add	r7, r7, #16
 391 0178 BD46     		mov	sp, r7
 392 017a 80BD     		pop	{r7, pc}
 393              	.L26:
 394              		.align	2
 395              	.L25:
 396 017c 00200240 		.word	1073881088
 397              		.cfi_endproc
 398              	.LFE36:
 400              		.align	2
 401              		.global	FLASH_EraseAllPages
 402              		.thumb
 403              		.thumb_func
 405              	FLASH_EraseAllPages:
 406              	.LFB37:
 484:../lib/STM32F10x_StdPeriph_Driver/src/stm32f10x_flash.c **** 
 485:../lib/STM32F10x_StdPeriph_Driver/src/stm32f10x_flash.c **** /**
 486:../lib/STM32F10x_StdPeriph_Driver/src/stm32f10x_flash.c ****   * @brief  Erases all FLASH pages.
 487:../lib/STM32F10x_StdPeriph_Driver/src/stm32f10x_flash.c ****   * @note   This function can be used for all STM32F10x devices.
 488:../lib/STM32F10x_StdPeriph_Driver/src/stm32f10x_flash.c ****   * @param  None
 489:../lib/STM32F10x_StdPeriph_Driver/src/stm32f10x_flash.c ****   * @retval FLASH Status: The returned value can be: FLASH_ERROR_PG,
 490:../lib/STM32F10x_StdPeriph_Driver/src/stm32f10x_flash.c ****   *         FLASH_ERROR_WRP, FLASH_COMPLETE or FLASH_TIMEOUT.
 491:../lib/STM32F10x_StdPeriph_Driver/src/stm32f10x_flash.c ****   */
 492:../lib/STM32F10x_StdPeriph_Driver/src/stm32f10x_flash.c **** FLASH_Status FLASH_EraseAllPages(void)
 493:../lib/STM32F10x_StdPeriph_Driver/src/stm32f10x_flash.c **** {
 407              		.loc 1 493 0
 408              		.cfi_startproc
 409              		@ args = 0, pretend = 0, frame = 8
 410              		@ frame_needed = 1, uses_anonymous_args = 0
 411 0180 80B5     		push	{r7, lr}
 412              	.LCFI20:
 413              		.cfi_def_cfa_offset 8
 414              		.cfi_offset 7, -8
 415              		.cfi_offset 14, -4
 416 0182 82B0     		sub	sp, sp, #8
 417              	.LCFI21:
 418              		.cfi_def_cfa_offset 16
 419 0184 00AF     		add	r7, sp, #0
 420              	.LCFI22:
 421              		.cfi_def_cfa_register 7
 494:../lib/STM32F10x_StdPeriph_Driver/src/stm32f10x_flash.c ****   FLASH_Status status = FLASH_COMPLETE;
 422              		.loc 1 494 0
 423 0186 4FF00403 		mov	r3, #4
 424 018a FB71     		strb	r3, [r7, #7]
 495:../lib/STM32F10x_StdPeriph_Driver/src/stm32f10x_flash.c **** 
 496:../lib/STM32F10x_StdPeriph_Driver/src/stm32f10x_flash.c **** #ifdef STM32F10X_XL
 497:../lib/STM32F10x_StdPeriph_Driver/src/stm32f10x_flash.c ****   /* Wait for last operation to be completed */
 498:../lib/STM32F10x_StdPeriph_Driver/src/stm32f10x_flash.c ****   status = FLASH_WaitForLastBank1Operation(EraseTimeout);
 499:../lib/STM32F10x_StdPeriph_Driver/src/stm32f10x_flash.c ****   
 500:../lib/STM32F10x_StdPeriph_Driver/src/stm32f10x_flash.c ****   if(status == FLASH_COMPLETE)
 501:../lib/STM32F10x_StdPeriph_Driver/src/stm32f10x_flash.c ****   {
 502:../lib/STM32F10x_StdPeriph_Driver/src/stm32f10x_flash.c ****     /* if the previous operation is completed, proceed to erase all pages */
 503:../lib/STM32F10x_StdPeriph_Driver/src/stm32f10x_flash.c ****      FLASH->CR |= CR_MER_Set;
 504:../lib/STM32F10x_StdPeriph_Driver/src/stm32f10x_flash.c ****      FLASH->CR |= CR_STRT_Set;
 505:../lib/STM32F10x_StdPeriph_Driver/src/stm32f10x_flash.c ****     
 506:../lib/STM32F10x_StdPeriph_Driver/src/stm32f10x_flash.c ****     /* Wait for last operation to be completed */
 507:../lib/STM32F10x_StdPeriph_Driver/src/stm32f10x_flash.c ****     status = FLASH_WaitForLastBank1Operation(EraseTimeout);
 508:../lib/STM32F10x_StdPeriph_Driver/src/stm32f10x_flash.c ****     
 509:../lib/STM32F10x_StdPeriph_Driver/src/stm32f10x_flash.c ****     /* Disable the MER Bit */
 510:../lib/STM32F10x_StdPeriph_Driver/src/stm32f10x_flash.c ****     FLASH->CR &= CR_MER_Reset;
 511:../lib/STM32F10x_StdPeriph_Driver/src/stm32f10x_flash.c ****   }    
 512:../lib/STM32F10x_StdPeriph_Driver/src/stm32f10x_flash.c ****   if(status == FLASH_COMPLETE)
 513:../lib/STM32F10x_StdPeriph_Driver/src/stm32f10x_flash.c ****   {
 514:../lib/STM32F10x_StdPeriph_Driver/src/stm32f10x_flash.c ****     /* if the previous operation is completed, proceed to erase all pages */
 515:../lib/STM32F10x_StdPeriph_Driver/src/stm32f10x_flash.c ****      FLASH->CR2 |= CR_MER_Set;
 516:../lib/STM32F10x_StdPeriph_Driver/src/stm32f10x_flash.c ****      FLASH->CR2 |= CR_STRT_Set;
 517:../lib/STM32F10x_StdPeriph_Driver/src/stm32f10x_flash.c ****     
 518:../lib/STM32F10x_StdPeriph_Driver/src/stm32f10x_flash.c ****     /* Wait for last operation to be completed */
 519:../lib/STM32F10x_StdPeriph_Driver/src/stm32f10x_flash.c ****     status = FLASH_WaitForLastBank2Operation(EraseTimeout);
 520:../lib/STM32F10x_StdPeriph_Driver/src/stm32f10x_flash.c ****     
 521:../lib/STM32F10x_StdPeriph_Driver/src/stm32f10x_flash.c ****     /* Disable the MER Bit */
 522:../lib/STM32F10x_StdPeriph_Driver/src/stm32f10x_flash.c ****     FLASH->CR2 &= CR_MER_Reset;
 523:../lib/STM32F10x_StdPeriph_Driver/src/stm32f10x_flash.c ****   }
 524:../lib/STM32F10x_StdPeriph_Driver/src/stm32f10x_flash.c **** #else
 525:../lib/STM32F10x_StdPeriph_Driver/src/stm32f10x_flash.c ****   /* Wait for last operation to be completed */
 526:../lib/STM32F10x_StdPeriph_Driver/src/stm32f10x_flash.c ****   status = FLASH_WaitForLastOperation(EraseTimeout);
 425              		.loc 1 526 0
 426 018c 4FF43020 		mov	r0, #720896
 427 0190 FFF7FEFF 		bl	FLASH_WaitForLastOperation
 428 0194 0346     		mov	r3, r0
 429 0196 FB71     		strb	r3, [r7, #7]
 527:../lib/STM32F10x_StdPeriph_Driver/src/stm32f10x_flash.c ****   if(status == FLASH_COMPLETE)
 430              		.loc 1 527 0
 431 0198 FB79     		ldrb	r3, [r7, #7]	@ zero_extendqisi2
 432 019a 042B     		cmp	r3, #4
 433 019c 18D1     		bne	.L28
 528:../lib/STM32F10x_StdPeriph_Driver/src/stm32f10x_flash.c ****   {
 529:../lib/STM32F10x_StdPeriph_Driver/src/stm32f10x_flash.c ****     /* if the previous operation is completed, proceed to erase all pages */
 530:../lib/STM32F10x_StdPeriph_Driver/src/stm32f10x_flash.c ****      FLASH->CR |= CR_MER_Set;
 434              		.loc 1 530 0
 435 019e 0F4B     		ldr	r3, .L30
 436 01a0 0E4A     		ldr	r2, .L30
 437 01a2 1269     		ldr	r2, [r2, #16]
 438 01a4 42F00402 		orr	r2, r2, #4
 439 01a8 1A61     		str	r2, [r3, #16]
 531:../lib/STM32F10x_StdPeriph_Driver/src/stm32f10x_flash.c ****      FLASH->CR |= CR_STRT_Set;
 440              		.loc 1 531 0
 441 01aa 0C4B     		ldr	r3, .L30
 442 01ac 0B4A     		ldr	r2, .L30
 443 01ae 1269     		ldr	r2, [r2, #16]
 444 01b0 42F04002 		orr	r2, r2, #64
 445 01b4 1A61     		str	r2, [r3, #16]
 532:../lib/STM32F10x_StdPeriph_Driver/src/stm32f10x_flash.c ****     
 533:../lib/STM32F10x_StdPeriph_Driver/src/stm32f10x_flash.c ****     /* Wait for last operation to be completed */
 534:../lib/STM32F10x_StdPeriph_Driver/src/stm32f10x_flash.c ****     status = FLASH_WaitForLastOperation(EraseTimeout);
 446              		.loc 1 534 0
 447 01b6 4FF43020 		mov	r0, #720896
 448 01ba FFF7FEFF 		bl	FLASH_WaitForLastOperation
 449 01be 0346     		mov	r3, r0
 450 01c0 FB71     		strb	r3, [r7, #7]
 535:../lib/STM32F10x_StdPeriph_Driver/src/stm32f10x_flash.c **** 
 536:../lib/STM32F10x_StdPeriph_Driver/src/stm32f10x_flash.c ****     /* Disable the MER Bit */
 537:../lib/STM32F10x_StdPeriph_Driver/src/stm32f10x_flash.c ****     FLASH->CR &= CR_MER_Reset;
 451              		.loc 1 537 0
 452 01c2 064A     		ldr	r2, .L30
 453 01c4 054B     		ldr	r3, .L30
 454 01c6 1969     		ldr	r1, [r3, #16]
 455 01c8 41F6FB73 		movw	r3, #8187
 456 01cc 0B40     		ands	r3, r3, r1
 457 01ce 1361     		str	r3, [r2, #16]
 458              	.L28:
 538:../lib/STM32F10x_StdPeriph_Driver/src/stm32f10x_flash.c ****   }
 539:../lib/STM32F10x_StdPeriph_Driver/src/stm32f10x_flash.c **** #endif /* STM32F10X_XL */
 540:../lib/STM32F10x_StdPeriph_Driver/src/stm32f10x_flash.c **** 
 541:../lib/STM32F10x_StdPeriph_Driver/src/stm32f10x_flash.c ****   /* Return the Erase Status */
 542:../lib/STM32F10x_StdPeriph_Driver/src/stm32f10x_flash.c ****   return status;
 459              		.loc 1 542 0
 460 01d0 FB79     		ldrb	r3, [r7, #7]	@ zero_extendqisi2
 543:../lib/STM32F10x_StdPeriph_Driver/src/stm32f10x_flash.c **** }
 461              		.loc 1 543 0
 462 01d2 1846     		mov	r0, r3
 463 01d4 07F10807 		add	r7, r7, #8
 464 01d8 BD46     		mov	sp, r7
 465 01da 80BD     		pop	{r7, pc}
 466              	.L31:
 467              		.align	2
 468              	.L30:
 469 01dc 00200240 		.word	1073881088
 470              		.cfi_endproc
 471              	.LFE37:
 473              		.align	2
 474              		.global	FLASH_EraseAllBank1Pages
 475              		.thumb
 476              		.thumb_func
 478              	FLASH_EraseAllBank1Pages:
 479              	.LFB38:
 544:../lib/STM32F10x_StdPeriph_Driver/src/stm32f10x_flash.c **** 
 545:../lib/STM32F10x_StdPeriph_Driver/src/stm32f10x_flash.c **** /**
 546:../lib/STM32F10x_StdPeriph_Driver/src/stm32f10x_flash.c ****   * @brief  Erases all Bank1 FLASH pages.
 547:../lib/STM32F10x_StdPeriph_Driver/src/stm32f10x_flash.c ****   * @note   This function can be used for all STM32F10x devices.
 548:../lib/STM32F10x_StdPeriph_Driver/src/stm32f10x_flash.c ****   *         - For STM32F10X_XL devices this function erases all Bank1 pages.
 549:../lib/STM32F10x_StdPeriph_Driver/src/stm32f10x_flash.c ****   *         - For all other devices it erases all Bank1 pages and it is equivalent 
 550:../lib/STM32F10x_StdPeriph_Driver/src/stm32f10x_flash.c ****   *           to FLASH_EraseAllPages function.
 551:../lib/STM32F10x_StdPeriph_Driver/src/stm32f10x_flash.c ****   * @param  None
 552:../lib/STM32F10x_StdPeriph_Driver/src/stm32f10x_flash.c ****   * @retval FLASH Status: The returned value can be: FLASH_ERROR_PG,
 553:../lib/STM32F10x_StdPeriph_Driver/src/stm32f10x_flash.c ****   *         FLASH_ERROR_WRP, FLASH_COMPLETE or FLASH_TIMEOUT.
 554:../lib/STM32F10x_StdPeriph_Driver/src/stm32f10x_flash.c ****   */
 555:../lib/STM32F10x_StdPeriph_Driver/src/stm32f10x_flash.c **** FLASH_Status FLASH_EraseAllBank1Pages(void)
 556:../lib/STM32F10x_StdPeriph_Driver/src/stm32f10x_flash.c **** {
 480              		.loc 1 556 0
 481              		.cfi_startproc
 482              		@ args = 0, pretend = 0, frame = 8
 483              		@ frame_needed = 1, uses_anonymous_args = 0
 484 01e0 80B5     		push	{r7, lr}
 485              	.LCFI23:
 486              		.cfi_def_cfa_offset 8
 487              		.cfi_offset 7, -8
 488              		.cfi_offset 14, -4
 489 01e2 82B0     		sub	sp, sp, #8
 490              	.LCFI24:
 491              		.cfi_def_cfa_offset 16
 492 01e4 00AF     		add	r7, sp, #0
 493              	.LCFI25:
 494              		.cfi_def_cfa_register 7
 557:../lib/STM32F10x_StdPeriph_Driver/src/stm32f10x_flash.c ****   FLASH_Status status = FLASH_COMPLETE;
 495              		.loc 1 557 0
 496 01e6 4FF00403 		mov	r3, #4
 497 01ea FB71     		strb	r3, [r7, #7]
 558:../lib/STM32F10x_StdPeriph_Driver/src/stm32f10x_flash.c ****   /* Wait for last operation to be completed */
 559:../lib/STM32F10x_StdPeriph_Driver/src/stm32f10x_flash.c ****   status = FLASH_WaitForLastBank1Operation(EraseTimeout);
 498              		.loc 1 559 0
 499 01ec 4FF43020 		mov	r0, #720896
 500 01f0 FFF7FEFF 		bl	FLASH_WaitForLastBank1Operation
 501 01f4 0346     		mov	r3, r0
 502 01f6 FB71     		strb	r3, [r7, #7]
 560:../lib/STM32F10x_StdPeriph_Driver/src/stm32f10x_flash.c ****   
 561:../lib/STM32F10x_StdPeriph_Driver/src/stm32f10x_flash.c ****   if(status == FLASH_COMPLETE)
 503              		.loc 1 561 0
 504 01f8 FB79     		ldrb	r3, [r7, #7]	@ zero_extendqisi2
 505 01fa 042B     		cmp	r3, #4
 506 01fc 18D1     		bne	.L33
 562:../lib/STM32F10x_StdPeriph_Driver/src/stm32f10x_flash.c ****   {
 563:../lib/STM32F10x_StdPeriph_Driver/src/stm32f10x_flash.c ****     /* if the previous operation is completed, proceed to erase all pages */
 564:../lib/STM32F10x_StdPeriph_Driver/src/stm32f10x_flash.c ****      FLASH->CR |= CR_MER_Set;
 507              		.loc 1 564 0
 508 01fe 0F4B     		ldr	r3, .L35
 509 0200 0E4A     		ldr	r2, .L35
 510 0202 1269     		ldr	r2, [r2, #16]
 511 0204 42F00402 		orr	r2, r2, #4
 512 0208 1A61     		str	r2, [r3, #16]
 565:../lib/STM32F10x_StdPeriph_Driver/src/stm32f10x_flash.c ****      FLASH->CR |= CR_STRT_Set;
 513              		.loc 1 565 0
 514 020a 0C4B     		ldr	r3, .L35
 515 020c 0B4A     		ldr	r2, .L35
 516 020e 1269     		ldr	r2, [r2, #16]
 517 0210 42F04002 		orr	r2, r2, #64
 518 0214 1A61     		str	r2, [r3, #16]
 566:../lib/STM32F10x_StdPeriph_Driver/src/stm32f10x_flash.c ****     
 567:../lib/STM32F10x_StdPeriph_Driver/src/stm32f10x_flash.c ****     /* Wait for last operation to be completed */
 568:../lib/STM32F10x_StdPeriph_Driver/src/stm32f10x_flash.c ****     status = FLASH_WaitForLastBank1Operation(EraseTimeout);
 519              		.loc 1 568 0
 520 0216 4FF43020 		mov	r0, #720896
 521 021a FFF7FEFF 		bl	FLASH_WaitForLastBank1Operation
 522 021e 0346     		mov	r3, r0
 523 0220 FB71     		strb	r3, [r7, #7]
 569:../lib/STM32F10x_StdPeriph_Driver/src/stm32f10x_flash.c ****     
 570:../lib/STM32F10x_StdPeriph_Driver/src/stm32f10x_flash.c ****     /* Disable the MER Bit */
 571:../lib/STM32F10x_StdPeriph_Driver/src/stm32f10x_flash.c ****     FLASH->CR &= CR_MER_Reset;
 524              		.loc 1 571 0
 525 0222 064A     		ldr	r2, .L35
 526 0224 054B     		ldr	r3, .L35
 527 0226 1969     		ldr	r1, [r3, #16]
 528 0228 41F6FB73 		movw	r3, #8187
 529 022c 0B40     		ands	r3, r3, r1
 530 022e 1361     		str	r3, [r2, #16]
 531              	.L33:
 572:../lib/STM32F10x_StdPeriph_Driver/src/stm32f10x_flash.c ****   }    
 573:../lib/STM32F10x_StdPeriph_Driver/src/stm32f10x_flash.c ****   /* Return the Erase Status */
 574:../lib/STM32F10x_StdPeriph_Driver/src/stm32f10x_flash.c ****   return status;
 532              		.loc 1 574 0
 533 0230 FB79     		ldrb	r3, [r7, #7]	@ zero_extendqisi2
 575:../lib/STM32F10x_StdPeriph_Driver/src/stm32f10x_flash.c **** }
 534              		.loc 1 575 0
 535 0232 1846     		mov	r0, r3
 536 0234 07F10807 		add	r7, r7, #8
 537 0238 BD46     		mov	sp, r7
 538 023a 80BD     		pop	{r7, pc}
 539              	.L36:
 540              		.align	2
 541              	.L35:
 542 023c 00200240 		.word	1073881088
 543              		.cfi_endproc
 544              	.LFE38:
 546              		.align	2
 547              		.global	FLASH_EraseOptionBytes
 548              		.thumb
 549              		.thumb_func
 551              	FLASH_EraseOptionBytes:
 552              	.LFB39:
 576:../lib/STM32F10x_StdPeriph_Driver/src/stm32f10x_flash.c **** 
 577:../lib/STM32F10x_StdPeriph_Driver/src/stm32f10x_flash.c **** #ifdef STM32F10X_XL
 578:../lib/STM32F10x_StdPeriph_Driver/src/stm32f10x_flash.c **** /**
 579:../lib/STM32F10x_StdPeriph_Driver/src/stm32f10x_flash.c ****   * @brief  Erases all Bank2 FLASH pages.
 580:../lib/STM32F10x_StdPeriph_Driver/src/stm32f10x_flash.c ****   * @note   This function can be used only for STM32F10x_XL density devices.
 581:../lib/STM32F10x_StdPeriph_Driver/src/stm32f10x_flash.c ****   * @param  None
 582:../lib/STM32F10x_StdPeriph_Driver/src/stm32f10x_flash.c ****   * @retval FLASH Status: The returned value can be: FLASH_ERROR_PG,
 583:../lib/STM32F10x_StdPeriph_Driver/src/stm32f10x_flash.c ****   *         FLASH_ERROR_WRP, FLASH_COMPLETE or FLASH_TIMEOUT.
 584:../lib/STM32F10x_StdPeriph_Driver/src/stm32f10x_flash.c ****   */
 585:../lib/STM32F10x_StdPeriph_Driver/src/stm32f10x_flash.c **** FLASH_Status FLASH_EraseAllBank2Pages(void)
 586:../lib/STM32F10x_StdPeriph_Driver/src/stm32f10x_flash.c **** {
 587:../lib/STM32F10x_StdPeriph_Driver/src/stm32f10x_flash.c ****   FLASH_Status status = FLASH_COMPLETE;
 588:../lib/STM32F10x_StdPeriph_Driver/src/stm32f10x_flash.c ****   /* Wait for last operation to be completed */
 589:../lib/STM32F10x_StdPeriph_Driver/src/stm32f10x_flash.c ****   status = FLASH_WaitForLastBank2Operation(EraseTimeout);
 590:../lib/STM32F10x_StdPeriph_Driver/src/stm32f10x_flash.c ****   
 591:../lib/STM32F10x_StdPeriph_Driver/src/stm32f10x_flash.c ****   if(status == FLASH_COMPLETE)
 592:../lib/STM32F10x_StdPeriph_Driver/src/stm32f10x_flash.c ****   {
 593:../lib/STM32F10x_StdPeriph_Driver/src/stm32f10x_flash.c ****     /* if the previous operation is completed, proceed to erase all pages */
 594:../lib/STM32F10x_StdPeriph_Driver/src/stm32f10x_flash.c ****      FLASH->CR2 |= CR_MER_Set;
 595:../lib/STM32F10x_StdPeriph_Driver/src/stm32f10x_flash.c ****      FLASH->CR2 |= CR_STRT_Set;
 596:../lib/STM32F10x_StdPeriph_Driver/src/stm32f10x_flash.c ****     
 597:../lib/STM32F10x_StdPeriph_Driver/src/stm32f10x_flash.c ****     /* Wait for last operation to be completed */
 598:../lib/STM32F10x_StdPeriph_Driver/src/stm32f10x_flash.c ****     status = FLASH_WaitForLastBank2Operation(EraseTimeout);
 599:../lib/STM32F10x_StdPeriph_Driver/src/stm32f10x_flash.c **** 
 600:../lib/STM32F10x_StdPeriph_Driver/src/stm32f10x_flash.c ****     /* Disable the MER Bit */
 601:../lib/STM32F10x_StdPeriph_Driver/src/stm32f10x_flash.c ****     FLASH->CR2 &= CR_MER_Reset;
 602:../lib/STM32F10x_StdPeriph_Driver/src/stm32f10x_flash.c ****   }    
 603:../lib/STM32F10x_StdPeriph_Driver/src/stm32f10x_flash.c ****   /* Return the Erase Status */
 604:../lib/STM32F10x_StdPeriph_Driver/src/stm32f10x_flash.c ****   return status;
 605:../lib/STM32F10x_StdPeriph_Driver/src/stm32f10x_flash.c **** }
 606:../lib/STM32F10x_StdPeriph_Driver/src/stm32f10x_flash.c **** #endif /* STM32F10X_XL */
 607:../lib/STM32F10x_StdPeriph_Driver/src/stm32f10x_flash.c **** 
 608:../lib/STM32F10x_StdPeriph_Driver/src/stm32f10x_flash.c **** /**
 609:../lib/STM32F10x_StdPeriph_Driver/src/stm32f10x_flash.c ****   * @brief  Erases the FLASH option bytes.
 610:../lib/STM32F10x_StdPeriph_Driver/src/stm32f10x_flash.c ****   * @note   This functions erases all option bytes except the Read protection (RDP). 
 611:../lib/STM32F10x_StdPeriph_Driver/src/stm32f10x_flash.c ****   * @note   This function can be used for all STM32F10x devices.
 612:../lib/STM32F10x_StdPeriph_Driver/src/stm32f10x_flash.c ****   * @param  None
 613:../lib/STM32F10x_StdPeriph_Driver/src/stm32f10x_flash.c ****   * @retval FLASH Status: The returned value can be: FLASH_ERROR_PG,
 614:../lib/STM32F10x_StdPeriph_Driver/src/stm32f10x_flash.c ****   *         FLASH_ERROR_WRP, FLASH_COMPLETE or FLASH_TIMEOUT.
 615:../lib/STM32F10x_StdPeriph_Driver/src/stm32f10x_flash.c ****   */
 616:../lib/STM32F10x_StdPeriph_Driver/src/stm32f10x_flash.c **** FLASH_Status FLASH_EraseOptionBytes(void)
 617:../lib/STM32F10x_StdPeriph_Driver/src/stm32f10x_flash.c **** {
 553              		.loc 1 617 0
 554              		.cfi_startproc
 555              		@ args = 0, pretend = 0, frame = 8
 556              		@ frame_needed = 1, uses_anonymous_args = 0
 557 0240 80B5     		push	{r7, lr}
 558              	.LCFI26:
 559              		.cfi_def_cfa_offset 8
 560              		.cfi_offset 7, -8
 561              		.cfi_offset 14, -4
 562 0242 82B0     		sub	sp, sp, #8
 563              	.LCFI27:
 564              		.cfi_def_cfa_offset 16
 565 0244 00AF     		add	r7, sp, #0
 566              	.LCFI28:
 567              		.cfi_def_cfa_register 7
 618:../lib/STM32F10x_StdPeriph_Driver/src/stm32f10x_flash.c ****   uint16_t rdptmp = RDP_Key;
 568              		.loc 1 618 0
 569 0246 4FF0A503 		mov	r3, #165
 570 024a FB80     		strh	r3, [r7, #6]	@ movhi
 619:../lib/STM32F10x_StdPeriph_Driver/src/stm32f10x_flash.c **** 
 620:../lib/STM32F10x_StdPeriph_Driver/src/stm32f10x_flash.c ****   FLASH_Status status = FLASH_COMPLETE;
 571              		.loc 1 620 0
 572 024c 4FF00403 		mov	r3, #4
 573 0250 7B71     		strb	r3, [r7, #5]
 621:../lib/STM32F10x_StdPeriph_Driver/src/stm32f10x_flash.c **** 
 622:../lib/STM32F10x_StdPeriph_Driver/src/stm32f10x_flash.c ****   /* Get the actual read protection Option Byte value */ 
 623:../lib/STM32F10x_StdPeriph_Driver/src/stm32f10x_flash.c ****   if(FLASH_GetReadOutProtectionStatus() != RESET)
 574              		.loc 1 623 0
 575 0252 FFF7FEFF 		bl	FLASH_GetReadOutProtectionStatus
 576 0256 0346     		mov	r3, r0
 577 0258 002B     		cmp	r3, #0
 578 025a 02D0     		beq	.L38
 624:../lib/STM32F10x_StdPeriph_Driver/src/stm32f10x_flash.c ****   {
 625:../lib/STM32F10x_StdPeriph_Driver/src/stm32f10x_flash.c ****     rdptmp = 0x00;  
 579              		.loc 1 625 0
 580 025c 4FF00003 		mov	r3, #0
 581 0260 FB80     		strh	r3, [r7, #6]	@ movhi
 582              	.L38:
 626:../lib/STM32F10x_StdPeriph_Driver/src/stm32f10x_flash.c ****   }
 627:../lib/STM32F10x_StdPeriph_Driver/src/stm32f10x_flash.c **** 
 628:../lib/STM32F10x_StdPeriph_Driver/src/stm32f10x_flash.c ****   /* Wait for last operation to be completed */
 629:../lib/STM32F10x_StdPeriph_Driver/src/stm32f10x_flash.c ****   status = FLASH_WaitForLastOperation(EraseTimeout);
 583              		.loc 1 629 0
 584 0262 4FF43020 		mov	r0, #720896
 585 0266 FFF7FEFF 		bl	FLASH_WaitForLastOperation
 586 026a 0346     		mov	r3, r0
 587 026c 7B71     		strb	r3, [r7, #5]
 630:../lib/STM32F10x_StdPeriph_Driver/src/stm32f10x_flash.c ****   if(status == FLASH_COMPLETE)
 588              		.loc 1 630 0
 589 026e 7B79     		ldrb	r3, [r7, #5]	@ zero_extendqisi2
 590 0270 042B     		cmp	r3, #4
 591 0272 45D1     		bne	.L39
 631:../lib/STM32F10x_StdPeriph_Driver/src/stm32f10x_flash.c ****   {
 632:../lib/STM32F10x_StdPeriph_Driver/src/stm32f10x_flash.c ****     /* Authorize the small information block programming */
 633:../lib/STM32F10x_StdPeriph_Driver/src/stm32f10x_flash.c ****     FLASH->OPTKEYR = FLASH_KEY1;
 592              		.loc 1 633 0
 593 0274 254B     		ldr	r3, .L42
 594 0276 264A     		ldr	r2, .L42+4
 595 0278 9A60     		str	r2, [r3, #8]
 634:../lib/STM32F10x_StdPeriph_Driver/src/stm32f10x_flash.c ****     FLASH->OPTKEYR = FLASH_KEY2;
 596              		.loc 1 634 0
 597 027a 244B     		ldr	r3, .L42
 598 027c 254A     		ldr	r2, .L42+8
 599 027e 9A60     		str	r2, [r3, #8]
 635:../lib/STM32F10x_StdPeriph_Driver/src/stm32f10x_flash.c ****     
 636:../lib/STM32F10x_StdPeriph_Driver/src/stm32f10x_flash.c ****     /* if the previous operation is completed, proceed to erase the option bytes */
 637:../lib/STM32F10x_StdPeriph_Driver/src/stm32f10x_flash.c ****     FLASH->CR |= CR_OPTER_Set;
 600              		.loc 1 637 0
 601 0280 224B     		ldr	r3, .L42
 602 0282 224A     		ldr	r2, .L42
 603 0284 1269     		ldr	r2, [r2, #16]
 604 0286 42F02002 		orr	r2, r2, #32
 605 028a 1A61     		str	r2, [r3, #16]
 638:../lib/STM32F10x_StdPeriph_Driver/src/stm32f10x_flash.c ****     FLASH->CR |= CR_STRT_Set;
 606              		.loc 1 638 0
 607 028c 1F4B     		ldr	r3, .L42
 608 028e 1F4A     		ldr	r2, .L42
 609 0290 1269     		ldr	r2, [r2, #16]
 610 0292 42F04002 		orr	r2, r2, #64
 611 0296 1A61     		str	r2, [r3, #16]
 639:../lib/STM32F10x_StdPeriph_Driver/src/stm32f10x_flash.c ****     /* Wait for last operation to be completed */
 640:../lib/STM32F10x_StdPeriph_Driver/src/stm32f10x_flash.c ****     status = FLASH_WaitForLastOperation(EraseTimeout);
 612              		.loc 1 640 0
 613 0298 4FF43020 		mov	r0, #720896
 614 029c FFF7FEFF 		bl	FLASH_WaitForLastOperation
 615 02a0 0346     		mov	r3, r0
 616 02a2 7B71     		strb	r3, [r7, #5]
 641:../lib/STM32F10x_StdPeriph_Driver/src/stm32f10x_flash.c ****     
 642:../lib/STM32F10x_StdPeriph_Driver/src/stm32f10x_flash.c ****     if(status == FLASH_COMPLETE)
 617              		.loc 1 642 0
 618 02a4 7B79     		ldrb	r3, [r7, #5]	@ zero_extendqisi2
 619 02a6 042B     		cmp	r3, #4
 620 02a8 20D1     		bne	.L40
 643:../lib/STM32F10x_StdPeriph_Driver/src/stm32f10x_flash.c ****     {
 644:../lib/STM32F10x_StdPeriph_Driver/src/stm32f10x_flash.c ****       /* if the erase operation is completed, disable the OPTER Bit */
 645:../lib/STM32F10x_StdPeriph_Driver/src/stm32f10x_flash.c ****       FLASH->CR &= CR_OPTER_Reset;
 621              		.loc 1 645 0
 622 02aa 184A     		ldr	r2, .L42
 623 02ac 174B     		ldr	r3, .L42
 624 02ae 1969     		ldr	r1, [r3, #16]
 625 02b0 41F6DF73 		movw	r3, #8159
 626 02b4 0B40     		ands	r3, r3, r1
 627 02b6 1361     		str	r3, [r2, #16]
 646:../lib/STM32F10x_StdPeriph_Driver/src/stm32f10x_flash.c ****        
 647:../lib/STM32F10x_StdPeriph_Driver/src/stm32f10x_flash.c ****       /* Enable the Option Bytes Programming operation */
 648:../lib/STM32F10x_StdPeriph_Driver/src/stm32f10x_flash.c ****       FLASH->CR |= CR_OPTPG_Set;
 628              		.loc 1 648 0
 629 02b8 144B     		ldr	r3, .L42
 630 02ba 144A     		ldr	r2, .L42
 631 02bc 1269     		ldr	r2, [r2, #16]
 632 02be 42F01002 		orr	r2, r2, #16
 633 02c2 1A61     		str	r2, [r3, #16]
 649:../lib/STM32F10x_StdPeriph_Driver/src/stm32f10x_flash.c ****       /* Restore the last read protection Option Byte value */
 650:../lib/STM32F10x_StdPeriph_Driver/src/stm32f10x_flash.c ****       OB->RDP = (uint16_t)rdptmp; 
 634              		.loc 1 650 0
 635 02c4 144B     		ldr	r3, .L42+12
 636 02c6 FA88     		ldrh	r2, [r7, #6]	@ movhi
 637 02c8 1A80     		strh	r2, [r3, #0]	@ movhi
 651:../lib/STM32F10x_StdPeriph_Driver/src/stm32f10x_flash.c ****       /* Wait for last operation to be completed */
 652:../lib/STM32F10x_StdPeriph_Driver/src/stm32f10x_flash.c ****       status = FLASH_WaitForLastOperation(ProgramTimeout);
 638              		.loc 1 652 0
 639 02ca 4FF40050 		mov	r0, #8192
 640 02ce FFF7FEFF 		bl	FLASH_WaitForLastOperation
 641 02d2 0346     		mov	r3, r0
 642 02d4 7B71     		strb	r3, [r7, #5]
 653:../lib/STM32F10x_StdPeriph_Driver/src/stm32f10x_flash.c ****  
 654:../lib/STM32F10x_StdPeriph_Driver/src/stm32f10x_flash.c ****       if(status != FLASH_TIMEOUT)
 643              		.loc 1 654 0
 644 02d6 7B79     		ldrb	r3, [r7, #5]	@ zero_extendqisi2
 645 02d8 052B     		cmp	r3, #5
 646 02da 11D0     		beq	.L39
 655:../lib/STM32F10x_StdPeriph_Driver/src/stm32f10x_flash.c ****       {
 656:../lib/STM32F10x_StdPeriph_Driver/src/stm32f10x_flash.c ****         /* if the program operation is completed, disable the OPTPG Bit */
 657:../lib/STM32F10x_StdPeriph_Driver/src/stm32f10x_flash.c ****         FLASH->CR &= CR_OPTPG_Reset;
 647              		.loc 1 657 0
 648 02dc 0B4A     		ldr	r2, .L42
 649 02de 0B4B     		ldr	r3, .L42
 650 02e0 1969     		ldr	r1, [r3, #16]
 651 02e2 41F6EF73 		movw	r3, #8175
 652 02e6 0B40     		ands	r3, r3, r1
 653 02e8 1361     		str	r3, [r2, #16]
 654 02ea 09E0     		b	.L39
 655              	.L40:
 658:../lib/STM32F10x_StdPeriph_Driver/src/stm32f10x_flash.c ****       }
 659:../lib/STM32F10x_StdPeriph_Driver/src/stm32f10x_flash.c ****     }
 660:../lib/STM32F10x_StdPeriph_Driver/src/stm32f10x_flash.c ****     else
 661:../lib/STM32F10x_StdPeriph_Driver/src/stm32f10x_flash.c ****     {
 662:../lib/STM32F10x_StdPeriph_Driver/src/stm32f10x_flash.c ****       if (status != FLASH_TIMEOUT)
 656              		.loc 1 662 0
 657 02ec 7B79     		ldrb	r3, [r7, #5]	@ zero_extendqisi2
 658 02ee 052B     		cmp	r3, #5
 659 02f0 06D0     		beq	.L39
 663:../lib/STM32F10x_StdPeriph_Driver/src/stm32f10x_flash.c ****       {
 664:../lib/STM32F10x_StdPeriph_Driver/src/stm32f10x_flash.c ****         /* Disable the OPTPG Bit */
 665:../lib/STM32F10x_StdPeriph_Driver/src/stm32f10x_flash.c ****         FLASH->CR &= CR_OPTPG_Reset;
 660              		.loc 1 665 0
 661 02f2 064A     		ldr	r2, .L42
 662 02f4 054B     		ldr	r3, .L42
 663 02f6 1969     		ldr	r1, [r3, #16]
 664 02f8 41F6EF73 		movw	r3, #8175
 665 02fc 0B40     		ands	r3, r3, r1
 666 02fe 1361     		str	r3, [r2, #16]
 667              	.L39:
 666:../lib/STM32F10x_StdPeriph_Driver/src/stm32f10x_flash.c ****       }
 667:../lib/STM32F10x_StdPeriph_Driver/src/stm32f10x_flash.c ****     }  
 668:../lib/STM32F10x_StdPeriph_Driver/src/stm32f10x_flash.c ****   }
 669:../lib/STM32F10x_StdPeriph_Driver/src/stm32f10x_flash.c ****   /* Return the erase status */
 670:../lib/STM32F10x_StdPeriph_Driver/src/stm32f10x_flash.c ****   return status;
 668              		.loc 1 670 0
 669 0300 7B79     		ldrb	r3, [r7, #5]	@ zero_extendqisi2
 671:../lib/STM32F10x_StdPeriph_Driver/src/stm32f10x_flash.c **** }
 670              		.loc 1 671 0
 671 0302 1846     		mov	r0, r3
 672 0304 07F10807 		add	r7, r7, #8
 673 0308 BD46     		mov	sp, r7
 674 030a 80BD     		pop	{r7, pc}
 675              	.L43:
 676              		.align	2
 677              	.L42:
 678 030c 00200240 		.word	1073881088
 679 0310 23016745 		.word	1164378403
 680 0314 AB89EFCD 		.word	-839939669
 681 0318 00F8FF1F 		.word	536868864
 682              		.cfi_endproc
 683              	.LFE39:
 685              		.align	2
 686              		.global	FLASH_ProgramWord
 687              		.thumb
 688              		.thumb_func
 690              	FLASH_ProgramWord:
 691              	.LFB40:
 672:../lib/STM32F10x_StdPeriph_Driver/src/stm32f10x_flash.c **** 
 673:../lib/STM32F10x_StdPeriph_Driver/src/stm32f10x_flash.c **** /**
 674:../lib/STM32F10x_StdPeriph_Driver/src/stm32f10x_flash.c ****   * @brief  Programs a word at a specified address.
 675:../lib/STM32F10x_StdPeriph_Driver/src/stm32f10x_flash.c ****   * @note   This function can be used for all STM32F10x devices.
 676:../lib/STM32F10x_StdPeriph_Driver/src/stm32f10x_flash.c ****   * @param  Address: specifies the address to be programmed.
 677:../lib/STM32F10x_StdPeriph_Driver/src/stm32f10x_flash.c ****   * @param  Data: specifies the data to be programmed.
 678:../lib/STM32F10x_StdPeriph_Driver/src/stm32f10x_flash.c ****   * @retval FLASH Status: The returned value can be: FLASH_ERROR_PG,
 679:../lib/STM32F10x_StdPeriph_Driver/src/stm32f10x_flash.c ****   *         FLASH_ERROR_WRP, FLASH_COMPLETE or FLASH_TIMEOUT. 
 680:../lib/STM32F10x_StdPeriph_Driver/src/stm32f10x_flash.c ****   */
 681:../lib/STM32F10x_StdPeriph_Driver/src/stm32f10x_flash.c **** FLASH_Status FLASH_ProgramWord(uint32_t Address, uint32_t Data)
 682:../lib/STM32F10x_StdPeriph_Driver/src/stm32f10x_flash.c **** {
 692              		.loc 1 682 0
 693              		.cfi_startproc
 694              		@ args = 0, pretend = 0, frame = 16
 695              		@ frame_needed = 1, uses_anonymous_args = 0
 696 031c 80B5     		push	{r7, lr}
 697              	.LCFI29:
 698              		.cfi_def_cfa_offset 8
 699              		.cfi_offset 7, -8
 700              		.cfi_offset 14, -4
 701 031e 84B0     		sub	sp, sp, #16
 702              	.LCFI30:
 703              		.cfi_def_cfa_offset 24
 704 0320 00AF     		add	r7, sp, #0
 705              	.LCFI31:
 706              		.cfi_def_cfa_register 7
 707 0322 7860     		str	r0, [r7, #4]
 708 0324 3960     		str	r1, [r7, #0]
 683:../lib/STM32F10x_StdPeriph_Driver/src/stm32f10x_flash.c ****   FLASH_Status status = FLASH_COMPLETE;
 709              		.loc 1 683 0
 710 0326 4FF00403 		mov	r3, #4
 711 032a FB73     		strb	r3, [r7, #15]
 684:../lib/STM32F10x_StdPeriph_Driver/src/stm32f10x_flash.c ****   __IO uint32_t tmp = 0;
 712              		.loc 1 684 0
 713 032c 4FF00003 		mov	r3, #0
 714 0330 BB60     		str	r3, [r7, #8]
 685:../lib/STM32F10x_StdPeriph_Driver/src/stm32f10x_flash.c **** 
 686:../lib/STM32F10x_StdPeriph_Driver/src/stm32f10x_flash.c ****   /* Check the parameters */
 687:../lib/STM32F10x_StdPeriph_Driver/src/stm32f10x_flash.c ****   assert_param(IS_FLASH_ADDRESS(Address));
 688:../lib/STM32F10x_StdPeriph_Driver/src/stm32f10x_flash.c **** 
 689:../lib/STM32F10x_StdPeriph_Driver/src/stm32f10x_flash.c **** #ifdef STM32F10X_XL
 690:../lib/STM32F10x_StdPeriph_Driver/src/stm32f10x_flash.c ****   if(Address < FLASH_BANK1_END_ADDRESS - 2)
 691:../lib/STM32F10x_StdPeriph_Driver/src/stm32f10x_flash.c ****   { 
 692:../lib/STM32F10x_StdPeriph_Driver/src/stm32f10x_flash.c ****     /* Wait for last operation to be completed */
 693:../lib/STM32F10x_StdPeriph_Driver/src/stm32f10x_flash.c ****     status = FLASH_WaitForLastBank1Operation(ProgramTimeout); 
 694:../lib/STM32F10x_StdPeriph_Driver/src/stm32f10x_flash.c ****     if(status == FLASH_COMPLETE)
 695:../lib/STM32F10x_StdPeriph_Driver/src/stm32f10x_flash.c ****     {
 696:../lib/STM32F10x_StdPeriph_Driver/src/stm32f10x_flash.c ****       /* if the previous operation is completed, proceed to program the new first 
 697:../lib/STM32F10x_StdPeriph_Driver/src/stm32f10x_flash.c ****         half word */
 698:../lib/STM32F10x_StdPeriph_Driver/src/stm32f10x_flash.c ****       FLASH->CR |= CR_PG_Set;
 699:../lib/STM32F10x_StdPeriph_Driver/src/stm32f10x_flash.c ****   
 700:../lib/STM32F10x_StdPeriph_Driver/src/stm32f10x_flash.c ****       *(__IO uint16_t*)Address = (uint16_t)Data;
 701:../lib/STM32F10x_StdPeriph_Driver/src/stm32f10x_flash.c ****       /* Wait for last operation to be completed */
 702:../lib/STM32F10x_StdPeriph_Driver/src/stm32f10x_flash.c ****       status = FLASH_WaitForLastOperation(ProgramTimeout);
 703:../lib/STM32F10x_StdPeriph_Driver/src/stm32f10x_flash.c ****  
 704:../lib/STM32F10x_StdPeriph_Driver/src/stm32f10x_flash.c ****       if(status == FLASH_COMPLETE)
 705:../lib/STM32F10x_StdPeriph_Driver/src/stm32f10x_flash.c ****       {
 706:../lib/STM32F10x_StdPeriph_Driver/src/stm32f10x_flash.c ****         /* if the previous operation is completed, proceed to program the new second 
 707:../lib/STM32F10x_StdPeriph_Driver/src/stm32f10x_flash.c ****         half word */
 708:../lib/STM32F10x_StdPeriph_Driver/src/stm32f10x_flash.c ****         tmp = Address + 2;
 709:../lib/STM32F10x_StdPeriph_Driver/src/stm32f10x_flash.c **** 
 710:../lib/STM32F10x_StdPeriph_Driver/src/stm32f10x_flash.c ****         *(__IO uint16_t*) tmp = Data >> 16;
 711:../lib/STM32F10x_StdPeriph_Driver/src/stm32f10x_flash.c ****     
 712:../lib/STM32F10x_StdPeriph_Driver/src/stm32f10x_flash.c ****         /* Wait for last operation to be completed */
 713:../lib/STM32F10x_StdPeriph_Driver/src/stm32f10x_flash.c ****         status = FLASH_WaitForLastOperation(ProgramTimeout);
 714:../lib/STM32F10x_StdPeriph_Driver/src/stm32f10x_flash.c ****         
 715:../lib/STM32F10x_StdPeriph_Driver/src/stm32f10x_flash.c ****         /* Disable the PG Bit */
 716:../lib/STM32F10x_StdPeriph_Driver/src/stm32f10x_flash.c ****         FLASH->CR &= CR_PG_Reset;
 717:../lib/STM32F10x_StdPeriph_Driver/src/stm32f10x_flash.c ****       }
 718:../lib/STM32F10x_StdPeriph_Driver/src/stm32f10x_flash.c ****       else
 719:../lib/STM32F10x_StdPeriph_Driver/src/stm32f10x_flash.c ****       {
 720:../lib/STM32F10x_StdPeriph_Driver/src/stm32f10x_flash.c ****         /* Disable the PG Bit */
 721:../lib/STM32F10x_StdPeriph_Driver/src/stm32f10x_flash.c ****         FLASH->CR &= CR_PG_Reset;
 722:../lib/STM32F10x_StdPeriph_Driver/src/stm32f10x_flash.c ****        }
 723:../lib/STM32F10x_StdPeriph_Driver/src/stm32f10x_flash.c ****     }
 724:../lib/STM32F10x_StdPeriph_Driver/src/stm32f10x_flash.c ****   }
 725:../lib/STM32F10x_StdPeriph_Driver/src/stm32f10x_flash.c ****   else if(Address == (FLASH_BANK1_END_ADDRESS - 1))
 726:../lib/STM32F10x_StdPeriph_Driver/src/stm32f10x_flash.c ****   {
 727:../lib/STM32F10x_StdPeriph_Driver/src/stm32f10x_flash.c ****     /* Wait for last operation to be completed */
 728:../lib/STM32F10x_StdPeriph_Driver/src/stm32f10x_flash.c ****     status = FLASH_WaitForLastBank1Operation(ProgramTimeout);
 729:../lib/STM32F10x_StdPeriph_Driver/src/stm32f10x_flash.c **** 
 730:../lib/STM32F10x_StdPeriph_Driver/src/stm32f10x_flash.c ****     if(status == FLASH_COMPLETE)
 731:../lib/STM32F10x_StdPeriph_Driver/src/stm32f10x_flash.c ****     {
 732:../lib/STM32F10x_StdPeriph_Driver/src/stm32f10x_flash.c ****       /* if the previous operation is completed, proceed to program the new first 
 733:../lib/STM32F10x_StdPeriph_Driver/src/stm32f10x_flash.c ****         half word */
 734:../lib/STM32F10x_StdPeriph_Driver/src/stm32f10x_flash.c ****       FLASH->CR |= CR_PG_Set;
 735:../lib/STM32F10x_StdPeriph_Driver/src/stm32f10x_flash.c ****   
 736:../lib/STM32F10x_StdPeriph_Driver/src/stm32f10x_flash.c ****       *(__IO uint16_t*)Address = (uint16_t)Data;
 737:../lib/STM32F10x_StdPeriph_Driver/src/stm32f10x_flash.c **** 
 738:../lib/STM32F10x_StdPeriph_Driver/src/stm32f10x_flash.c ****       /* Wait for last operation to be completed */
 739:../lib/STM32F10x_StdPeriph_Driver/src/stm32f10x_flash.c ****       status = FLASH_WaitForLastBank1Operation(ProgramTimeout);
 740:../lib/STM32F10x_StdPeriph_Driver/src/stm32f10x_flash.c ****       
 741:../lib/STM32F10x_StdPeriph_Driver/src/stm32f10x_flash.c **** 	  /* Disable the PG Bit */
 742:../lib/STM32F10x_StdPeriph_Driver/src/stm32f10x_flash.c ****       FLASH->CR &= CR_PG_Reset;
 743:../lib/STM32F10x_StdPeriph_Driver/src/stm32f10x_flash.c ****     }
 744:../lib/STM32F10x_StdPeriph_Driver/src/stm32f10x_flash.c ****     else
 745:../lib/STM32F10x_StdPeriph_Driver/src/stm32f10x_flash.c ****     {
 746:../lib/STM32F10x_StdPeriph_Driver/src/stm32f10x_flash.c ****       /* Disable the PG Bit */
 747:../lib/STM32F10x_StdPeriph_Driver/src/stm32f10x_flash.c ****       FLASH->CR &= CR_PG_Reset;
 748:../lib/STM32F10x_StdPeriph_Driver/src/stm32f10x_flash.c ****     }
 749:../lib/STM32F10x_StdPeriph_Driver/src/stm32f10x_flash.c **** 
 750:../lib/STM32F10x_StdPeriph_Driver/src/stm32f10x_flash.c ****     /* Wait for last operation to be completed */
 751:../lib/STM32F10x_StdPeriph_Driver/src/stm32f10x_flash.c ****     status = FLASH_WaitForLastBank2Operation(ProgramTimeout);
 752:../lib/STM32F10x_StdPeriph_Driver/src/stm32f10x_flash.c **** 
 753:../lib/STM32F10x_StdPeriph_Driver/src/stm32f10x_flash.c ****     if(status == FLASH_COMPLETE)
 754:../lib/STM32F10x_StdPeriph_Driver/src/stm32f10x_flash.c ****     {
 755:../lib/STM32F10x_StdPeriph_Driver/src/stm32f10x_flash.c ****       /* if the previous operation is completed, proceed to program the new second 
 756:../lib/STM32F10x_StdPeriph_Driver/src/stm32f10x_flash.c ****       half word */
 757:../lib/STM32F10x_StdPeriph_Driver/src/stm32f10x_flash.c ****       FLASH->CR2 |= CR_PG_Set;
 758:../lib/STM32F10x_StdPeriph_Driver/src/stm32f10x_flash.c ****       tmp = Address + 2;
 759:../lib/STM32F10x_StdPeriph_Driver/src/stm32f10x_flash.c **** 
 760:../lib/STM32F10x_StdPeriph_Driver/src/stm32f10x_flash.c ****       *(__IO uint16_t*) tmp = Data >> 16;
 761:../lib/STM32F10x_StdPeriph_Driver/src/stm32f10x_flash.c ****     
 762:../lib/STM32F10x_StdPeriph_Driver/src/stm32f10x_flash.c ****       /* Wait for last operation to be completed */
 763:../lib/STM32F10x_StdPeriph_Driver/src/stm32f10x_flash.c ****       status = FLASH_WaitForLastBank2Operation(ProgramTimeout);
 764:../lib/STM32F10x_StdPeriph_Driver/src/stm32f10x_flash.c ****         
 765:../lib/STM32F10x_StdPeriph_Driver/src/stm32f10x_flash.c ****       /* Disable the PG Bit */
 766:../lib/STM32F10x_StdPeriph_Driver/src/stm32f10x_flash.c ****       FLASH->CR2 &= CR_PG_Reset;
 767:../lib/STM32F10x_StdPeriph_Driver/src/stm32f10x_flash.c ****     }
 768:../lib/STM32F10x_StdPeriph_Driver/src/stm32f10x_flash.c ****     else
 769:../lib/STM32F10x_StdPeriph_Driver/src/stm32f10x_flash.c ****     {
 770:../lib/STM32F10x_StdPeriph_Driver/src/stm32f10x_flash.c ****       /* Disable the PG Bit */
 771:../lib/STM32F10x_StdPeriph_Driver/src/stm32f10x_flash.c ****       FLASH->CR2 &= CR_PG_Reset;
 772:../lib/STM32F10x_StdPeriph_Driver/src/stm32f10x_flash.c ****     }
 773:../lib/STM32F10x_StdPeriph_Driver/src/stm32f10x_flash.c ****   }
 774:../lib/STM32F10x_StdPeriph_Driver/src/stm32f10x_flash.c ****   else
 775:../lib/STM32F10x_StdPeriph_Driver/src/stm32f10x_flash.c ****   {
 776:../lib/STM32F10x_StdPeriph_Driver/src/stm32f10x_flash.c ****     /* Wait for last operation to be completed */
 777:../lib/STM32F10x_StdPeriph_Driver/src/stm32f10x_flash.c ****     status = FLASH_WaitForLastBank2Operation(ProgramTimeout);
 778:../lib/STM32F10x_StdPeriph_Driver/src/stm32f10x_flash.c **** 
 779:../lib/STM32F10x_StdPeriph_Driver/src/stm32f10x_flash.c ****     if(status == FLASH_COMPLETE)
 780:../lib/STM32F10x_StdPeriph_Driver/src/stm32f10x_flash.c ****     {
 781:../lib/STM32F10x_StdPeriph_Driver/src/stm32f10x_flash.c ****       /* if the previous operation is completed, proceed to program the new first 
 782:../lib/STM32F10x_StdPeriph_Driver/src/stm32f10x_flash.c ****         half word */
 783:../lib/STM32F10x_StdPeriph_Driver/src/stm32f10x_flash.c ****       FLASH->CR2 |= CR_PG_Set;
 784:../lib/STM32F10x_StdPeriph_Driver/src/stm32f10x_flash.c ****   
 785:../lib/STM32F10x_StdPeriph_Driver/src/stm32f10x_flash.c ****       *(__IO uint16_t*)Address = (uint16_t)Data;
 786:../lib/STM32F10x_StdPeriph_Driver/src/stm32f10x_flash.c ****       /* Wait for last operation to be completed */
 787:../lib/STM32F10x_StdPeriph_Driver/src/stm32f10x_flash.c ****       status = FLASH_WaitForLastBank2Operation(ProgramTimeout);
 788:../lib/STM32F10x_StdPeriph_Driver/src/stm32f10x_flash.c ****  
 789:../lib/STM32F10x_StdPeriph_Driver/src/stm32f10x_flash.c ****       if(status == FLASH_COMPLETE)
 790:../lib/STM32F10x_StdPeriph_Driver/src/stm32f10x_flash.c ****       {
 791:../lib/STM32F10x_StdPeriph_Driver/src/stm32f10x_flash.c ****         /* if the previous operation is completed, proceed to program the new second 
 792:../lib/STM32F10x_StdPeriph_Driver/src/stm32f10x_flash.c ****         half word */
 793:../lib/STM32F10x_StdPeriph_Driver/src/stm32f10x_flash.c ****         tmp = Address + 2;
 794:../lib/STM32F10x_StdPeriph_Driver/src/stm32f10x_flash.c **** 
 795:../lib/STM32F10x_StdPeriph_Driver/src/stm32f10x_flash.c ****         *(__IO uint16_t*) tmp = Data >> 16;
 796:../lib/STM32F10x_StdPeriph_Driver/src/stm32f10x_flash.c ****     
 797:../lib/STM32F10x_StdPeriph_Driver/src/stm32f10x_flash.c ****         /* Wait for last operation to be completed */
 798:../lib/STM32F10x_StdPeriph_Driver/src/stm32f10x_flash.c ****         status = FLASH_WaitForLastBank2Operation(ProgramTimeout);
 799:../lib/STM32F10x_StdPeriph_Driver/src/stm32f10x_flash.c ****         
 800:../lib/STM32F10x_StdPeriph_Driver/src/stm32f10x_flash.c ****         /* Disable the PG Bit */
 801:../lib/STM32F10x_StdPeriph_Driver/src/stm32f10x_flash.c ****         FLASH->CR2 &= CR_PG_Reset;
 802:../lib/STM32F10x_StdPeriph_Driver/src/stm32f10x_flash.c ****       }
 803:../lib/STM32F10x_StdPeriph_Driver/src/stm32f10x_flash.c ****       else
 804:../lib/STM32F10x_StdPeriph_Driver/src/stm32f10x_flash.c ****       {
 805:../lib/STM32F10x_StdPeriph_Driver/src/stm32f10x_flash.c ****         /* Disable the PG Bit */
 806:../lib/STM32F10x_StdPeriph_Driver/src/stm32f10x_flash.c ****         FLASH->CR2 &= CR_PG_Reset;
 807:../lib/STM32F10x_StdPeriph_Driver/src/stm32f10x_flash.c ****       }
 808:../lib/STM32F10x_StdPeriph_Driver/src/stm32f10x_flash.c ****     }
 809:../lib/STM32F10x_StdPeriph_Driver/src/stm32f10x_flash.c ****   }
 810:../lib/STM32F10x_StdPeriph_Driver/src/stm32f10x_flash.c **** #else
 811:../lib/STM32F10x_StdPeriph_Driver/src/stm32f10x_flash.c ****   /* Wait for last operation to be completed */
 812:../lib/STM32F10x_StdPeriph_Driver/src/stm32f10x_flash.c ****   status = FLASH_WaitForLastOperation(ProgramTimeout);
 715              		.loc 1 812 0
 716 0332 4FF40050 		mov	r0, #8192
 717 0336 FFF7FEFF 		bl	FLASH_WaitForLastOperation
 718 033a 0346     		mov	r3, r0
 719 033c FB73     		strb	r3, [r7, #15]
 813:../lib/STM32F10x_StdPeriph_Driver/src/stm32f10x_flash.c ****   
 814:../lib/STM32F10x_StdPeriph_Driver/src/stm32f10x_flash.c ****   if(status == FLASH_COMPLETE)
 720              		.loc 1 814 0
 721 033e FB7B     		ldrb	r3, [r7, #15]	@ zero_extendqisi2
 722 0340 042B     		cmp	r3, #4
 723 0342 31D1     		bne	.L45
 815:../lib/STM32F10x_StdPeriph_Driver/src/stm32f10x_flash.c ****   {
 816:../lib/STM32F10x_StdPeriph_Driver/src/stm32f10x_flash.c ****     /* if the previous operation is completed, proceed to program the new first 
 817:../lib/STM32F10x_StdPeriph_Driver/src/stm32f10x_flash.c ****     half word */
 818:../lib/STM32F10x_StdPeriph_Driver/src/stm32f10x_flash.c ****     FLASH->CR |= CR_PG_Set;
 724              		.loc 1 818 0
 725 0344 1B4B     		ldr	r3, .L48
 726 0346 1B4A     		ldr	r2, .L48
 727 0348 1269     		ldr	r2, [r2, #16]
 728 034a 42F00102 		orr	r2, r2, #1
 729 034e 1A61     		str	r2, [r3, #16]
 819:../lib/STM32F10x_StdPeriph_Driver/src/stm32f10x_flash.c ****   
 820:../lib/STM32F10x_StdPeriph_Driver/src/stm32f10x_flash.c ****     *(__IO uint16_t*)Address = (uint16_t)Data;
 730              		.loc 1 820 0
 731 0350 7B68     		ldr	r3, [r7, #4]
 732 0352 3A68     		ldr	r2, [r7, #0]
 733 0354 92B2     		uxth	r2, r2
 734 0356 1A80     		strh	r2, [r3, #0]	@ movhi
 821:../lib/STM32F10x_StdPeriph_Driver/src/stm32f10x_flash.c ****     /* Wait for last operation to be completed */
 822:../lib/STM32F10x_StdPeriph_Driver/src/stm32f10x_flash.c ****     status = FLASH_WaitForLastOperation(ProgramTimeout);
 735              		.loc 1 822 0
 736 0358 4FF40050 		mov	r0, #8192
 737 035c FFF7FEFF 		bl	FLASH_WaitForLastOperation
 738 0360 0346     		mov	r3, r0
 739 0362 FB73     		strb	r3, [r7, #15]
 823:../lib/STM32F10x_StdPeriph_Driver/src/stm32f10x_flash.c ****  
 824:../lib/STM32F10x_StdPeriph_Driver/src/stm32f10x_flash.c ****     if(status == FLASH_COMPLETE)
 740              		.loc 1 824 0
 741 0364 FB7B     		ldrb	r3, [r7, #15]	@ zero_extendqisi2
 742 0366 042B     		cmp	r3, #4
 743 0368 17D1     		bne	.L46
 825:../lib/STM32F10x_StdPeriph_Driver/src/stm32f10x_flash.c ****     {
 826:../lib/STM32F10x_StdPeriph_Driver/src/stm32f10x_flash.c ****       /* if the previous operation is completed, proceed to program the new second 
 827:../lib/STM32F10x_StdPeriph_Driver/src/stm32f10x_flash.c ****       half word */
 828:../lib/STM32F10x_StdPeriph_Driver/src/stm32f10x_flash.c ****       tmp = Address + 2;
 744              		.loc 1 828 0
 745 036a 7B68     		ldr	r3, [r7, #4]
 746 036c 03F10203 		add	r3, r3, #2
 747 0370 BB60     		str	r3, [r7, #8]
 829:../lib/STM32F10x_StdPeriph_Driver/src/stm32f10x_flash.c **** 
 830:../lib/STM32F10x_StdPeriph_Driver/src/stm32f10x_flash.c ****       *(__IO uint16_t*) tmp = Data >> 16;
 748              		.loc 1 830 0
 749 0372 BB68     		ldr	r3, [r7, #8]
 750 0374 3A68     		ldr	r2, [r7, #0]
 751 0376 4FEA1242 		lsr	r2, r2, #16
 752 037a 92B2     		uxth	r2, r2
 753 037c 1A80     		strh	r2, [r3, #0]	@ movhi
 831:../lib/STM32F10x_StdPeriph_Driver/src/stm32f10x_flash.c ****     
 832:../lib/STM32F10x_StdPeriph_Driver/src/stm32f10x_flash.c ****       /* Wait for last operation to be completed */
 833:../lib/STM32F10x_StdPeriph_Driver/src/stm32f10x_flash.c ****       status = FLASH_WaitForLastOperation(ProgramTimeout);
 754              		.loc 1 833 0
 755 037e 4FF40050 		mov	r0, #8192
 756 0382 FFF7FEFF 		bl	FLASH_WaitForLastOperation
 757 0386 0346     		mov	r3, r0
 758 0388 FB73     		strb	r3, [r7, #15]
 834:../lib/STM32F10x_StdPeriph_Driver/src/stm32f10x_flash.c ****         
 835:../lib/STM32F10x_StdPeriph_Driver/src/stm32f10x_flash.c ****       /* Disable the PG Bit */
 836:../lib/STM32F10x_StdPeriph_Driver/src/stm32f10x_flash.c ****       FLASH->CR &= CR_PG_Reset;
 759              		.loc 1 836 0
 760 038a 0A4A     		ldr	r2, .L48
 761 038c 094B     		ldr	r3, .L48
 762 038e 1969     		ldr	r1, [r3, #16]
 763 0390 41F6FE73 		movw	r3, #8190
 764 0394 0B40     		ands	r3, r3, r1
 765 0396 1361     		str	r3, [r2, #16]
 766 0398 06E0     		b	.L45
 767              	.L46:
 837:../lib/STM32F10x_StdPeriph_Driver/src/stm32f10x_flash.c ****     }
 838:../lib/STM32F10x_StdPeriph_Driver/src/stm32f10x_flash.c ****     else
 839:../lib/STM32F10x_StdPeriph_Driver/src/stm32f10x_flash.c ****     {
 840:../lib/STM32F10x_StdPeriph_Driver/src/stm32f10x_flash.c ****       /* Disable the PG Bit */
 841:../lib/STM32F10x_StdPeriph_Driver/src/stm32f10x_flash.c ****       FLASH->CR &= CR_PG_Reset;
 768              		.loc 1 841 0
 769 039a 064A     		ldr	r2, .L48
 770 039c 054B     		ldr	r3, .L48
 771 039e 1969     		ldr	r1, [r3, #16]
 772 03a0 41F6FE73 		movw	r3, #8190
 773 03a4 0B40     		ands	r3, r3, r1
 774 03a6 1361     		str	r3, [r2, #16]
 775              	.L45:
 842:../lib/STM32F10x_StdPeriph_Driver/src/stm32f10x_flash.c ****     }
 843:../lib/STM32F10x_StdPeriph_Driver/src/stm32f10x_flash.c ****   }         
 844:../lib/STM32F10x_StdPeriph_Driver/src/stm32f10x_flash.c **** #endif /* STM32F10X_XL */
 845:../lib/STM32F10x_StdPeriph_Driver/src/stm32f10x_flash.c ****    
 846:../lib/STM32F10x_StdPeriph_Driver/src/stm32f10x_flash.c ****   /* Return the Program Status */
 847:../lib/STM32F10x_StdPeriph_Driver/src/stm32f10x_flash.c ****   return status;
 776              		.loc 1 847 0
 777 03a8 FB7B     		ldrb	r3, [r7, #15]	@ zero_extendqisi2
 848:../lib/STM32F10x_StdPeriph_Driver/src/stm32f10x_flash.c **** }
 778              		.loc 1 848 0
 779 03aa 1846     		mov	r0, r3
 780 03ac 07F11007 		add	r7, r7, #16
 781 03b0 BD46     		mov	sp, r7
 782 03b2 80BD     		pop	{r7, pc}
 783              	.L49:
 784              		.align	2
 785              	.L48:
 786 03b4 00200240 		.word	1073881088
 787              		.cfi_endproc
 788              	.LFE40:
 790              		.align	2
 791              		.global	FLASH_ProgramHalfWord
 792              		.thumb
 793              		.thumb_func
 795              	FLASH_ProgramHalfWord:
 796              	.LFB41:
 849:../lib/STM32F10x_StdPeriph_Driver/src/stm32f10x_flash.c **** 
 850:../lib/STM32F10x_StdPeriph_Driver/src/stm32f10x_flash.c **** /**
 851:../lib/STM32F10x_StdPeriph_Driver/src/stm32f10x_flash.c ****   * @brief  Programs a half word at a specified address.
 852:../lib/STM32F10x_StdPeriph_Driver/src/stm32f10x_flash.c ****   * @note   This function can be used for all STM32F10x devices.
 853:../lib/STM32F10x_StdPeriph_Driver/src/stm32f10x_flash.c ****   * @param  Address: specifies the address to be programmed.
 854:../lib/STM32F10x_StdPeriph_Driver/src/stm32f10x_flash.c ****   * @param  Data: specifies the data to be programmed.
 855:../lib/STM32F10x_StdPeriph_Driver/src/stm32f10x_flash.c ****   * @retval FLASH Status: The returned value can be: FLASH_ERROR_PG,
 856:../lib/STM32F10x_StdPeriph_Driver/src/stm32f10x_flash.c ****   *         FLASH_ERROR_WRP, FLASH_COMPLETE or FLASH_TIMEOUT. 
 857:../lib/STM32F10x_StdPeriph_Driver/src/stm32f10x_flash.c ****   */
 858:../lib/STM32F10x_StdPeriph_Driver/src/stm32f10x_flash.c **** FLASH_Status FLASH_ProgramHalfWord(uint32_t Address, uint16_t Data)
 859:../lib/STM32F10x_StdPeriph_Driver/src/stm32f10x_flash.c **** {
 797              		.loc 1 859 0
 798              		.cfi_startproc
 799              		@ args = 0, pretend = 0, frame = 16
 800              		@ frame_needed = 1, uses_anonymous_args = 0
 801 03b8 80B5     		push	{r7, lr}
 802              	.LCFI32:
 803              		.cfi_def_cfa_offset 8
 804              		.cfi_offset 7, -8
 805              		.cfi_offset 14, -4
 806 03ba 84B0     		sub	sp, sp, #16
 807              	.LCFI33:
 808              		.cfi_def_cfa_offset 24
 809 03bc 00AF     		add	r7, sp, #0
 810              	.LCFI34:
 811              		.cfi_def_cfa_register 7
 812 03be 7860     		str	r0, [r7, #4]
 813 03c0 0B46     		mov	r3, r1
 814 03c2 7B80     		strh	r3, [r7, #2]	@ movhi
 860:../lib/STM32F10x_StdPeriph_Driver/src/stm32f10x_flash.c ****   FLASH_Status status = FLASH_COMPLETE;
 815              		.loc 1 860 0
 816 03c4 4FF00403 		mov	r3, #4
 817 03c8 FB73     		strb	r3, [r7, #15]
 861:../lib/STM32F10x_StdPeriph_Driver/src/stm32f10x_flash.c ****   /* Check the parameters */
 862:../lib/STM32F10x_StdPeriph_Driver/src/stm32f10x_flash.c ****   assert_param(IS_FLASH_ADDRESS(Address));
 863:../lib/STM32F10x_StdPeriph_Driver/src/stm32f10x_flash.c **** 
 864:../lib/STM32F10x_StdPeriph_Driver/src/stm32f10x_flash.c **** #ifdef STM32F10X_XL
 865:../lib/STM32F10x_StdPeriph_Driver/src/stm32f10x_flash.c ****   /* Wait for last operation to be completed */
 866:../lib/STM32F10x_StdPeriph_Driver/src/stm32f10x_flash.c ****   status = FLASH_WaitForLastOperation(ProgramTimeout);
 867:../lib/STM32F10x_StdPeriph_Driver/src/stm32f10x_flash.c ****   
 868:../lib/STM32F10x_StdPeriph_Driver/src/stm32f10x_flash.c ****   if(Address < FLASH_BANK1_END_ADDRESS)
 869:../lib/STM32F10x_StdPeriph_Driver/src/stm32f10x_flash.c ****   {
 870:../lib/STM32F10x_StdPeriph_Driver/src/stm32f10x_flash.c ****     if(status == FLASH_COMPLETE)
 871:../lib/STM32F10x_StdPeriph_Driver/src/stm32f10x_flash.c ****     {
 872:../lib/STM32F10x_StdPeriph_Driver/src/stm32f10x_flash.c ****       /* if the previous operation is completed, proceed to program the new data */
 873:../lib/STM32F10x_StdPeriph_Driver/src/stm32f10x_flash.c ****       FLASH->CR |= CR_PG_Set;
 874:../lib/STM32F10x_StdPeriph_Driver/src/stm32f10x_flash.c ****   
 875:../lib/STM32F10x_StdPeriph_Driver/src/stm32f10x_flash.c ****       *(__IO uint16_t*)Address = Data;
 876:../lib/STM32F10x_StdPeriph_Driver/src/stm32f10x_flash.c ****       /* Wait for last operation to be completed */
 877:../lib/STM32F10x_StdPeriph_Driver/src/stm32f10x_flash.c ****       status = FLASH_WaitForLastBank1Operation(ProgramTimeout);
 878:../lib/STM32F10x_StdPeriph_Driver/src/stm32f10x_flash.c **** 
 879:../lib/STM32F10x_StdPeriph_Driver/src/stm32f10x_flash.c ****       /* Disable the PG Bit */
 880:../lib/STM32F10x_StdPeriph_Driver/src/stm32f10x_flash.c ****       FLASH->CR &= CR_PG_Reset;
 881:../lib/STM32F10x_StdPeriph_Driver/src/stm32f10x_flash.c ****     }
 882:../lib/STM32F10x_StdPeriph_Driver/src/stm32f10x_flash.c ****   }
 883:../lib/STM32F10x_StdPeriph_Driver/src/stm32f10x_flash.c ****   else
 884:../lib/STM32F10x_StdPeriph_Driver/src/stm32f10x_flash.c ****   {
 885:../lib/STM32F10x_StdPeriph_Driver/src/stm32f10x_flash.c ****     if(status == FLASH_COMPLETE)
 886:../lib/STM32F10x_StdPeriph_Driver/src/stm32f10x_flash.c ****     {
 887:../lib/STM32F10x_StdPeriph_Driver/src/stm32f10x_flash.c ****       /* if the previous operation is completed, proceed to program the new data */
 888:../lib/STM32F10x_StdPeriph_Driver/src/stm32f10x_flash.c ****       FLASH->CR2 |= CR_PG_Set;
 889:../lib/STM32F10x_StdPeriph_Driver/src/stm32f10x_flash.c ****   
 890:../lib/STM32F10x_StdPeriph_Driver/src/stm32f10x_flash.c ****       *(__IO uint16_t*)Address = Data;
 891:../lib/STM32F10x_StdPeriph_Driver/src/stm32f10x_flash.c ****       /* Wait for last operation to be completed */
 892:../lib/STM32F10x_StdPeriph_Driver/src/stm32f10x_flash.c ****       status = FLASH_WaitForLastBank2Operation(ProgramTimeout);
 893:../lib/STM32F10x_StdPeriph_Driver/src/stm32f10x_flash.c **** 
 894:../lib/STM32F10x_StdPeriph_Driver/src/stm32f10x_flash.c ****       /* Disable the PG Bit */
 895:../lib/STM32F10x_StdPeriph_Driver/src/stm32f10x_flash.c ****       FLASH->CR2 &= CR_PG_Reset;
 896:../lib/STM32F10x_StdPeriph_Driver/src/stm32f10x_flash.c ****     }
 897:../lib/STM32F10x_StdPeriph_Driver/src/stm32f10x_flash.c ****   }
 898:../lib/STM32F10x_StdPeriph_Driver/src/stm32f10x_flash.c **** #else
 899:../lib/STM32F10x_StdPeriph_Driver/src/stm32f10x_flash.c ****   /* Wait for last operation to be completed */
 900:../lib/STM32F10x_StdPeriph_Driver/src/stm32f10x_flash.c ****   status = FLASH_WaitForLastOperation(ProgramTimeout);
 818              		.loc 1 900 0
 819 03ca 4FF40050 		mov	r0, #8192
 820 03ce FFF7FEFF 		bl	FLASH_WaitForLastOperation
 821 03d2 0346     		mov	r3, r0
 822 03d4 FB73     		strb	r3, [r7, #15]
 901:../lib/STM32F10x_StdPeriph_Driver/src/stm32f10x_flash.c ****   
 902:../lib/STM32F10x_StdPeriph_Driver/src/stm32f10x_flash.c ****   if(status == FLASH_COMPLETE)
 823              		.loc 1 902 0
 824 03d6 FB7B     		ldrb	r3, [r7, #15]	@ zero_extendqisi2
 825 03d8 042B     		cmp	r3, #4
 826 03da 15D1     		bne	.L51
 903:../lib/STM32F10x_StdPeriph_Driver/src/stm32f10x_flash.c ****   {
 904:../lib/STM32F10x_StdPeriph_Driver/src/stm32f10x_flash.c ****     /* if the previous operation is completed, proceed to program the new data */
 905:../lib/STM32F10x_StdPeriph_Driver/src/stm32f10x_flash.c ****     FLASH->CR |= CR_PG_Set;
 827              		.loc 1 905 0
 828 03dc 0D4B     		ldr	r3, .L53
 829 03de 0D4A     		ldr	r2, .L53
 830 03e0 1269     		ldr	r2, [r2, #16]
 831 03e2 42F00102 		orr	r2, r2, #1
 832 03e6 1A61     		str	r2, [r3, #16]
 906:../lib/STM32F10x_StdPeriph_Driver/src/stm32f10x_flash.c ****   
 907:../lib/STM32F10x_StdPeriph_Driver/src/stm32f10x_flash.c ****     *(__IO uint16_t*)Address = Data;
 833              		.loc 1 907 0
 834 03e8 7B68     		ldr	r3, [r7, #4]
 835 03ea 7A88     		ldrh	r2, [r7, #2]	@ movhi
 836 03ec 1A80     		strh	r2, [r3, #0]	@ movhi
 908:../lib/STM32F10x_StdPeriph_Driver/src/stm32f10x_flash.c ****     /* Wait for last operation to be completed */
 909:../lib/STM32F10x_StdPeriph_Driver/src/stm32f10x_flash.c ****     status = FLASH_WaitForLastOperation(ProgramTimeout);
 837              		.loc 1 909 0
 838 03ee 4FF40050 		mov	r0, #8192
 839 03f2 FFF7FEFF 		bl	FLASH_WaitForLastOperation
 840 03f6 0346     		mov	r3, r0
 841 03f8 FB73     		strb	r3, [r7, #15]
 910:../lib/STM32F10x_StdPeriph_Driver/src/stm32f10x_flash.c ****     
 911:../lib/STM32F10x_StdPeriph_Driver/src/stm32f10x_flash.c ****     /* Disable the PG Bit */
 912:../lib/STM32F10x_StdPeriph_Driver/src/stm32f10x_flash.c ****     FLASH->CR &= CR_PG_Reset;
 842              		.loc 1 912 0
 843 03fa 064A     		ldr	r2, .L53
 844 03fc 054B     		ldr	r3, .L53
 845 03fe 1969     		ldr	r1, [r3, #16]
 846 0400 41F6FE73 		movw	r3, #8190
 847 0404 0B40     		ands	r3, r3, r1
 848 0406 1361     		str	r3, [r2, #16]
 849              	.L51:
 913:../lib/STM32F10x_StdPeriph_Driver/src/stm32f10x_flash.c ****   } 
 914:../lib/STM32F10x_StdPeriph_Driver/src/stm32f10x_flash.c **** #endif  /* STM32F10X_XL */
 915:../lib/STM32F10x_StdPeriph_Driver/src/stm32f10x_flash.c ****   
 916:../lib/STM32F10x_StdPeriph_Driver/src/stm32f10x_flash.c ****   /* Return the Program Status */
 917:../lib/STM32F10x_StdPeriph_Driver/src/stm32f10x_flash.c ****   return status;
 850              		.loc 1 917 0
 851 0408 FB7B     		ldrb	r3, [r7, #15]	@ zero_extendqisi2
 918:../lib/STM32F10x_StdPeriph_Driver/src/stm32f10x_flash.c **** }
 852              		.loc 1 918 0
 853 040a 1846     		mov	r0, r3
 854 040c 07F11007 		add	r7, r7, #16
 855 0410 BD46     		mov	sp, r7
 856 0412 80BD     		pop	{r7, pc}
 857              	.L54:
 858              		.align	2
 859              	.L53:
 860 0414 00200240 		.word	1073881088
 861              		.cfi_endproc
 862              	.LFE41:
 864              		.align	2
 865              		.global	FLASH_ProgramOptionByteData
 866              		.thumb
 867              		.thumb_func
 869              	FLASH_ProgramOptionByteData:
 870              	.LFB42:
 919:../lib/STM32F10x_StdPeriph_Driver/src/stm32f10x_flash.c **** 
 920:../lib/STM32F10x_StdPeriph_Driver/src/stm32f10x_flash.c **** /**
 921:../lib/STM32F10x_StdPeriph_Driver/src/stm32f10x_flash.c ****   * @brief  Programs a half word at a specified Option Byte Data address.
 922:../lib/STM32F10x_StdPeriph_Driver/src/stm32f10x_flash.c ****   * @note   This function can be used for all STM32F10x devices.
 923:../lib/STM32F10x_StdPeriph_Driver/src/stm32f10x_flash.c ****   * @param  Address: specifies the address to be programmed.
 924:../lib/STM32F10x_StdPeriph_Driver/src/stm32f10x_flash.c ****   *   This parameter can be 0x1FFFF804 or 0x1FFFF806. 
 925:../lib/STM32F10x_StdPeriph_Driver/src/stm32f10x_flash.c ****   * @param  Data: specifies the data to be programmed.
 926:../lib/STM32F10x_StdPeriph_Driver/src/stm32f10x_flash.c ****   * @retval FLASH Status: The returned value can be: FLASH_ERROR_PG,
 927:../lib/STM32F10x_StdPeriph_Driver/src/stm32f10x_flash.c ****   *         FLASH_ERROR_WRP, FLASH_COMPLETE or FLASH_TIMEOUT. 
 928:../lib/STM32F10x_StdPeriph_Driver/src/stm32f10x_flash.c ****   */
 929:../lib/STM32F10x_StdPeriph_Driver/src/stm32f10x_flash.c **** FLASH_Status FLASH_ProgramOptionByteData(uint32_t Address, uint8_t Data)
 930:../lib/STM32F10x_StdPeriph_Driver/src/stm32f10x_flash.c **** {
 871              		.loc 1 930 0
 872              		.cfi_startproc
 873              		@ args = 0, pretend = 0, frame = 16
 874              		@ frame_needed = 1, uses_anonymous_args = 0
 875 0418 80B5     		push	{r7, lr}
 876              	.LCFI35:
 877              		.cfi_def_cfa_offset 8
 878              		.cfi_offset 7, -8
 879              		.cfi_offset 14, -4
 880 041a 84B0     		sub	sp, sp, #16
 881              	.LCFI36:
 882              		.cfi_def_cfa_offset 24
 883 041c 00AF     		add	r7, sp, #0
 884              	.LCFI37:
 885              		.cfi_def_cfa_register 7
 886 041e 7860     		str	r0, [r7, #4]
 887 0420 0B46     		mov	r3, r1
 888 0422 FB70     		strb	r3, [r7, #3]
 931:../lib/STM32F10x_StdPeriph_Driver/src/stm32f10x_flash.c ****   FLASH_Status status = FLASH_COMPLETE;
 889              		.loc 1 931 0
 890 0424 4FF00403 		mov	r3, #4
 891 0428 FB73     		strb	r3, [r7, #15]
 932:../lib/STM32F10x_StdPeriph_Driver/src/stm32f10x_flash.c ****   /* Check the parameters */
 933:../lib/STM32F10x_StdPeriph_Driver/src/stm32f10x_flash.c ****   assert_param(IS_OB_DATA_ADDRESS(Address));
 934:../lib/STM32F10x_StdPeriph_Driver/src/stm32f10x_flash.c ****   status = FLASH_WaitForLastOperation(ProgramTimeout);
 892              		.loc 1 934 0
 893 042a 4FF40050 		mov	r0, #8192
 894 042e FFF7FEFF 		bl	FLASH_WaitForLastOperation
 895 0432 0346     		mov	r3, r0
 896 0434 FB73     		strb	r3, [r7, #15]
 935:../lib/STM32F10x_StdPeriph_Driver/src/stm32f10x_flash.c **** 
 936:../lib/STM32F10x_StdPeriph_Driver/src/stm32f10x_flash.c ****   if(status == FLASH_COMPLETE)
 897              		.loc 1 936 0
 898 0436 FB7B     		ldrb	r3, [r7, #15]	@ zero_extendqisi2
 899 0438 042B     		cmp	r3, #4
 900 043a 1FD1     		bne	.L56
 937:../lib/STM32F10x_StdPeriph_Driver/src/stm32f10x_flash.c ****   {
 938:../lib/STM32F10x_StdPeriph_Driver/src/stm32f10x_flash.c ****     /* Authorize the small information block programming */
 939:../lib/STM32F10x_StdPeriph_Driver/src/stm32f10x_flash.c ****     FLASH->OPTKEYR = FLASH_KEY1;
 901              		.loc 1 939 0
 902 043c 124B     		ldr	r3, .L58
 903 043e 134A     		ldr	r2, .L58+4
 904 0440 9A60     		str	r2, [r3, #8]
 940:../lib/STM32F10x_StdPeriph_Driver/src/stm32f10x_flash.c ****     FLASH->OPTKEYR = FLASH_KEY2;
 905              		.loc 1 940 0
 906 0442 114B     		ldr	r3, .L58
 907 0444 124A     		ldr	r2, .L58+8
 908 0446 9A60     		str	r2, [r3, #8]
 941:../lib/STM32F10x_StdPeriph_Driver/src/stm32f10x_flash.c ****     /* Enables the Option Bytes Programming operation */
 942:../lib/STM32F10x_StdPeriph_Driver/src/stm32f10x_flash.c ****     FLASH->CR |= CR_OPTPG_Set; 
 909              		.loc 1 942 0
 910 0448 0F4B     		ldr	r3, .L58
 911 044a 0F4A     		ldr	r2, .L58
 912 044c 1269     		ldr	r2, [r2, #16]
 913 044e 42F01002 		orr	r2, r2, #16
 914 0452 1A61     		str	r2, [r3, #16]
 943:../lib/STM32F10x_StdPeriph_Driver/src/stm32f10x_flash.c ****     *(__IO uint16_t*)Address = Data;
 915              		.loc 1 943 0
 916 0454 7B68     		ldr	r3, [r7, #4]
 917 0456 FA78     		ldrb	r2, [r7, #3]	@ zero_extendqisi2
 918 0458 92B2     		uxth	r2, r2
 919 045a 1A80     		strh	r2, [r3, #0]	@ movhi
 944:../lib/STM32F10x_StdPeriph_Driver/src/stm32f10x_flash.c ****     
 945:../lib/STM32F10x_StdPeriph_Driver/src/stm32f10x_flash.c ****     /* Wait for last operation to be completed */
 946:../lib/STM32F10x_StdPeriph_Driver/src/stm32f10x_flash.c ****     status = FLASH_WaitForLastOperation(ProgramTimeout);
 920              		.loc 1 946 0
 921 045c 4FF40050 		mov	r0, #8192
 922 0460 FFF7FEFF 		bl	FLASH_WaitForLastOperation
 923 0464 0346     		mov	r3, r0
 924 0466 FB73     		strb	r3, [r7, #15]
 947:../lib/STM32F10x_StdPeriph_Driver/src/stm32f10x_flash.c ****     if(status != FLASH_TIMEOUT)
 925              		.loc 1 947 0
 926 0468 FB7B     		ldrb	r3, [r7, #15]	@ zero_extendqisi2
 927 046a 052B     		cmp	r3, #5
 928 046c 06D0     		beq	.L56
 948:../lib/STM32F10x_StdPeriph_Driver/src/stm32f10x_flash.c ****     {
 949:../lib/STM32F10x_StdPeriph_Driver/src/stm32f10x_flash.c ****       /* if the program operation is completed, disable the OPTPG Bit */
 950:../lib/STM32F10x_StdPeriph_Driver/src/stm32f10x_flash.c ****       FLASH->CR &= CR_OPTPG_Reset;
 929              		.loc 1 950 0
 930 046e 064A     		ldr	r2, .L58
 931 0470 054B     		ldr	r3, .L58
 932 0472 1969     		ldr	r1, [r3, #16]
 933 0474 41F6EF73 		movw	r3, #8175
 934 0478 0B40     		ands	r3, r3, r1
 935 047a 1361     		str	r3, [r2, #16]
 936              	.L56:
 951:../lib/STM32F10x_StdPeriph_Driver/src/stm32f10x_flash.c ****     }
 952:../lib/STM32F10x_StdPeriph_Driver/src/stm32f10x_flash.c ****   }
 953:../lib/STM32F10x_StdPeriph_Driver/src/stm32f10x_flash.c ****   /* Return the Option Byte Data Program Status */
 954:../lib/STM32F10x_StdPeriph_Driver/src/stm32f10x_flash.c ****   return status;
 937              		.loc 1 954 0
 938 047c FB7B     		ldrb	r3, [r7, #15]	@ zero_extendqisi2
 955:../lib/STM32F10x_StdPeriph_Driver/src/stm32f10x_flash.c **** }
 939              		.loc 1 955 0
 940 047e 1846     		mov	r0, r3
 941 0480 07F11007 		add	r7, r7, #16
 942 0484 BD46     		mov	sp, r7
 943 0486 80BD     		pop	{r7, pc}
 944              	.L59:
 945              		.align	2
 946              	.L58:
 947 0488 00200240 		.word	1073881088
 948 048c 23016745 		.word	1164378403
 949 0490 AB89EFCD 		.word	-839939669
 950              		.cfi_endproc
 951              	.LFE42:
 953              		.align	2
 954              		.global	FLASH_EnableWriteProtection
 955              		.thumb
 956              		.thumb_func
 958              	FLASH_EnableWriteProtection:
 959              	.LFB43:
 956:../lib/STM32F10x_StdPeriph_Driver/src/stm32f10x_flash.c **** 
 957:../lib/STM32F10x_StdPeriph_Driver/src/stm32f10x_flash.c **** /**
 958:../lib/STM32F10x_StdPeriph_Driver/src/stm32f10x_flash.c ****   * @brief  Write protects the desired pages
 959:../lib/STM32F10x_StdPeriph_Driver/src/stm32f10x_flash.c ****   * @note   This function can be used for all STM32F10x devices.
 960:../lib/STM32F10x_StdPeriph_Driver/src/stm32f10x_flash.c ****   * @param  FLASH_Pages: specifies the address of the pages to be write protected.
 961:../lib/STM32F10x_StdPeriph_Driver/src/stm32f10x_flash.c ****   *   This parameter can be:
 962:../lib/STM32F10x_StdPeriph_Driver/src/stm32f10x_flash.c ****   *     @arg For @b STM32_Low-density_devices: value between FLASH_WRProt_Pages0to3 and FLASH_WRPro
 963:../lib/STM32F10x_StdPeriph_Driver/src/stm32f10x_flash.c ****   *     @arg For @b STM32_Medium-density_devices: value between FLASH_WRProt_Pages0to3
 964:../lib/STM32F10x_StdPeriph_Driver/src/stm32f10x_flash.c ****   *       and FLASH_WRProt_Pages124to127
 965:../lib/STM32F10x_StdPeriph_Driver/src/stm32f10x_flash.c ****   *     @arg For @b STM32_High-density_devices: value between FLASH_WRProt_Pages0to1 and
 966:../lib/STM32F10x_StdPeriph_Driver/src/stm32f10x_flash.c ****   *       FLASH_WRProt_Pages60to61 or FLASH_WRProt_Pages62to255
 967:../lib/STM32F10x_StdPeriph_Driver/src/stm32f10x_flash.c ****   *     @arg For @b STM32_Connectivity_line_devices: value between FLASH_WRProt_Pages0to1 and
 968:../lib/STM32F10x_StdPeriph_Driver/src/stm32f10x_flash.c ****   *       FLASH_WRProt_Pages60to61 or FLASH_WRProt_Pages62to127    
 969:../lib/STM32F10x_StdPeriph_Driver/src/stm32f10x_flash.c ****   *     @arg For @b STM32_XL-density_devices: value between FLASH_WRProt_Pages0to1 and
 970:../lib/STM32F10x_StdPeriph_Driver/src/stm32f10x_flash.c ****   *       FLASH_WRProt_Pages60to61 or FLASH_WRProt_Pages62to511
 971:../lib/STM32F10x_StdPeriph_Driver/src/stm32f10x_flash.c ****   *     @arg FLASH_WRProt_AllPages
 972:../lib/STM32F10x_StdPeriph_Driver/src/stm32f10x_flash.c ****   * @retval FLASH Status: The returned value can be: FLASH_ERROR_PG,
 973:../lib/STM32F10x_StdPeriph_Driver/src/stm32f10x_flash.c ****   *         FLASH_ERROR_WRP, FLASH_COMPLETE or FLASH_TIMEOUT.
 974:../lib/STM32F10x_StdPeriph_Driver/src/stm32f10x_flash.c ****   */
 975:../lib/STM32F10x_StdPeriph_Driver/src/stm32f10x_flash.c **** FLASH_Status FLASH_EnableWriteProtection(uint32_t FLASH_Pages)
 976:../lib/STM32F10x_StdPeriph_Driver/src/stm32f10x_flash.c **** {
 960              		.loc 1 976 0
 961              		.cfi_startproc
 962              		@ args = 0, pretend = 0, frame = 24
 963              		@ frame_needed = 1, uses_anonymous_args = 0
 964 0494 80B5     		push	{r7, lr}
 965              	.LCFI38:
 966              		.cfi_def_cfa_offset 8
 967              		.cfi_offset 7, -8
 968              		.cfi_offset 14, -4
 969 0496 86B0     		sub	sp, sp, #24
 970              	.LCFI39:
 971              		.cfi_def_cfa_offset 32
 972 0498 00AF     		add	r7, sp, #0
 973              	.LCFI40:
 974              		.cfi_def_cfa_register 7
 975 049a 7860     		str	r0, [r7, #4]
 977:../lib/STM32F10x_StdPeriph_Driver/src/stm32f10x_flash.c ****   uint16_t WRP0_Data = 0xFFFF, WRP1_Data = 0xFFFF, WRP2_Data = 0xFFFF, WRP3_Data = 0xFFFF;
 976              		.loc 1 977 0
 977 049c 4FF6FF73 		movw	r3, #65535
 978 04a0 BB82     		strh	r3, [r7, #20]	@ movhi
 979 04a2 4FF6FF73 		movw	r3, #65535
 980 04a6 7B82     		strh	r3, [r7, #18]	@ movhi
 981 04a8 4FF6FF73 		movw	r3, #65535
 982 04ac 3B82     		strh	r3, [r7, #16]	@ movhi
 983 04ae 4FF6FF73 		movw	r3, #65535
 984 04b2 FB81     		strh	r3, [r7, #14]	@ movhi
 978:../lib/STM32F10x_StdPeriph_Driver/src/stm32f10x_flash.c ****   
 979:../lib/STM32F10x_StdPeriph_Driver/src/stm32f10x_flash.c ****   FLASH_Status status = FLASH_COMPLETE;
 985              		.loc 1 979 0
 986 04b4 4FF00403 		mov	r3, #4
 987 04b8 FB75     		strb	r3, [r7, #23]
 980:../lib/STM32F10x_StdPeriph_Driver/src/stm32f10x_flash.c ****   
 981:../lib/STM32F10x_StdPeriph_Driver/src/stm32f10x_flash.c ****   /* Check the parameters */
 982:../lib/STM32F10x_StdPeriph_Driver/src/stm32f10x_flash.c ****   assert_param(IS_FLASH_WRPROT_PAGE(FLASH_Pages));
 983:../lib/STM32F10x_StdPeriph_Driver/src/stm32f10x_flash.c ****   
 984:../lib/STM32F10x_StdPeriph_Driver/src/stm32f10x_flash.c ****   FLASH_Pages = (uint32_t)(~FLASH_Pages);
 988              		.loc 1 984 0
 989 04ba 7B68     		ldr	r3, [r7, #4]
 990 04bc 6FEA0303 		mvn	r3, r3
 991 04c0 7B60     		str	r3, [r7, #4]
 985:../lib/STM32F10x_StdPeriph_Driver/src/stm32f10x_flash.c ****   WRP0_Data = (uint16_t)(FLASH_Pages & WRP0_Mask);
 992              		.loc 1 985 0
 993 04c2 7B68     		ldr	r3, [r7, #4]
 994 04c4 9BB2     		uxth	r3, r3
 995 04c6 DBB2     		uxtb	r3, r3
 996 04c8 BB82     		strh	r3, [r7, #20]	@ movhi
 986:../lib/STM32F10x_StdPeriph_Driver/src/stm32f10x_flash.c ****   WRP1_Data = (uint16_t)((FLASH_Pages & WRP1_Mask) >> 8);
 997              		.loc 1 986 0
 998 04ca 7B68     		ldr	r3, [r7, #4]
 999 04cc 03F47F43 		and	r3, r3, #65280
 1000 04d0 4FEA1323 		lsr	r3, r3, #8
 1001 04d4 7B82     		strh	r3, [r7, #18]	@ movhi
 987:../lib/STM32F10x_StdPeriph_Driver/src/stm32f10x_flash.c ****   WRP2_Data = (uint16_t)((FLASH_Pages & WRP2_Mask) >> 16);
 1002              		.loc 1 987 0
 1003 04d6 7B68     		ldr	r3, [r7, #4]
 1004 04d8 03F47F03 		and	r3, r3, #16711680
 1005 04dc 4FEA1343 		lsr	r3, r3, #16
 1006 04e0 3B82     		strh	r3, [r7, #16]	@ movhi
 988:../lib/STM32F10x_StdPeriph_Driver/src/stm32f10x_flash.c ****   WRP3_Data = (uint16_t)((FLASH_Pages & WRP3_Mask) >> 24);
 1007              		.loc 1 988 0
 1008 04e2 7B68     		ldr	r3, [r7, #4]
 1009 04e4 4FEA1363 		lsr	r3, r3, #24
 1010 04e8 FB81     		strh	r3, [r7, #14]	@ movhi
 989:../lib/STM32F10x_StdPeriph_Driver/src/stm32f10x_flash.c ****   
 990:../lib/STM32F10x_StdPeriph_Driver/src/stm32f10x_flash.c ****   /* Wait for last operation to be completed */
 991:../lib/STM32F10x_StdPeriph_Driver/src/stm32f10x_flash.c ****   status = FLASH_WaitForLastOperation(ProgramTimeout);
 1011              		.loc 1 991 0
 1012 04ea 4FF40050 		mov	r0, #8192
 1013 04ee FFF7FEFF 		bl	FLASH_WaitForLastOperation
 1014 04f2 0346     		mov	r3, r0
 1015 04f4 FB75     		strb	r3, [r7, #23]
 992:../lib/STM32F10x_StdPeriph_Driver/src/stm32f10x_flash.c ****   
 993:../lib/STM32F10x_StdPeriph_Driver/src/stm32f10x_flash.c ****   if(status == FLASH_COMPLETE)
 1016              		.loc 1 993 0
 1017 04f6 FB7D     		ldrb	r3, [r7, #23]	@ zero_extendqisi2
 1018 04f8 042B     		cmp	r3, #4
 1019 04fa 4ED1     		bne	.L61
 994:../lib/STM32F10x_StdPeriph_Driver/src/stm32f10x_flash.c ****   {
 995:../lib/STM32F10x_StdPeriph_Driver/src/stm32f10x_flash.c ****     /* Authorizes the small information block programming */
 996:../lib/STM32F10x_StdPeriph_Driver/src/stm32f10x_flash.c ****     FLASH->OPTKEYR = FLASH_KEY1;
 1020              		.loc 1 996 0
 1021 04fc 2A4B     		ldr	r3, .L67
 1022 04fe 2B4A     		ldr	r2, .L67+4
 1023 0500 9A60     		str	r2, [r3, #8]
 997:../lib/STM32F10x_StdPeriph_Driver/src/stm32f10x_flash.c ****     FLASH->OPTKEYR = FLASH_KEY2;
 1024              		.loc 1 997 0
 1025 0502 294B     		ldr	r3, .L67
 1026 0504 2A4A     		ldr	r2, .L67+8
 1027 0506 9A60     		str	r2, [r3, #8]
 998:../lib/STM32F10x_StdPeriph_Driver/src/stm32f10x_flash.c ****     FLASH->CR |= CR_OPTPG_Set;
 1028              		.loc 1 998 0
 1029 0508 274B     		ldr	r3, .L67
 1030 050a 274A     		ldr	r2, .L67
 1031 050c 1269     		ldr	r2, [r2, #16]
 1032 050e 42F01002 		orr	r2, r2, #16
 1033 0512 1A61     		str	r2, [r3, #16]
 999:../lib/STM32F10x_StdPeriph_Driver/src/stm32f10x_flash.c ****     if(WRP0_Data != 0xFF)
 1034              		.loc 1 999 0
 1035 0514 BB8A     		ldrh	r3, [r7, #20]
 1036 0516 FF2B     		cmp	r3, #255
 1037 0518 08D0     		beq	.L62
1000:../lib/STM32F10x_StdPeriph_Driver/src/stm32f10x_flash.c ****     {
1001:../lib/STM32F10x_StdPeriph_Driver/src/stm32f10x_flash.c ****       OB->WRP0 = WRP0_Data;
 1038              		.loc 1 1001 0
 1039 051a 264B     		ldr	r3, .L67+12
 1040 051c BA8A     		ldrh	r2, [r7, #20]	@ movhi
 1041 051e 1A81     		strh	r2, [r3, #8]	@ movhi
1002:../lib/STM32F10x_StdPeriph_Driver/src/stm32f10x_flash.c ****       
1003:../lib/STM32F10x_StdPeriph_Driver/src/stm32f10x_flash.c ****       /* Wait for last operation to be completed */
1004:../lib/STM32F10x_StdPeriph_Driver/src/stm32f10x_flash.c ****       status = FLASH_WaitForLastOperation(ProgramTimeout);
 1042              		.loc 1 1004 0
 1043 0520 4FF40050 		mov	r0, #8192
 1044 0524 FFF7FEFF 		bl	FLASH_WaitForLastOperation
 1045 0528 0346     		mov	r3, r0
 1046 052a FB75     		strb	r3, [r7, #23]
 1047              	.L62:
1005:../lib/STM32F10x_StdPeriph_Driver/src/stm32f10x_flash.c ****     }
1006:../lib/STM32F10x_StdPeriph_Driver/src/stm32f10x_flash.c ****     if((status == FLASH_COMPLETE) && (WRP1_Data != 0xFF))
 1048              		.loc 1 1006 0
 1049 052c FB7D     		ldrb	r3, [r7, #23]	@ zero_extendqisi2
 1050 052e 042B     		cmp	r3, #4
 1051 0530 0BD1     		bne	.L63
 1052              		.loc 1 1006 0 is_stmt 0 discriminator 1
 1053 0532 7B8A     		ldrh	r3, [r7, #18]
 1054 0534 FF2B     		cmp	r3, #255
 1055 0536 08D0     		beq	.L63
1007:../lib/STM32F10x_StdPeriph_Driver/src/stm32f10x_flash.c ****     {
1008:../lib/STM32F10x_StdPeriph_Driver/src/stm32f10x_flash.c ****       OB->WRP1 = WRP1_Data;
 1056              		.loc 1 1008 0 is_stmt 1
 1057 0538 1E4B     		ldr	r3, .L67+12
 1058 053a 7A8A     		ldrh	r2, [r7, #18]	@ movhi
 1059 053c 5A81     		strh	r2, [r3, #10]	@ movhi
1009:../lib/STM32F10x_StdPeriph_Driver/src/stm32f10x_flash.c ****       
1010:../lib/STM32F10x_StdPeriph_Driver/src/stm32f10x_flash.c ****       /* Wait for last operation to be completed */
1011:../lib/STM32F10x_StdPeriph_Driver/src/stm32f10x_flash.c ****       status = FLASH_WaitForLastOperation(ProgramTimeout);
 1060              		.loc 1 1011 0
 1061 053e 4FF40050 		mov	r0, #8192
 1062 0542 FFF7FEFF 		bl	FLASH_WaitForLastOperation
 1063 0546 0346     		mov	r3, r0
 1064 0548 FB75     		strb	r3, [r7, #23]
 1065              	.L63:
1012:../lib/STM32F10x_StdPeriph_Driver/src/stm32f10x_flash.c ****     }
1013:../lib/STM32F10x_StdPeriph_Driver/src/stm32f10x_flash.c ****     if((status == FLASH_COMPLETE) && (WRP2_Data != 0xFF))
 1066              		.loc 1 1013 0
 1067 054a FB7D     		ldrb	r3, [r7, #23]	@ zero_extendqisi2
 1068 054c 042B     		cmp	r3, #4
 1069 054e 0BD1     		bne	.L64
 1070              		.loc 1 1013 0 is_stmt 0 discriminator 1
 1071 0550 3B8A     		ldrh	r3, [r7, #16]
 1072 0552 FF2B     		cmp	r3, #255
 1073 0554 08D0     		beq	.L64
1014:../lib/STM32F10x_StdPeriph_Driver/src/stm32f10x_flash.c ****     {
1015:../lib/STM32F10x_StdPeriph_Driver/src/stm32f10x_flash.c ****       OB->WRP2 = WRP2_Data;
 1074              		.loc 1 1015 0 is_stmt 1
 1075 0556 174B     		ldr	r3, .L67+12
 1076 0558 3A8A     		ldrh	r2, [r7, #16]	@ movhi
 1077 055a 9A81     		strh	r2, [r3, #12]	@ movhi
1016:../lib/STM32F10x_StdPeriph_Driver/src/stm32f10x_flash.c ****       
1017:../lib/STM32F10x_StdPeriph_Driver/src/stm32f10x_flash.c ****       /* Wait for last operation to be completed */
1018:../lib/STM32F10x_StdPeriph_Driver/src/stm32f10x_flash.c ****       status = FLASH_WaitForLastOperation(ProgramTimeout);
 1078              		.loc 1 1018 0
 1079 055c 4FF40050 		mov	r0, #8192
 1080 0560 FFF7FEFF 		bl	FLASH_WaitForLastOperation
 1081 0564 0346     		mov	r3, r0
 1082 0566 FB75     		strb	r3, [r7, #23]
 1083              	.L64:
1019:../lib/STM32F10x_StdPeriph_Driver/src/stm32f10x_flash.c ****     }
1020:../lib/STM32F10x_StdPeriph_Driver/src/stm32f10x_flash.c ****     
1021:../lib/STM32F10x_StdPeriph_Driver/src/stm32f10x_flash.c ****     if((status == FLASH_COMPLETE)&& (WRP3_Data != 0xFF))
 1084              		.loc 1 1021 0
 1085 0568 FB7D     		ldrb	r3, [r7, #23]	@ zero_extendqisi2
 1086 056a 042B     		cmp	r3, #4
 1087 056c 0BD1     		bne	.L65
 1088              		.loc 1 1021 0 is_stmt 0 discriminator 1
 1089 056e FB89     		ldrh	r3, [r7, #14]
 1090 0570 FF2B     		cmp	r3, #255
 1091 0572 08D0     		beq	.L65
1022:../lib/STM32F10x_StdPeriph_Driver/src/stm32f10x_flash.c ****     {
1023:../lib/STM32F10x_StdPeriph_Driver/src/stm32f10x_flash.c ****       OB->WRP3 = WRP3_Data;
 1092              		.loc 1 1023 0 is_stmt 1
 1093 0574 0F4B     		ldr	r3, .L67+12
 1094 0576 FA89     		ldrh	r2, [r7, #14]	@ movhi
 1095 0578 DA81     		strh	r2, [r3, #14]	@ movhi
1024:../lib/STM32F10x_StdPeriph_Driver/src/stm32f10x_flash.c ****      
1025:../lib/STM32F10x_StdPeriph_Driver/src/stm32f10x_flash.c ****       /* Wait for last operation to be completed */
1026:../lib/STM32F10x_StdPeriph_Driver/src/stm32f10x_flash.c ****       status = FLASH_WaitForLastOperation(ProgramTimeout);
 1096              		.loc 1 1026 0
 1097 057a 4FF40050 		mov	r0, #8192
 1098 057e FFF7FEFF 		bl	FLASH_WaitForLastOperation
 1099 0582 0346     		mov	r3, r0
 1100 0584 FB75     		strb	r3, [r7, #23]
 1101              	.L65:
1027:../lib/STM32F10x_StdPeriph_Driver/src/stm32f10x_flash.c ****     }
1028:../lib/STM32F10x_StdPeriph_Driver/src/stm32f10x_flash.c ****           
1029:../lib/STM32F10x_StdPeriph_Driver/src/stm32f10x_flash.c ****     if(status != FLASH_TIMEOUT)
 1102              		.loc 1 1029 0
 1103 0586 FB7D     		ldrb	r3, [r7, #23]	@ zero_extendqisi2
 1104 0588 052B     		cmp	r3, #5
 1105 058a 06D0     		beq	.L61
1030:../lib/STM32F10x_StdPeriph_Driver/src/stm32f10x_flash.c ****     {
1031:../lib/STM32F10x_StdPeriph_Driver/src/stm32f10x_flash.c ****       /* if the program operation is completed, disable the OPTPG Bit */
1032:../lib/STM32F10x_StdPeriph_Driver/src/stm32f10x_flash.c ****       FLASH->CR &= CR_OPTPG_Reset;
 1106              		.loc 1 1032 0
 1107 058c 064A     		ldr	r2, .L67
 1108 058e 064B     		ldr	r3, .L67
 1109 0590 1969     		ldr	r1, [r3, #16]
 1110 0592 41F6EF73 		movw	r3, #8175
 1111 0596 0B40     		ands	r3, r3, r1
 1112 0598 1361     		str	r3, [r2, #16]
 1113              	.L61:
1033:../lib/STM32F10x_StdPeriph_Driver/src/stm32f10x_flash.c ****     }
1034:../lib/STM32F10x_StdPeriph_Driver/src/stm32f10x_flash.c ****   } 
1035:../lib/STM32F10x_StdPeriph_Driver/src/stm32f10x_flash.c ****   /* Return the write protection operation Status */
1036:../lib/STM32F10x_StdPeriph_Driver/src/stm32f10x_flash.c ****   return status;       
 1114              		.loc 1 1036 0
 1115 059a FB7D     		ldrb	r3, [r7, #23]	@ zero_extendqisi2
1037:../lib/STM32F10x_StdPeriph_Driver/src/stm32f10x_flash.c **** }
 1116              		.loc 1 1037 0
 1117 059c 1846     		mov	r0, r3
 1118 059e 07F11807 		add	r7, r7, #24
 1119 05a2 BD46     		mov	sp, r7
 1120 05a4 80BD     		pop	{r7, pc}
 1121              	.L68:
 1122 05a6 00BF     		.align	2
 1123              	.L67:
 1124 05a8 00200240 		.word	1073881088
 1125 05ac 23016745 		.word	1164378403
 1126 05b0 AB89EFCD 		.word	-839939669
 1127 05b4 00F8FF1F 		.word	536868864
 1128              		.cfi_endproc
 1129              	.LFE43:
 1131              		.align	2
 1132              		.global	FLASH_ReadOutProtection
 1133              		.thumb
 1134              		.thumb_func
 1136              	FLASH_ReadOutProtection:
 1137              	.LFB44:
1038:../lib/STM32F10x_StdPeriph_Driver/src/stm32f10x_flash.c **** 
1039:../lib/STM32F10x_StdPeriph_Driver/src/stm32f10x_flash.c **** /**
1040:../lib/STM32F10x_StdPeriph_Driver/src/stm32f10x_flash.c ****   * @brief  Enables or disables the read out protection.
1041:../lib/STM32F10x_StdPeriph_Driver/src/stm32f10x_flash.c ****   * @note   If the user has already programmed the other option bytes before calling 
1042:../lib/STM32F10x_StdPeriph_Driver/src/stm32f10x_flash.c ****   *   this function, he must re-program them since this function erases all option bytes.
1043:../lib/STM32F10x_StdPeriph_Driver/src/stm32f10x_flash.c ****   * @note   This function can be used for all STM32F10x devices.
1044:../lib/STM32F10x_StdPeriph_Driver/src/stm32f10x_flash.c ****   * @param  Newstate: new state of the ReadOut Protection.
1045:../lib/STM32F10x_StdPeriph_Driver/src/stm32f10x_flash.c ****   *   This parameter can be: ENABLE or DISABLE.
1046:../lib/STM32F10x_StdPeriph_Driver/src/stm32f10x_flash.c ****   * @retval FLASH Status: The returned value can be: FLASH_ERROR_PG,
1047:../lib/STM32F10x_StdPeriph_Driver/src/stm32f10x_flash.c ****   *         FLASH_ERROR_WRP, FLASH_COMPLETE or FLASH_TIMEOUT.
1048:../lib/STM32F10x_StdPeriph_Driver/src/stm32f10x_flash.c ****   */
1049:../lib/STM32F10x_StdPeriph_Driver/src/stm32f10x_flash.c **** FLASH_Status FLASH_ReadOutProtection(FunctionalState NewState)
1050:../lib/STM32F10x_StdPeriph_Driver/src/stm32f10x_flash.c **** {
 1138              		.loc 1 1050 0
 1139              		.cfi_startproc
 1140              		@ args = 0, pretend = 0, frame = 16
 1141              		@ frame_needed = 1, uses_anonymous_args = 0
 1142 05b8 80B5     		push	{r7, lr}
 1143              	.LCFI41:
 1144              		.cfi_def_cfa_offset 8
 1145              		.cfi_offset 7, -8
 1146              		.cfi_offset 14, -4
 1147 05ba 84B0     		sub	sp, sp, #16
 1148              	.LCFI42:
 1149              		.cfi_def_cfa_offset 24
 1150 05bc 00AF     		add	r7, sp, #0
 1151              	.LCFI43:
 1152              		.cfi_def_cfa_register 7
 1153 05be 0346     		mov	r3, r0
 1154 05c0 FB71     		strb	r3, [r7, #7]
1051:../lib/STM32F10x_StdPeriph_Driver/src/stm32f10x_flash.c ****   FLASH_Status status = FLASH_COMPLETE;
 1155              		.loc 1 1051 0
 1156 05c2 4FF00403 		mov	r3, #4
 1157 05c6 FB73     		strb	r3, [r7, #15]
1052:../lib/STM32F10x_StdPeriph_Driver/src/stm32f10x_flash.c ****   /* Check the parameters */
1053:../lib/STM32F10x_StdPeriph_Driver/src/stm32f10x_flash.c ****   assert_param(IS_FUNCTIONAL_STATE(NewState));
1054:../lib/STM32F10x_StdPeriph_Driver/src/stm32f10x_flash.c ****   status = FLASH_WaitForLastOperation(EraseTimeout);
 1158              		.loc 1 1054 0
 1159 05c8 4FF43020 		mov	r0, #720896
 1160 05cc FFF7FEFF 		bl	FLASH_WaitForLastOperation
 1161 05d0 0346     		mov	r3, r0
 1162 05d2 FB73     		strb	r3, [r7, #15]
1055:../lib/STM32F10x_StdPeriph_Driver/src/stm32f10x_flash.c ****   if(status == FLASH_COMPLETE)
 1163              		.loc 1 1055 0
 1164 05d4 FB7B     		ldrb	r3, [r7, #15]	@ zero_extendqisi2
 1165 05d6 042B     		cmp	r3, #4
 1166 05d8 4ED1     		bne	.L70
1056:../lib/STM32F10x_StdPeriph_Driver/src/stm32f10x_flash.c ****   {
1057:../lib/STM32F10x_StdPeriph_Driver/src/stm32f10x_flash.c ****     /* Authorizes the small information block programming */
1058:../lib/STM32F10x_StdPeriph_Driver/src/stm32f10x_flash.c ****     FLASH->OPTKEYR = FLASH_KEY1;
 1167              		.loc 1 1058 0
 1168 05da 2A4B     		ldr	r3, .L75
 1169 05dc 2A4A     		ldr	r2, .L75+4
 1170 05de 9A60     		str	r2, [r3, #8]
1059:../lib/STM32F10x_StdPeriph_Driver/src/stm32f10x_flash.c ****     FLASH->OPTKEYR = FLASH_KEY2;
 1171              		.loc 1 1059 0
 1172 05e0 284B     		ldr	r3, .L75
 1173 05e2 2A4A     		ldr	r2, .L75+8
 1174 05e4 9A60     		str	r2, [r3, #8]
1060:../lib/STM32F10x_StdPeriph_Driver/src/stm32f10x_flash.c ****     FLASH->CR |= CR_OPTER_Set;
 1175              		.loc 1 1060 0
 1176 05e6 274B     		ldr	r3, .L75
 1177 05e8 264A     		ldr	r2, .L75
 1178 05ea 1269     		ldr	r2, [r2, #16]
 1179 05ec 42F02002 		orr	r2, r2, #32
 1180 05f0 1A61     		str	r2, [r3, #16]
1061:../lib/STM32F10x_StdPeriph_Driver/src/stm32f10x_flash.c ****     FLASH->CR |= CR_STRT_Set;
 1181              		.loc 1 1061 0
 1182 05f2 244B     		ldr	r3, .L75
 1183 05f4 234A     		ldr	r2, .L75
 1184 05f6 1269     		ldr	r2, [r2, #16]
 1185 05f8 42F04002 		orr	r2, r2, #64
 1186 05fc 1A61     		str	r2, [r3, #16]
1062:../lib/STM32F10x_StdPeriph_Driver/src/stm32f10x_flash.c ****     /* Wait for last operation to be completed */
1063:../lib/STM32F10x_StdPeriph_Driver/src/stm32f10x_flash.c ****     status = FLASH_WaitForLastOperation(EraseTimeout);
 1187              		.loc 1 1063 0
 1188 05fe 4FF43020 		mov	r0, #720896
 1189 0602 FFF7FEFF 		bl	FLASH_WaitForLastOperation
 1190 0606 0346     		mov	r3, r0
 1191 0608 FB73     		strb	r3, [r7, #15]
1064:../lib/STM32F10x_StdPeriph_Driver/src/stm32f10x_flash.c ****     if(status == FLASH_COMPLETE)
 1192              		.loc 1 1064 0
 1193 060a FB7B     		ldrb	r3, [r7, #15]	@ zero_extendqisi2
 1194 060c 042B     		cmp	r3, #4
 1195 060e 29D1     		bne	.L71
1065:../lib/STM32F10x_StdPeriph_Driver/src/stm32f10x_flash.c ****     {
1066:../lib/STM32F10x_StdPeriph_Driver/src/stm32f10x_flash.c ****       /* if the erase operation is completed, disable the OPTER Bit */
1067:../lib/STM32F10x_StdPeriph_Driver/src/stm32f10x_flash.c ****       FLASH->CR &= CR_OPTER_Reset;
 1196              		.loc 1 1067 0
 1197 0610 1C4A     		ldr	r2, .L75
 1198 0612 1C4B     		ldr	r3, .L75
 1199 0614 1969     		ldr	r1, [r3, #16]
 1200 0616 41F6DF73 		movw	r3, #8159
 1201 061a 0B40     		ands	r3, r3, r1
 1202 061c 1361     		str	r3, [r2, #16]
1068:../lib/STM32F10x_StdPeriph_Driver/src/stm32f10x_flash.c ****       /* Enable the Option Bytes Programming operation */
1069:../lib/STM32F10x_StdPeriph_Driver/src/stm32f10x_flash.c ****       FLASH->CR |= CR_OPTPG_Set; 
 1203              		.loc 1 1069 0
 1204 061e 194B     		ldr	r3, .L75
 1205 0620 184A     		ldr	r2, .L75
 1206 0622 1269     		ldr	r2, [r2, #16]
 1207 0624 42F01002 		orr	r2, r2, #16
 1208 0628 1A61     		str	r2, [r3, #16]
1070:../lib/STM32F10x_StdPeriph_Driver/src/stm32f10x_flash.c ****       if(NewState != DISABLE)
 1209              		.loc 1 1070 0
 1210 062a FB79     		ldrb	r3, [r7, #7]	@ zero_extendqisi2
 1211 062c 002B     		cmp	r3, #0
 1212 062e 04D0     		beq	.L72
1071:../lib/STM32F10x_StdPeriph_Driver/src/stm32f10x_flash.c ****       {
1072:../lib/STM32F10x_StdPeriph_Driver/src/stm32f10x_flash.c ****         OB->RDP = 0x00;
 1213              		.loc 1 1072 0
 1214 0630 174B     		ldr	r3, .L75+12
 1215 0632 4FF00002 		mov	r2, #0
 1216 0636 1A80     		strh	r2, [r3, #0]	@ movhi
 1217 0638 03E0     		b	.L73
 1218              	.L72:
1073:../lib/STM32F10x_StdPeriph_Driver/src/stm32f10x_flash.c ****       }
1074:../lib/STM32F10x_StdPeriph_Driver/src/stm32f10x_flash.c ****       else
1075:../lib/STM32F10x_StdPeriph_Driver/src/stm32f10x_flash.c ****       {
1076:../lib/STM32F10x_StdPeriph_Driver/src/stm32f10x_flash.c ****         OB->RDP = RDP_Key;  
 1219              		.loc 1 1076 0
 1220 063a 154B     		ldr	r3, .L75+12
 1221 063c 4FF0A502 		mov	r2, #165
 1222 0640 1A80     		strh	r2, [r3, #0]	@ movhi
 1223              	.L73:
1077:../lib/STM32F10x_StdPeriph_Driver/src/stm32f10x_flash.c ****       }
1078:../lib/STM32F10x_StdPeriph_Driver/src/stm32f10x_flash.c ****       /* Wait for last operation to be completed */
1079:../lib/STM32F10x_StdPeriph_Driver/src/stm32f10x_flash.c ****       status = FLASH_WaitForLastOperation(EraseTimeout); 
 1224              		.loc 1 1079 0
 1225 0642 4FF43020 		mov	r0, #720896
 1226 0646 FFF7FEFF 		bl	FLASH_WaitForLastOperation
 1227 064a 0346     		mov	r3, r0
 1228 064c FB73     		strb	r3, [r7, #15]
1080:../lib/STM32F10x_StdPeriph_Driver/src/stm32f10x_flash.c ****     
1081:../lib/STM32F10x_StdPeriph_Driver/src/stm32f10x_flash.c ****       if(status != FLASH_TIMEOUT)
 1229              		.loc 1 1081 0
 1230 064e FB7B     		ldrb	r3, [r7, #15]	@ zero_extendqisi2
 1231 0650 052B     		cmp	r3, #5
 1232 0652 11D0     		beq	.L70
1082:../lib/STM32F10x_StdPeriph_Driver/src/stm32f10x_flash.c ****       {
1083:../lib/STM32F10x_StdPeriph_Driver/src/stm32f10x_flash.c ****         /* if the program operation is completed, disable the OPTPG Bit */
1084:../lib/STM32F10x_StdPeriph_Driver/src/stm32f10x_flash.c ****         FLASH->CR &= CR_OPTPG_Reset;
 1233              		.loc 1 1084 0
 1234 0654 0B4A     		ldr	r2, .L75
 1235 0656 0B4B     		ldr	r3, .L75
 1236 0658 1969     		ldr	r1, [r3, #16]
 1237 065a 41F6EF73 		movw	r3, #8175
 1238 065e 0B40     		ands	r3, r3, r1
 1239 0660 1361     		str	r3, [r2, #16]
 1240 0662 09E0     		b	.L70
 1241              	.L71:
1085:../lib/STM32F10x_StdPeriph_Driver/src/stm32f10x_flash.c ****       }
1086:../lib/STM32F10x_StdPeriph_Driver/src/stm32f10x_flash.c ****     }
1087:../lib/STM32F10x_StdPeriph_Driver/src/stm32f10x_flash.c ****     else 
1088:../lib/STM32F10x_StdPeriph_Driver/src/stm32f10x_flash.c ****     {
1089:../lib/STM32F10x_StdPeriph_Driver/src/stm32f10x_flash.c ****       if(status != FLASH_TIMEOUT)
 1242              		.loc 1 1089 0
 1243 0664 FB7B     		ldrb	r3, [r7, #15]	@ zero_extendqisi2
 1244 0666 052B     		cmp	r3, #5
 1245 0668 06D0     		beq	.L70
1090:../lib/STM32F10x_StdPeriph_Driver/src/stm32f10x_flash.c ****       {
1091:../lib/STM32F10x_StdPeriph_Driver/src/stm32f10x_flash.c ****         /* Disable the OPTER Bit */
1092:../lib/STM32F10x_StdPeriph_Driver/src/stm32f10x_flash.c ****         FLASH->CR &= CR_OPTER_Reset;
 1246              		.loc 1 1092 0
 1247 066a 064A     		ldr	r2, .L75
 1248 066c 054B     		ldr	r3, .L75
 1249 066e 1969     		ldr	r1, [r3, #16]
 1250 0670 41F6DF73 		movw	r3, #8159
 1251 0674 0B40     		ands	r3, r3, r1
 1252 0676 1361     		str	r3, [r2, #16]
 1253              	.L70:
1093:../lib/STM32F10x_StdPeriph_Driver/src/stm32f10x_flash.c ****       }
1094:../lib/STM32F10x_StdPeriph_Driver/src/stm32f10x_flash.c ****     }
1095:../lib/STM32F10x_StdPeriph_Driver/src/stm32f10x_flash.c ****   }
1096:../lib/STM32F10x_StdPeriph_Driver/src/stm32f10x_flash.c ****   /* Return the protection operation Status */
1097:../lib/STM32F10x_StdPeriph_Driver/src/stm32f10x_flash.c ****   return status;       
 1254              		.loc 1 1097 0
 1255 0678 FB7B     		ldrb	r3, [r7, #15]	@ zero_extendqisi2
1098:../lib/STM32F10x_StdPeriph_Driver/src/stm32f10x_flash.c **** }
 1256              		.loc 1 1098 0
 1257 067a 1846     		mov	r0, r3
 1258 067c 07F11007 		add	r7, r7, #16
 1259 0680 BD46     		mov	sp, r7
 1260 0682 80BD     		pop	{r7, pc}
 1261              	.L76:
 1262              		.align	2
 1263              	.L75:
 1264 0684 00200240 		.word	1073881088
 1265 0688 23016745 		.word	1164378403
 1266 068c AB89EFCD 		.word	-839939669
 1267 0690 00F8FF1F 		.word	536868864
 1268              		.cfi_endproc
 1269              	.LFE44:
 1271              		.align	2
 1272              		.global	FLASH_UserOptionByteConfig
 1273              		.thumb
 1274              		.thumb_func
 1276              	FLASH_UserOptionByteConfig:
 1277              	.LFB45:
1099:../lib/STM32F10x_StdPeriph_Driver/src/stm32f10x_flash.c **** 
1100:../lib/STM32F10x_StdPeriph_Driver/src/stm32f10x_flash.c **** /**
1101:../lib/STM32F10x_StdPeriph_Driver/src/stm32f10x_flash.c ****   * @brief  Programs the FLASH User Option Byte: IWDG_SW / RST_STOP / RST_STDBY.
1102:../lib/STM32F10x_StdPeriph_Driver/src/stm32f10x_flash.c ****   * @note   This function can be used for all STM32F10x devices.
1103:../lib/STM32F10x_StdPeriph_Driver/src/stm32f10x_flash.c ****   * @param  OB_IWDG: Selects the IWDG mode
1104:../lib/STM32F10x_StdPeriph_Driver/src/stm32f10x_flash.c ****   *   This parameter can be one of the following values:
1105:../lib/STM32F10x_StdPeriph_Driver/src/stm32f10x_flash.c ****   *     @arg OB_IWDG_SW: Software IWDG selected
1106:../lib/STM32F10x_StdPeriph_Driver/src/stm32f10x_flash.c ****   *     @arg OB_IWDG_HW: Hardware IWDG selected
1107:../lib/STM32F10x_StdPeriph_Driver/src/stm32f10x_flash.c ****   * @param  OB_STOP: Reset event when entering STOP mode.
1108:../lib/STM32F10x_StdPeriph_Driver/src/stm32f10x_flash.c ****   *   This parameter can be one of the following values:
1109:../lib/STM32F10x_StdPeriph_Driver/src/stm32f10x_flash.c ****   *     @arg OB_STOP_NoRST: No reset generated when entering in STOP
1110:../lib/STM32F10x_StdPeriph_Driver/src/stm32f10x_flash.c ****   *     @arg OB_STOP_RST: Reset generated when entering in STOP
1111:../lib/STM32F10x_StdPeriph_Driver/src/stm32f10x_flash.c ****   * @param  OB_STDBY: Reset event when entering Standby mode.
1112:../lib/STM32F10x_StdPeriph_Driver/src/stm32f10x_flash.c ****   *   This parameter can be one of the following values:
1113:../lib/STM32F10x_StdPeriph_Driver/src/stm32f10x_flash.c ****   *     @arg OB_STDBY_NoRST: No reset generated when entering in STANDBY
1114:../lib/STM32F10x_StdPeriph_Driver/src/stm32f10x_flash.c ****   *     @arg OB_STDBY_RST: Reset generated when entering in STANDBY
1115:../lib/STM32F10x_StdPeriph_Driver/src/stm32f10x_flash.c ****   * @retval FLASH Status: The returned value can be: FLASH_ERROR_PG, 
1116:../lib/STM32F10x_StdPeriph_Driver/src/stm32f10x_flash.c ****   *         FLASH_ERROR_WRP, FLASH_COMPLETE or FLASH_TIMEOUT.
1117:../lib/STM32F10x_StdPeriph_Driver/src/stm32f10x_flash.c ****   */
1118:../lib/STM32F10x_StdPeriph_Driver/src/stm32f10x_flash.c **** FLASH_Status FLASH_UserOptionByteConfig(uint16_t OB_IWDG, uint16_t OB_STOP, uint16_t OB_STDBY)
1119:../lib/STM32F10x_StdPeriph_Driver/src/stm32f10x_flash.c **** {
 1278              		.loc 1 1119 0
 1279              		.cfi_startproc
 1280              		@ args = 0, pretend = 0, frame = 16
 1281              		@ frame_needed = 1, uses_anonymous_args = 0
 1282 0694 80B5     		push	{r7, lr}
 1283              	.LCFI44:
 1284              		.cfi_def_cfa_offset 8
 1285              		.cfi_offset 7, -8
 1286              		.cfi_offset 14, -4
 1287 0696 84B0     		sub	sp, sp, #16
 1288              	.LCFI45:
 1289              		.cfi_def_cfa_offset 24
 1290 0698 00AF     		add	r7, sp, #0
 1291              	.LCFI46:
 1292              		.cfi_def_cfa_register 7
 1293 069a 1346     		mov	r3, r2
 1294 069c 0246     		mov	r2, r0	@ movhi
 1295 069e FA80     		strh	r2, [r7, #6]	@ movhi
 1296 06a0 0A46     		mov	r2, r1	@ movhi
 1297 06a2 BA80     		strh	r2, [r7, #4]	@ movhi
 1298 06a4 7B80     		strh	r3, [r7, #2]	@ movhi
1120:../lib/STM32F10x_StdPeriph_Driver/src/stm32f10x_flash.c ****   FLASH_Status status = FLASH_COMPLETE; 
 1299              		.loc 1 1120 0
 1300 06a6 4FF00403 		mov	r3, #4
 1301 06aa FB73     		strb	r3, [r7, #15]
1121:../lib/STM32F10x_StdPeriph_Driver/src/stm32f10x_flash.c **** 
1122:../lib/STM32F10x_StdPeriph_Driver/src/stm32f10x_flash.c ****   /* Check the parameters */
1123:../lib/STM32F10x_StdPeriph_Driver/src/stm32f10x_flash.c ****   assert_param(IS_OB_IWDG_SOURCE(OB_IWDG));
1124:../lib/STM32F10x_StdPeriph_Driver/src/stm32f10x_flash.c ****   assert_param(IS_OB_STOP_SOURCE(OB_STOP));
1125:../lib/STM32F10x_StdPeriph_Driver/src/stm32f10x_flash.c ****   assert_param(IS_OB_STDBY_SOURCE(OB_STDBY));
1126:../lib/STM32F10x_StdPeriph_Driver/src/stm32f10x_flash.c **** 
1127:../lib/STM32F10x_StdPeriph_Driver/src/stm32f10x_flash.c ****   /* Authorize the small information block programming */
1128:../lib/STM32F10x_StdPeriph_Driver/src/stm32f10x_flash.c ****   FLASH->OPTKEYR = FLASH_KEY1;
 1302              		.loc 1 1128 0
 1303 06ac 1B4B     		ldr	r3, .L80
 1304 06ae 1C4A     		ldr	r2, .L80+4
 1305 06b0 9A60     		str	r2, [r3, #8]
1129:../lib/STM32F10x_StdPeriph_Driver/src/stm32f10x_flash.c ****   FLASH->OPTKEYR = FLASH_KEY2;
 1306              		.loc 1 1129 0
 1307 06b2 1A4B     		ldr	r3, .L80
 1308 06b4 1B4A     		ldr	r2, .L80+8
 1309 06b6 9A60     		str	r2, [r3, #8]
1130:../lib/STM32F10x_StdPeriph_Driver/src/stm32f10x_flash.c ****   
1131:../lib/STM32F10x_StdPeriph_Driver/src/stm32f10x_flash.c ****   /* Wait for last operation to be completed */
1132:../lib/STM32F10x_StdPeriph_Driver/src/stm32f10x_flash.c ****   status = FLASH_WaitForLastOperation(ProgramTimeout);
 1310              		.loc 1 1132 0
 1311 06b8 4FF40050 		mov	r0, #8192
 1312 06bc FFF7FEFF 		bl	FLASH_WaitForLastOperation
 1313 06c0 0346     		mov	r3, r0
 1314 06c2 FB73     		strb	r3, [r7, #15]
1133:../lib/STM32F10x_StdPeriph_Driver/src/stm32f10x_flash.c ****   
1134:../lib/STM32F10x_StdPeriph_Driver/src/stm32f10x_flash.c ****   if(status == FLASH_COMPLETE)
 1315              		.loc 1 1134 0
 1316 06c4 FB7B     		ldrb	r3, [r7, #15]	@ zero_extendqisi2
 1317 06c6 042B     		cmp	r3, #4
 1318 06c8 21D1     		bne	.L78
1135:../lib/STM32F10x_StdPeriph_Driver/src/stm32f10x_flash.c ****   {  
1136:../lib/STM32F10x_StdPeriph_Driver/src/stm32f10x_flash.c ****     /* Enable the Option Bytes Programming operation */
1137:../lib/STM32F10x_StdPeriph_Driver/src/stm32f10x_flash.c ****     FLASH->CR |= CR_OPTPG_Set; 
 1319              		.loc 1 1137 0
 1320 06ca 144B     		ldr	r3, .L80
 1321 06cc 134A     		ldr	r2, .L80
 1322 06ce 1269     		ldr	r2, [r2, #16]
 1323 06d0 42F01002 		orr	r2, r2, #16
 1324 06d4 1A61     		str	r2, [r3, #16]
1138:../lib/STM32F10x_StdPeriph_Driver/src/stm32f10x_flash.c ****            
1139:../lib/STM32F10x_StdPeriph_Driver/src/stm32f10x_flash.c ****     OB->USER = OB_IWDG | (uint16_t)(OB_STOP | (uint16_t)(OB_STDBY | ((uint16_t)0xF8))); 
 1325              		.loc 1 1139 0
 1326 06d6 144B     		ldr	r3, .L80+12
 1327 06d8 7988     		ldrh	r1, [r7, #2]	@ movhi
 1328 06da BA88     		ldrh	r2, [r7, #4]	@ movhi
 1329 06dc 0A43     		orrs	r2, r2, r1
 1330 06de 91B2     		uxth	r1, r2
 1331 06e0 FA88     		ldrh	r2, [r7, #6]	@ movhi
 1332 06e2 0A43     		orrs	r2, r2, r1
 1333 06e4 92B2     		uxth	r2, r2
 1334 06e6 42F0F802 		orr	r2, r2, #248
 1335 06ea 92B2     		uxth	r2, r2
 1336 06ec 5A80     		strh	r2, [r3, #2]	@ movhi
1140:../lib/STM32F10x_StdPeriph_Driver/src/stm32f10x_flash.c ****   
1141:../lib/STM32F10x_StdPeriph_Driver/src/stm32f10x_flash.c ****     /* Wait for last operation to be completed */
1142:../lib/STM32F10x_StdPeriph_Driver/src/stm32f10x_flash.c ****     status = FLASH_WaitForLastOperation(ProgramTimeout);
 1337              		.loc 1 1142 0
 1338 06ee 4FF40050 		mov	r0, #8192
 1339 06f2 FFF7FEFF 		bl	FLASH_WaitForLastOperation
 1340 06f6 0346     		mov	r3, r0
 1341 06f8 FB73     		strb	r3, [r7, #15]
1143:../lib/STM32F10x_StdPeriph_Driver/src/stm32f10x_flash.c ****     if(status != FLASH_TIMEOUT)
 1342              		.loc 1 1143 0
 1343 06fa FB7B     		ldrb	r3, [r7, #15]	@ zero_extendqisi2
 1344 06fc 052B     		cmp	r3, #5
 1345 06fe 06D0     		beq	.L78
1144:../lib/STM32F10x_StdPeriph_Driver/src/stm32f10x_flash.c ****     {
1145:../lib/STM32F10x_StdPeriph_Driver/src/stm32f10x_flash.c ****       /* if the program operation is completed, disable the OPTPG Bit */
1146:../lib/STM32F10x_StdPeriph_Driver/src/stm32f10x_flash.c ****       FLASH->CR &= CR_OPTPG_Reset;
 1346              		.loc 1 1146 0
 1347 0700 064A     		ldr	r2, .L80
 1348 0702 064B     		ldr	r3, .L80
 1349 0704 1969     		ldr	r1, [r3, #16]
 1350 0706 41F6EF73 		movw	r3, #8175
 1351 070a 0B40     		ands	r3, r3, r1
 1352 070c 1361     		str	r3, [r2, #16]
 1353              	.L78:
1147:../lib/STM32F10x_StdPeriph_Driver/src/stm32f10x_flash.c ****     }
1148:../lib/STM32F10x_StdPeriph_Driver/src/stm32f10x_flash.c ****   }    
1149:../lib/STM32F10x_StdPeriph_Driver/src/stm32f10x_flash.c ****   /* Return the Option Byte program Status */
1150:../lib/STM32F10x_StdPeriph_Driver/src/stm32f10x_flash.c ****   return status;
 1354              		.loc 1 1150 0
 1355 070e FB7B     		ldrb	r3, [r7, #15]	@ zero_extendqisi2
1151:../lib/STM32F10x_StdPeriph_Driver/src/stm32f10x_flash.c **** }
 1356              		.loc 1 1151 0
 1357 0710 1846     		mov	r0, r3
 1358 0712 07F11007 		add	r7, r7, #16
 1359 0716 BD46     		mov	sp, r7
 1360 0718 80BD     		pop	{r7, pc}
 1361              	.L81:
 1362 071a 00BF     		.align	2
 1363              	.L80:
 1364 071c 00200240 		.word	1073881088
 1365 0720 23016745 		.word	1164378403
 1366 0724 AB89EFCD 		.word	-839939669
 1367 0728 00F8FF1F 		.word	536868864
 1368              		.cfi_endproc
 1369              	.LFE45:
 1371              		.align	2
 1372              		.global	FLASH_GetUserOptionByte
 1373              		.thumb
 1374              		.thumb_func
 1376              	FLASH_GetUserOptionByte:
 1377              	.LFB46:
1152:../lib/STM32F10x_StdPeriph_Driver/src/stm32f10x_flash.c **** 
1153:../lib/STM32F10x_StdPeriph_Driver/src/stm32f10x_flash.c **** #ifdef STM32F10X_XL
1154:../lib/STM32F10x_StdPeriph_Driver/src/stm32f10x_flash.c **** /**
1155:../lib/STM32F10x_StdPeriph_Driver/src/stm32f10x_flash.c ****   * @brief  Configures to boot from Bank1 or Bank2.  
1156:../lib/STM32F10x_StdPeriph_Driver/src/stm32f10x_flash.c ****   * @note   This function can be used only for STM32F10x_XL density devices.
1157:../lib/STM32F10x_StdPeriph_Driver/src/stm32f10x_flash.c ****   * @param  FLASH_BOOT: select the FLASH Bank to boot from.
1158:../lib/STM32F10x_StdPeriph_Driver/src/stm32f10x_flash.c ****   *   This parameter can be one of the following values:
1159:../lib/STM32F10x_StdPeriph_Driver/src/stm32f10x_flash.c ****   *     @arg FLASH_BOOT_Bank1: At startup, if boot pins are set in boot from user Flash
1160:../lib/STM32F10x_StdPeriph_Driver/src/stm32f10x_flash.c ****   *        position and this parameter is selected the device will boot from Bank1(Default).
1161:../lib/STM32F10x_StdPeriph_Driver/src/stm32f10x_flash.c ****   *     @arg FLASH_BOOT_Bank2: At startup, if boot pins are set in boot from user Flash
1162:../lib/STM32F10x_StdPeriph_Driver/src/stm32f10x_flash.c ****   *        position and this parameter is selected the device will boot from Bank2 or Bank1,
1163:../lib/STM32F10x_StdPeriph_Driver/src/stm32f10x_flash.c ****   *        depending on the activation of the bank. The active banks are checked in
1164:../lib/STM32F10x_StdPeriph_Driver/src/stm32f10x_flash.c ****   *        the following order: Bank2, followed by Bank1.
1165:../lib/STM32F10x_StdPeriph_Driver/src/stm32f10x_flash.c ****   *        The active bank is recognized by the value programmed at the base address
1166:../lib/STM32F10x_StdPeriph_Driver/src/stm32f10x_flash.c ****   *        of the respective bank (corresponding to the initial stack pointer value
1167:../lib/STM32F10x_StdPeriph_Driver/src/stm32f10x_flash.c ****   *        in the interrupt vector table).
1168:../lib/STM32F10x_StdPeriph_Driver/src/stm32f10x_flash.c ****   *        For more information, please refer to AN2606 from www.st.com.    
1169:../lib/STM32F10x_StdPeriph_Driver/src/stm32f10x_flash.c ****   * @retval FLASH Status: The returned value can be: FLASH_ERROR_PG, 
1170:../lib/STM32F10x_StdPeriph_Driver/src/stm32f10x_flash.c ****   *         FLASH_ERROR_WRP, FLASH_COMPLETE or FLASH_TIMEOUT.
1171:../lib/STM32F10x_StdPeriph_Driver/src/stm32f10x_flash.c ****   */
1172:../lib/STM32F10x_StdPeriph_Driver/src/stm32f10x_flash.c **** FLASH_Status FLASH_BootConfig(uint16_t FLASH_BOOT)
1173:../lib/STM32F10x_StdPeriph_Driver/src/stm32f10x_flash.c **** { 
1174:../lib/STM32F10x_StdPeriph_Driver/src/stm32f10x_flash.c ****   FLASH_Status status = FLASH_COMPLETE; 
1175:../lib/STM32F10x_StdPeriph_Driver/src/stm32f10x_flash.c ****   assert_param(IS_FLASH_BOOT(FLASH_BOOT));
1176:../lib/STM32F10x_StdPeriph_Driver/src/stm32f10x_flash.c ****   /* Authorize the small information block programming */
1177:../lib/STM32F10x_StdPeriph_Driver/src/stm32f10x_flash.c ****   FLASH->OPTKEYR = FLASH_KEY1;
1178:../lib/STM32F10x_StdPeriph_Driver/src/stm32f10x_flash.c ****   FLASH->OPTKEYR = FLASH_KEY2;
1179:../lib/STM32F10x_StdPeriph_Driver/src/stm32f10x_flash.c ****   
1180:../lib/STM32F10x_StdPeriph_Driver/src/stm32f10x_flash.c ****   /* Wait for last operation to be completed */
1181:../lib/STM32F10x_StdPeriph_Driver/src/stm32f10x_flash.c ****   status = FLASH_WaitForLastOperation(ProgramTimeout);
1182:../lib/STM32F10x_StdPeriph_Driver/src/stm32f10x_flash.c ****   
1183:../lib/STM32F10x_StdPeriph_Driver/src/stm32f10x_flash.c ****   if(status == FLASH_COMPLETE)
1184:../lib/STM32F10x_StdPeriph_Driver/src/stm32f10x_flash.c ****   {  
1185:../lib/STM32F10x_StdPeriph_Driver/src/stm32f10x_flash.c ****     /* Enable the Option Bytes Programming operation */
1186:../lib/STM32F10x_StdPeriph_Driver/src/stm32f10x_flash.c ****     FLASH->CR |= CR_OPTPG_Set; 
1187:../lib/STM32F10x_StdPeriph_Driver/src/stm32f10x_flash.c **** 
1188:../lib/STM32F10x_StdPeriph_Driver/src/stm32f10x_flash.c ****     if(FLASH_BOOT == FLASH_BOOT_Bank1)
1189:../lib/STM32F10x_StdPeriph_Driver/src/stm32f10x_flash.c ****     {
1190:../lib/STM32F10x_StdPeriph_Driver/src/stm32f10x_flash.c ****       OB->USER |= OB_USER_BFB2;
1191:../lib/STM32F10x_StdPeriph_Driver/src/stm32f10x_flash.c ****     }
1192:../lib/STM32F10x_StdPeriph_Driver/src/stm32f10x_flash.c ****     else
1193:../lib/STM32F10x_StdPeriph_Driver/src/stm32f10x_flash.c ****     {
1194:../lib/STM32F10x_StdPeriph_Driver/src/stm32f10x_flash.c ****       OB->USER &= (uint16_t)(~(uint16_t)(OB_USER_BFB2));
1195:../lib/STM32F10x_StdPeriph_Driver/src/stm32f10x_flash.c ****     }
1196:../lib/STM32F10x_StdPeriph_Driver/src/stm32f10x_flash.c ****     /* Wait for last operation to be completed */
1197:../lib/STM32F10x_StdPeriph_Driver/src/stm32f10x_flash.c ****     status = FLASH_WaitForLastOperation(ProgramTimeout);
1198:../lib/STM32F10x_StdPeriph_Driver/src/stm32f10x_flash.c ****     if(status != FLASH_TIMEOUT)
1199:../lib/STM32F10x_StdPeriph_Driver/src/stm32f10x_flash.c ****     {
1200:../lib/STM32F10x_StdPeriph_Driver/src/stm32f10x_flash.c ****       /* if the program operation is completed, disable the OPTPG Bit */
1201:../lib/STM32F10x_StdPeriph_Driver/src/stm32f10x_flash.c ****       FLASH->CR &= CR_OPTPG_Reset;
1202:../lib/STM32F10x_StdPeriph_Driver/src/stm32f10x_flash.c ****     }
1203:../lib/STM32F10x_StdPeriph_Driver/src/stm32f10x_flash.c ****   }    
1204:../lib/STM32F10x_StdPeriph_Driver/src/stm32f10x_flash.c ****   /* Return the Option Byte program Status */
1205:../lib/STM32F10x_StdPeriph_Driver/src/stm32f10x_flash.c ****   return status;
1206:../lib/STM32F10x_StdPeriph_Driver/src/stm32f10x_flash.c **** }
1207:../lib/STM32F10x_StdPeriph_Driver/src/stm32f10x_flash.c **** #endif /* STM32F10X_XL */
1208:../lib/STM32F10x_StdPeriph_Driver/src/stm32f10x_flash.c **** 
1209:../lib/STM32F10x_StdPeriph_Driver/src/stm32f10x_flash.c **** /**
1210:../lib/STM32F10x_StdPeriph_Driver/src/stm32f10x_flash.c ****   * @brief  Returns the FLASH User Option Bytes values.
1211:../lib/STM32F10x_StdPeriph_Driver/src/stm32f10x_flash.c ****   * @note   This function can be used for all STM32F10x devices.
1212:../lib/STM32F10x_StdPeriph_Driver/src/stm32f10x_flash.c ****   * @param  None
1213:../lib/STM32F10x_StdPeriph_Driver/src/stm32f10x_flash.c ****   * @retval The FLASH User Option Bytes values:IWDG_SW(Bit0), RST_STOP(Bit1)
1214:../lib/STM32F10x_StdPeriph_Driver/src/stm32f10x_flash.c ****   *         and RST_STDBY(Bit2).
1215:../lib/STM32F10x_StdPeriph_Driver/src/stm32f10x_flash.c ****   */
1216:../lib/STM32F10x_StdPeriph_Driver/src/stm32f10x_flash.c **** uint32_t FLASH_GetUserOptionByte(void)
1217:../lib/STM32F10x_StdPeriph_Driver/src/stm32f10x_flash.c **** {
 1378              		.loc 1 1217 0
 1379              		.cfi_startproc
 1380              		@ args = 0, pretend = 0, frame = 0
 1381              		@ frame_needed = 1, uses_anonymous_args = 0
 1382              		@ link register save eliminated.
 1383 072c 80B4     		push	{r7}
 1384              	.LCFI47:
 1385              		.cfi_def_cfa_offset 4
 1386              		.cfi_offset 7, -4
 1387 072e 00AF     		add	r7, sp, #0
 1388              	.LCFI48:
 1389              		.cfi_def_cfa_register 7
1218:../lib/STM32F10x_StdPeriph_Driver/src/stm32f10x_flash.c ****   /* Return the User Option Byte */
1219:../lib/STM32F10x_StdPeriph_Driver/src/stm32f10x_flash.c ****   return (uint32_t)(FLASH->OBR >> 2);
 1390              		.loc 1 1219 0
 1391 0730 034B     		ldr	r3, .L84
 1392 0732 DB69     		ldr	r3, [r3, #28]
 1393 0734 4FEA9303 		lsr	r3, r3, #2
1220:../lib/STM32F10x_StdPeriph_Driver/src/stm32f10x_flash.c **** }
 1394              		.loc 1 1220 0
 1395 0738 1846     		mov	r0, r3
 1396 073a BD46     		mov	sp, r7
 1397 073c 80BC     		pop	{r7}
 1398 073e 7047     		bx	lr
 1399              	.L85:
 1400              		.align	2
 1401              	.L84:
 1402 0740 00200240 		.word	1073881088
 1403              		.cfi_endproc
 1404              	.LFE46:
 1406              		.align	2
 1407              		.global	FLASH_GetWriteProtectionOptionByte
 1408              		.thumb
 1409              		.thumb_func
 1411              	FLASH_GetWriteProtectionOptionByte:
 1412              	.LFB47:
1221:../lib/STM32F10x_StdPeriph_Driver/src/stm32f10x_flash.c **** 
1222:../lib/STM32F10x_StdPeriph_Driver/src/stm32f10x_flash.c **** /**
1223:../lib/STM32F10x_StdPeriph_Driver/src/stm32f10x_flash.c ****   * @brief  Returns the FLASH Write Protection Option Bytes Register value.
1224:../lib/STM32F10x_StdPeriph_Driver/src/stm32f10x_flash.c ****   * @note   This function can be used for all STM32F10x devices.
1225:../lib/STM32F10x_StdPeriph_Driver/src/stm32f10x_flash.c ****   * @param  None
1226:../lib/STM32F10x_StdPeriph_Driver/src/stm32f10x_flash.c ****   * @retval The FLASH Write Protection  Option Bytes Register value
1227:../lib/STM32F10x_StdPeriph_Driver/src/stm32f10x_flash.c ****   */
1228:../lib/STM32F10x_StdPeriph_Driver/src/stm32f10x_flash.c **** uint32_t FLASH_GetWriteProtectionOptionByte(void)
1229:../lib/STM32F10x_StdPeriph_Driver/src/stm32f10x_flash.c **** {
 1413              		.loc 1 1229 0
 1414              		.cfi_startproc
 1415              		@ args = 0, pretend = 0, frame = 0
 1416              		@ frame_needed = 1, uses_anonymous_args = 0
 1417              		@ link register save eliminated.
 1418 0744 80B4     		push	{r7}
 1419              	.LCFI49:
 1420              		.cfi_def_cfa_offset 4
 1421              		.cfi_offset 7, -4
 1422 0746 00AF     		add	r7, sp, #0
 1423              	.LCFI50:
 1424              		.cfi_def_cfa_register 7
1230:../lib/STM32F10x_StdPeriph_Driver/src/stm32f10x_flash.c ****   /* Return the Flash write protection Register value */
1231:../lib/STM32F10x_StdPeriph_Driver/src/stm32f10x_flash.c ****   return (uint32_t)(FLASH->WRPR);
 1425              		.loc 1 1231 0
 1426 0748 024B     		ldr	r3, .L88
 1427 074a 1B6A     		ldr	r3, [r3, #32]
1232:../lib/STM32F10x_StdPeriph_Driver/src/stm32f10x_flash.c **** }
 1428              		.loc 1 1232 0
 1429 074c 1846     		mov	r0, r3
 1430 074e BD46     		mov	sp, r7
 1431 0750 80BC     		pop	{r7}
 1432 0752 7047     		bx	lr
 1433              	.L89:
 1434              		.align	2
 1435              	.L88:
 1436 0754 00200240 		.word	1073881088
 1437              		.cfi_endproc
 1438              	.LFE47:
 1440              		.align	2
 1441              		.global	FLASH_GetReadOutProtectionStatus
 1442              		.thumb
 1443              		.thumb_func
 1445              	FLASH_GetReadOutProtectionStatus:
 1446              	.LFB48:
1233:../lib/STM32F10x_StdPeriph_Driver/src/stm32f10x_flash.c **** 
1234:../lib/STM32F10x_StdPeriph_Driver/src/stm32f10x_flash.c **** /**
1235:../lib/STM32F10x_StdPeriph_Driver/src/stm32f10x_flash.c ****   * @brief  Checks whether the FLASH Read Out Protection Status is set or not.
1236:../lib/STM32F10x_StdPeriph_Driver/src/stm32f10x_flash.c ****   * @note   This function can be used for all STM32F10x devices.
1237:../lib/STM32F10x_StdPeriph_Driver/src/stm32f10x_flash.c ****   * @param  None
1238:../lib/STM32F10x_StdPeriph_Driver/src/stm32f10x_flash.c ****   * @retval FLASH ReadOut Protection Status(SET or RESET)
1239:../lib/STM32F10x_StdPeriph_Driver/src/stm32f10x_flash.c ****   */
1240:../lib/STM32F10x_StdPeriph_Driver/src/stm32f10x_flash.c **** FlagStatus FLASH_GetReadOutProtectionStatus(void)
1241:../lib/STM32F10x_StdPeriph_Driver/src/stm32f10x_flash.c **** {
 1447              		.loc 1 1241 0
 1448              		.cfi_startproc
 1449              		@ args = 0, pretend = 0, frame = 8
 1450              		@ frame_needed = 1, uses_anonymous_args = 0
 1451              		@ link register save eliminated.
 1452 0758 80B4     		push	{r7}
 1453              	.LCFI51:
 1454              		.cfi_def_cfa_offset 4
 1455              		.cfi_offset 7, -4
 1456 075a 83B0     		sub	sp, sp, #12
 1457              	.LCFI52:
 1458              		.cfi_def_cfa_offset 16
 1459 075c 00AF     		add	r7, sp, #0
 1460              	.LCFI53:
 1461              		.cfi_def_cfa_register 7
1242:../lib/STM32F10x_StdPeriph_Driver/src/stm32f10x_flash.c ****   FlagStatus readoutstatus = RESET;
 1462              		.loc 1 1242 0
 1463 075e 4FF00003 		mov	r3, #0
 1464 0762 FB71     		strb	r3, [r7, #7]
1243:../lib/STM32F10x_StdPeriph_Driver/src/stm32f10x_flash.c ****   if ((FLASH->OBR & RDPRT_Mask) != (uint32_t)RESET)
 1465              		.loc 1 1243 0
 1466 0764 094B     		ldr	r3, .L94
 1467 0766 DB69     		ldr	r3, [r3, #28]
 1468 0768 03F00203 		and	r3, r3, #2
 1469 076c 002B     		cmp	r3, #0
 1470 076e 03D0     		beq	.L91
1244:../lib/STM32F10x_StdPeriph_Driver/src/stm32f10x_flash.c ****   {
1245:../lib/STM32F10x_StdPeriph_Driver/src/stm32f10x_flash.c ****     readoutstatus = SET;
 1471              		.loc 1 1245 0
 1472 0770 4FF00103 		mov	r3, #1
 1473 0774 FB71     		strb	r3, [r7, #7]
 1474 0776 02E0     		b	.L92
 1475              	.L91:
1246:../lib/STM32F10x_StdPeriph_Driver/src/stm32f10x_flash.c ****   }
1247:../lib/STM32F10x_StdPeriph_Driver/src/stm32f10x_flash.c ****   else
1248:../lib/STM32F10x_StdPeriph_Driver/src/stm32f10x_flash.c ****   {
1249:../lib/STM32F10x_StdPeriph_Driver/src/stm32f10x_flash.c ****     readoutstatus = RESET;
 1476              		.loc 1 1249 0
 1477 0778 4FF00003 		mov	r3, #0
 1478 077c FB71     		strb	r3, [r7, #7]
 1479              	.L92:
1250:../lib/STM32F10x_StdPeriph_Driver/src/stm32f10x_flash.c ****   }
1251:../lib/STM32F10x_StdPeriph_Driver/src/stm32f10x_flash.c ****   return readoutstatus;
 1480              		.loc 1 1251 0
 1481 077e FB79     		ldrb	r3, [r7, #7]	@ zero_extendqisi2
1252:../lib/STM32F10x_StdPeriph_Driver/src/stm32f10x_flash.c **** }
 1482              		.loc 1 1252 0
 1483 0780 1846     		mov	r0, r3
 1484 0782 07F10C07 		add	r7, r7, #12
 1485 0786 BD46     		mov	sp, r7
 1486 0788 80BC     		pop	{r7}
 1487 078a 7047     		bx	lr
 1488              	.L95:
 1489              		.align	2
 1490              	.L94:
 1491 078c 00200240 		.word	1073881088
 1492              		.cfi_endproc
 1493              	.LFE48:
 1495              		.align	2
 1496              		.global	FLASH_GetPrefetchBufferStatus
 1497              		.thumb
 1498              		.thumb_func
 1500              	FLASH_GetPrefetchBufferStatus:
 1501              	.LFB49:
1253:../lib/STM32F10x_StdPeriph_Driver/src/stm32f10x_flash.c **** 
1254:../lib/STM32F10x_StdPeriph_Driver/src/stm32f10x_flash.c **** /**
1255:../lib/STM32F10x_StdPeriph_Driver/src/stm32f10x_flash.c ****   * @brief  Checks whether the FLASH Prefetch Buffer status is set or not.
1256:../lib/STM32F10x_StdPeriph_Driver/src/stm32f10x_flash.c ****   * @note   This function can be used for all STM32F10x devices.
1257:../lib/STM32F10x_StdPeriph_Driver/src/stm32f10x_flash.c ****   * @param  None
1258:../lib/STM32F10x_StdPeriph_Driver/src/stm32f10x_flash.c ****   * @retval FLASH Prefetch Buffer Status (SET or RESET).
1259:../lib/STM32F10x_StdPeriph_Driver/src/stm32f10x_flash.c ****   */
1260:../lib/STM32F10x_StdPeriph_Driver/src/stm32f10x_flash.c **** FlagStatus FLASH_GetPrefetchBufferStatus(void)
1261:../lib/STM32F10x_StdPeriph_Driver/src/stm32f10x_flash.c **** {
 1502              		.loc 1 1261 0
 1503              		.cfi_startproc
 1504              		@ args = 0, pretend = 0, frame = 8
 1505              		@ frame_needed = 1, uses_anonymous_args = 0
 1506              		@ link register save eliminated.
 1507 0790 80B4     		push	{r7}
 1508              	.LCFI54:
 1509              		.cfi_def_cfa_offset 4
 1510              		.cfi_offset 7, -4
 1511 0792 83B0     		sub	sp, sp, #12
 1512              	.LCFI55:
 1513              		.cfi_def_cfa_offset 16
 1514 0794 00AF     		add	r7, sp, #0
 1515              	.LCFI56:
 1516              		.cfi_def_cfa_register 7
1262:../lib/STM32F10x_StdPeriph_Driver/src/stm32f10x_flash.c ****   FlagStatus bitstatus = RESET;
 1517              		.loc 1 1262 0
 1518 0796 4FF00003 		mov	r3, #0
 1519 079a FB71     		strb	r3, [r7, #7]
1263:../lib/STM32F10x_StdPeriph_Driver/src/stm32f10x_flash.c ****   
1264:../lib/STM32F10x_StdPeriph_Driver/src/stm32f10x_flash.c ****   if ((FLASH->ACR & ACR_PRFTBS_Mask) != (uint32_t)RESET)
 1520              		.loc 1 1264 0
 1521 079c 094B     		ldr	r3, .L100
 1522 079e 1B68     		ldr	r3, [r3, #0]
 1523 07a0 03F02003 		and	r3, r3, #32
 1524 07a4 002B     		cmp	r3, #0
 1525 07a6 03D0     		beq	.L97
1265:../lib/STM32F10x_StdPeriph_Driver/src/stm32f10x_flash.c ****   {
1266:../lib/STM32F10x_StdPeriph_Driver/src/stm32f10x_flash.c ****     bitstatus = SET;
 1526              		.loc 1 1266 0
 1527 07a8 4FF00103 		mov	r3, #1
 1528 07ac FB71     		strb	r3, [r7, #7]
 1529 07ae 02E0     		b	.L98
 1530              	.L97:
1267:../lib/STM32F10x_StdPeriph_Driver/src/stm32f10x_flash.c ****   }
1268:../lib/STM32F10x_StdPeriph_Driver/src/stm32f10x_flash.c ****   else
1269:../lib/STM32F10x_StdPeriph_Driver/src/stm32f10x_flash.c ****   {
1270:../lib/STM32F10x_StdPeriph_Driver/src/stm32f10x_flash.c ****     bitstatus = RESET;
 1531              		.loc 1 1270 0
 1532 07b0 4FF00003 		mov	r3, #0
 1533 07b4 FB71     		strb	r3, [r7, #7]
 1534              	.L98:
1271:../lib/STM32F10x_StdPeriph_Driver/src/stm32f10x_flash.c ****   }
1272:../lib/STM32F10x_StdPeriph_Driver/src/stm32f10x_flash.c ****   /* Return the new state of FLASH Prefetch Buffer Status (SET or RESET) */
1273:../lib/STM32F10x_StdPeriph_Driver/src/stm32f10x_flash.c ****   return bitstatus; 
 1535              		.loc 1 1273 0
 1536 07b6 FB79     		ldrb	r3, [r7, #7]	@ zero_extendqisi2
1274:../lib/STM32F10x_StdPeriph_Driver/src/stm32f10x_flash.c **** }
 1537              		.loc 1 1274 0
 1538 07b8 1846     		mov	r0, r3
 1539 07ba 07F10C07 		add	r7, r7, #12
 1540 07be BD46     		mov	sp, r7
 1541 07c0 80BC     		pop	{r7}
 1542 07c2 7047     		bx	lr
 1543              	.L101:
 1544              		.align	2
 1545              	.L100:
 1546 07c4 00200240 		.word	1073881088
 1547              		.cfi_endproc
 1548              	.LFE49:
 1550              		.align	2
 1551              		.global	FLASH_ITConfig
 1552              		.thumb
 1553              		.thumb_func
 1555              	FLASH_ITConfig:
 1556              	.LFB50:
1275:../lib/STM32F10x_StdPeriph_Driver/src/stm32f10x_flash.c **** 
1276:../lib/STM32F10x_StdPeriph_Driver/src/stm32f10x_flash.c **** /**
1277:../lib/STM32F10x_StdPeriph_Driver/src/stm32f10x_flash.c ****   * @brief  Enables or disables the specified FLASH interrupts.
1278:../lib/STM32F10x_StdPeriph_Driver/src/stm32f10x_flash.c ****   * @note   This function can be used for all STM32F10x devices.
1279:../lib/STM32F10x_StdPeriph_Driver/src/stm32f10x_flash.c ****   *         - For STM32F10X_XL devices, enables or disables the specified FLASH interrupts
1280:../lib/STM32F10x_StdPeriph_Driver/src/stm32f10x_flash.c ****               for Bank1 and Bank2.
1281:../lib/STM32F10x_StdPeriph_Driver/src/stm32f10x_flash.c ****   *         - For other devices it enables or disables the specified FLASH interrupts for Bank1.
1282:../lib/STM32F10x_StdPeriph_Driver/src/stm32f10x_flash.c ****   * @param  FLASH_IT: specifies the FLASH interrupt sources to be enabled or disabled.
1283:../lib/STM32F10x_StdPeriph_Driver/src/stm32f10x_flash.c ****   *   This parameter can be any combination of the following values:
1284:../lib/STM32F10x_StdPeriph_Driver/src/stm32f10x_flash.c ****   *     @arg FLASH_IT_ERROR: FLASH Error Interrupt
1285:../lib/STM32F10x_StdPeriph_Driver/src/stm32f10x_flash.c ****   *     @arg FLASH_IT_EOP: FLASH end of operation Interrupt
1286:../lib/STM32F10x_StdPeriph_Driver/src/stm32f10x_flash.c ****   * @param  NewState: new state of the specified Flash interrupts.
1287:../lib/STM32F10x_StdPeriph_Driver/src/stm32f10x_flash.c ****   *   This parameter can be: ENABLE or DISABLE.      
1288:../lib/STM32F10x_StdPeriph_Driver/src/stm32f10x_flash.c ****   * @retval None 
1289:../lib/STM32F10x_StdPeriph_Driver/src/stm32f10x_flash.c ****   */
1290:../lib/STM32F10x_StdPeriph_Driver/src/stm32f10x_flash.c **** void FLASH_ITConfig(uint32_t FLASH_IT, FunctionalState NewState)
1291:../lib/STM32F10x_StdPeriph_Driver/src/stm32f10x_flash.c **** {
 1557              		.loc 1 1291 0
 1558              		.cfi_startproc
 1559              		@ args = 0, pretend = 0, frame = 8
 1560              		@ frame_needed = 1, uses_anonymous_args = 0
 1561              		@ link register save eliminated.
 1562 07c8 80B4     		push	{r7}
 1563              	.LCFI57:
 1564              		.cfi_def_cfa_offset 4
 1565              		.cfi_offset 7, -4
 1566 07ca 83B0     		sub	sp, sp, #12
 1567              	.LCFI58:
 1568              		.cfi_def_cfa_offset 16
 1569 07cc 00AF     		add	r7, sp, #0
 1570              	.LCFI59:
 1571              		.cfi_def_cfa_register 7
 1572 07ce 7860     		str	r0, [r7, #4]
 1573 07d0 0B46     		mov	r3, r1
 1574 07d2 FB70     		strb	r3, [r7, #3]
1292:../lib/STM32F10x_StdPeriph_Driver/src/stm32f10x_flash.c **** #ifdef STM32F10X_XL
1293:../lib/STM32F10x_StdPeriph_Driver/src/stm32f10x_flash.c ****   /* Check the parameters */
1294:../lib/STM32F10x_StdPeriph_Driver/src/stm32f10x_flash.c ****   assert_param(IS_FLASH_IT(FLASH_IT)); 
1295:../lib/STM32F10x_StdPeriph_Driver/src/stm32f10x_flash.c ****   assert_param(IS_FUNCTIONAL_STATE(NewState));
1296:../lib/STM32F10x_StdPeriph_Driver/src/stm32f10x_flash.c **** 
1297:../lib/STM32F10x_StdPeriph_Driver/src/stm32f10x_flash.c ****   if((FLASH_IT & 0x80000000) != 0x0)
1298:../lib/STM32F10x_StdPeriph_Driver/src/stm32f10x_flash.c ****   {
1299:../lib/STM32F10x_StdPeriph_Driver/src/stm32f10x_flash.c ****     if(NewState != DISABLE)
1300:../lib/STM32F10x_StdPeriph_Driver/src/stm32f10x_flash.c ****     {
1301:../lib/STM32F10x_StdPeriph_Driver/src/stm32f10x_flash.c ****       /* Enable the interrupt sources */
1302:../lib/STM32F10x_StdPeriph_Driver/src/stm32f10x_flash.c ****       FLASH->CR2 |= (FLASH_IT & 0x7FFFFFFF);
1303:../lib/STM32F10x_StdPeriph_Driver/src/stm32f10x_flash.c ****     }
1304:../lib/STM32F10x_StdPeriph_Driver/src/stm32f10x_flash.c ****     else
1305:../lib/STM32F10x_StdPeriph_Driver/src/stm32f10x_flash.c ****     {
1306:../lib/STM32F10x_StdPeriph_Driver/src/stm32f10x_flash.c ****       /* Disable the interrupt sources */
1307:../lib/STM32F10x_StdPeriph_Driver/src/stm32f10x_flash.c ****       FLASH->CR2 &= ~(uint32_t)(FLASH_IT & 0x7FFFFFFF);
1308:../lib/STM32F10x_StdPeriph_Driver/src/stm32f10x_flash.c ****     }
1309:../lib/STM32F10x_StdPeriph_Driver/src/stm32f10x_flash.c ****   }
1310:../lib/STM32F10x_StdPeriph_Driver/src/stm32f10x_flash.c ****   else
1311:../lib/STM32F10x_StdPeriph_Driver/src/stm32f10x_flash.c ****   {
1312:../lib/STM32F10x_StdPeriph_Driver/src/stm32f10x_flash.c ****     if(NewState != DISABLE)
1313:../lib/STM32F10x_StdPeriph_Driver/src/stm32f10x_flash.c ****     {
1314:../lib/STM32F10x_StdPeriph_Driver/src/stm32f10x_flash.c ****       /* Enable the interrupt sources */
1315:../lib/STM32F10x_StdPeriph_Driver/src/stm32f10x_flash.c ****       FLASH->CR |= FLASH_IT;
1316:../lib/STM32F10x_StdPeriph_Driver/src/stm32f10x_flash.c ****     }
1317:../lib/STM32F10x_StdPeriph_Driver/src/stm32f10x_flash.c ****     else
1318:../lib/STM32F10x_StdPeriph_Driver/src/stm32f10x_flash.c ****     {
1319:../lib/STM32F10x_StdPeriph_Driver/src/stm32f10x_flash.c ****       /* Disable the interrupt sources */
1320:../lib/STM32F10x_StdPeriph_Driver/src/stm32f10x_flash.c ****       FLASH->CR &= ~(uint32_t)FLASH_IT;
1321:../lib/STM32F10x_StdPeriph_Driver/src/stm32f10x_flash.c ****     }
1322:../lib/STM32F10x_StdPeriph_Driver/src/stm32f10x_flash.c ****   }
1323:../lib/STM32F10x_StdPeriph_Driver/src/stm32f10x_flash.c **** #else
1324:../lib/STM32F10x_StdPeriph_Driver/src/stm32f10x_flash.c ****   /* Check the parameters */
1325:../lib/STM32F10x_StdPeriph_Driver/src/stm32f10x_flash.c ****   assert_param(IS_FLASH_IT(FLASH_IT)); 
1326:../lib/STM32F10x_StdPeriph_Driver/src/stm32f10x_flash.c ****   assert_param(IS_FUNCTIONAL_STATE(NewState));
1327:../lib/STM32F10x_StdPeriph_Driver/src/stm32f10x_flash.c **** 
1328:../lib/STM32F10x_StdPeriph_Driver/src/stm32f10x_flash.c ****   if(NewState != DISABLE)
 1575              		.loc 1 1328 0
 1576 07d4 FB78     		ldrb	r3, [r7, #3]	@ zero_extendqisi2
 1577 07d6 002B     		cmp	r3, #0
 1578 07d8 06D0     		beq	.L103
1329:../lib/STM32F10x_StdPeriph_Driver/src/stm32f10x_flash.c ****   {
1330:../lib/STM32F10x_StdPeriph_Driver/src/stm32f10x_flash.c ****     /* Enable the interrupt sources */
1331:../lib/STM32F10x_StdPeriph_Driver/src/stm32f10x_flash.c ****     FLASH->CR |= FLASH_IT;
 1579              		.loc 1 1331 0
 1580 07da 0A4B     		ldr	r3, .L105
 1581 07dc 094A     		ldr	r2, .L105
 1582 07de 1169     		ldr	r1, [r2, #16]
 1583 07e0 7A68     		ldr	r2, [r7, #4]
 1584 07e2 0A43     		orrs	r2, r2, r1
 1585 07e4 1A61     		str	r2, [r3, #16]
 1586 07e6 07E0     		b	.L102
 1587              	.L103:
1332:../lib/STM32F10x_StdPeriph_Driver/src/stm32f10x_flash.c ****   }
1333:../lib/STM32F10x_StdPeriph_Driver/src/stm32f10x_flash.c ****   else
1334:../lib/STM32F10x_StdPeriph_Driver/src/stm32f10x_flash.c ****   {
1335:../lib/STM32F10x_StdPeriph_Driver/src/stm32f10x_flash.c ****     /* Disable the interrupt sources */
1336:../lib/STM32F10x_StdPeriph_Driver/src/stm32f10x_flash.c ****     FLASH->CR &= ~(uint32_t)FLASH_IT;
 1588              		.loc 1 1336 0
 1589 07e8 064B     		ldr	r3, .L105
 1590 07ea 064A     		ldr	r2, .L105
 1591 07ec 1169     		ldr	r1, [r2, #16]
 1592 07ee 7A68     		ldr	r2, [r7, #4]
 1593 07f0 6FEA0202 		mvn	r2, r2
 1594 07f4 0A40     		ands	r2, r2, r1
 1595 07f6 1A61     		str	r2, [r3, #16]
 1596              	.L102:
1337:../lib/STM32F10x_StdPeriph_Driver/src/stm32f10x_flash.c ****   }
1338:../lib/STM32F10x_StdPeriph_Driver/src/stm32f10x_flash.c **** #endif /* STM32F10X_XL */
1339:../lib/STM32F10x_StdPeriph_Driver/src/stm32f10x_flash.c **** }
 1597              		.loc 1 1339 0
 1598 07f8 07F10C07 		add	r7, r7, #12
 1599 07fc BD46     		mov	sp, r7
 1600 07fe 80BC     		pop	{r7}
 1601 0800 7047     		bx	lr
 1602              	.L106:
 1603 0802 00BF     		.align	2
 1604              	.L105:
 1605 0804 00200240 		.word	1073881088
 1606              		.cfi_endproc
 1607              	.LFE50:
 1609              		.align	2
 1610              		.global	FLASH_GetFlagStatus
 1611              		.thumb
 1612              		.thumb_func
 1614              	FLASH_GetFlagStatus:
 1615              	.LFB51:
1340:../lib/STM32F10x_StdPeriph_Driver/src/stm32f10x_flash.c **** 
1341:../lib/STM32F10x_StdPeriph_Driver/src/stm32f10x_flash.c **** /**
1342:../lib/STM32F10x_StdPeriph_Driver/src/stm32f10x_flash.c ****   * @brief  Checks whether the specified FLASH flag is set or not.
1343:../lib/STM32F10x_StdPeriph_Driver/src/stm32f10x_flash.c ****   * @note   This function can be used for all STM32F10x devices.
1344:../lib/STM32F10x_StdPeriph_Driver/src/stm32f10x_flash.c ****   *         - For STM32F10X_XL devices, this function checks whether the specified 
1345:../lib/STM32F10x_StdPeriph_Driver/src/stm32f10x_flash.c ****   *           Bank1 or Bank2 flag is set or not.
1346:../lib/STM32F10x_StdPeriph_Driver/src/stm32f10x_flash.c ****   *         - For other devices, it checks whether the specified Bank1 flag is 
1347:../lib/STM32F10x_StdPeriph_Driver/src/stm32f10x_flash.c ****   *           set or not.
1348:../lib/STM32F10x_StdPeriph_Driver/src/stm32f10x_flash.c ****   * @param  FLASH_FLAG: specifies the FLASH flag to check.
1349:../lib/STM32F10x_StdPeriph_Driver/src/stm32f10x_flash.c ****   *   This parameter can be one of the following values:
1350:../lib/STM32F10x_StdPeriph_Driver/src/stm32f10x_flash.c ****   *     @arg FLASH_FLAG_BSY: FLASH Busy flag           
1351:../lib/STM32F10x_StdPeriph_Driver/src/stm32f10x_flash.c ****   *     @arg FLASH_FLAG_PGERR: FLASH Program error flag       
1352:../lib/STM32F10x_StdPeriph_Driver/src/stm32f10x_flash.c ****   *     @arg FLASH_FLAG_WRPRTERR: FLASH Write protected error flag      
1353:../lib/STM32F10x_StdPeriph_Driver/src/stm32f10x_flash.c ****   *     @arg FLASH_FLAG_EOP: FLASH End of Operation flag           
1354:../lib/STM32F10x_StdPeriph_Driver/src/stm32f10x_flash.c ****   *     @arg FLASH_FLAG_OPTERR:  FLASH Option Byte error flag     
1355:../lib/STM32F10x_StdPeriph_Driver/src/stm32f10x_flash.c ****   * @retval The new state of FLASH_FLAG (SET or RESET).
1356:../lib/STM32F10x_StdPeriph_Driver/src/stm32f10x_flash.c ****   */
1357:../lib/STM32F10x_StdPeriph_Driver/src/stm32f10x_flash.c **** FlagStatus FLASH_GetFlagStatus(uint32_t FLASH_FLAG)
1358:../lib/STM32F10x_StdPeriph_Driver/src/stm32f10x_flash.c **** {
 1616              		.loc 1 1358 0
 1617              		.cfi_startproc
 1618              		@ args = 0, pretend = 0, frame = 16
 1619              		@ frame_needed = 1, uses_anonymous_args = 0
 1620              		@ link register save eliminated.
 1621 0808 80B4     		push	{r7}
 1622              	.LCFI60:
 1623              		.cfi_def_cfa_offset 4
 1624              		.cfi_offset 7, -4
 1625 080a 85B0     		sub	sp, sp, #20
 1626              	.LCFI61:
 1627              		.cfi_def_cfa_offset 24
 1628 080c 00AF     		add	r7, sp, #0
 1629              	.LCFI62:
 1630              		.cfi_def_cfa_register 7
 1631 080e 7860     		str	r0, [r7, #4]
1359:../lib/STM32F10x_StdPeriph_Driver/src/stm32f10x_flash.c ****   FlagStatus bitstatus = RESET;
 1632              		.loc 1 1359 0
 1633 0810 4FF00003 		mov	r3, #0
 1634 0814 FB73     		strb	r3, [r7, #15]
1360:../lib/STM32F10x_StdPeriph_Driver/src/stm32f10x_flash.c **** 
1361:../lib/STM32F10x_StdPeriph_Driver/src/stm32f10x_flash.c **** #ifdef STM32F10X_XL
1362:../lib/STM32F10x_StdPeriph_Driver/src/stm32f10x_flash.c ****   /* Check the parameters */
1363:../lib/STM32F10x_StdPeriph_Driver/src/stm32f10x_flash.c ****   assert_param(IS_FLASH_GET_FLAG(FLASH_FLAG)) ;
1364:../lib/STM32F10x_StdPeriph_Driver/src/stm32f10x_flash.c ****   if(FLASH_FLAG == FLASH_FLAG_OPTERR) 
1365:../lib/STM32F10x_StdPeriph_Driver/src/stm32f10x_flash.c ****   {
1366:../lib/STM32F10x_StdPeriph_Driver/src/stm32f10x_flash.c ****     if((FLASH->OBR & FLASH_FLAG_OPTERR) != (uint32_t)RESET)
1367:../lib/STM32F10x_StdPeriph_Driver/src/stm32f10x_flash.c ****     {
1368:../lib/STM32F10x_StdPeriph_Driver/src/stm32f10x_flash.c ****       bitstatus = SET;
1369:../lib/STM32F10x_StdPeriph_Driver/src/stm32f10x_flash.c ****     }
1370:../lib/STM32F10x_StdPeriph_Driver/src/stm32f10x_flash.c ****     else
1371:../lib/STM32F10x_StdPeriph_Driver/src/stm32f10x_flash.c ****     {
1372:../lib/STM32F10x_StdPeriph_Driver/src/stm32f10x_flash.c ****       bitstatus = RESET;
1373:../lib/STM32F10x_StdPeriph_Driver/src/stm32f10x_flash.c ****     }
1374:../lib/STM32F10x_StdPeriph_Driver/src/stm32f10x_flash.c ****   }
1375:../lib/STM32F10x_StdPeriph_Driver/src/stm32f10x_flash.c ****   else
1376:../lib/STM32F10x_StdPeriph_Driver/src/stm32f10x_flash.c ****   {
1377:../lib/STM32F10x_StdPeriph_Driver/src/stm32f10x_flash.c ****     if((FLASH_FLAG & 0x80000000) != 0x0)
1378:../lib/STM32F10x_StdPeriph_Driver/src/stm32f10x_flash.c ****     {
1379:../lib/STM32F10x_StdPeriph_Driver/src/stm32f10x_flash.c ****       if((FLASH->SR2 & FLASH_FLAG) != (uint32_t)RESET)
1380:../lib/STM32F10x_StdPeriph_Driver/src/stm32f10x_flash.c ****       {
1381:../lib/STM32F10x_StdPeriph_Driver/src/stm32f10x_flash.c ****         bitstatus = SET;
1382:../lib/STM32F10x_StdPeriph_Driver/src/stm32f10x_flash.c ****       }
1383:../lib/STM32F10x_StdPeriph_Driver/src/stm32f10x_flash.c ****       else
1384:../lib/STM32F10x_StdPeriph_Driver/src/stm32f10x_flash.c ****       {
1385:../lib/STM32F10x_StdPeriph_Driver/src/stm32f10x_flash.c ****         bitstatus = RESET;
1386:../lib/STM32F10x_StdPeriph_Driver/src/stm32f10x_flash.c ****       }
1387:../lib/STM32F10x_StdPeriph_Driver/src/stm32f10x_flash.c ****     }
1388:../lib/STM32F10x_StdPeriph_Driver/src/stm32f10x_flash.c ****     else
1389:../lib/STM32F10x_StdPeriph_Driver/src/stm32f10x_flash.c ****     {
1390:../lib/STM32F10x_StdPeriph_Driver/src/stm32f10x_flash.c ****       if((FLASH->SR & FLASH_FLAG) != (uint32_t)RESET)
1391:../lib/STM32F10x_StdPeriph_Driver/src/stm32f10x_flash.c ****       {
1392:../lib/STM32F10x_StdPeriph_Driver/src/stm32f10x_flash.c ****         bitstatus = SET;
1393:../lib/STM32F10x_StdPeriph_Driver/src/stm32f10x_flash.c ****       }
1394:../lib/STM32F10x_StdPeriph_Driver/src/stm32f10x_flash.c ****       else
1395:../lib/STM32F10x_StdPeriph_Driver/src/stm32f10x_flash.c ****       {
1396:../lib/STM32F10x_StdPeriph_Driver/src/stm32f10x_flash.c ****         bitstatus = RESET;
1397:../lib/STM32F10x_StdPeriph_Driver/src/stm32f10x_flash.c ****       }
1398:../lib/STM32F10x_StdPeriph_Driver/src/stm32f10x_flash.c ****     }
1399:../lib/STM32F10x_StdPeriph_Driver/src/stm32f10x_flash.c ****   }
1400:../lib/STM32F10x_StdPeriph_Driver/src/stm32f10x_flash.c **** #else
1401:../lib/STM32F10x_StdPeriph_Driver/src/stm32f10x_flash.c ****   /* Check the parameters */
1402:../lib/STM32F10x_StdPeriph_Driver/src/stm32f10x_flash.c ****   assert_param(IS_FLASH_GET_FLAG(FLASH_FLAG)) ;
1403:../lib/STM32F10x_StdPeriph_Driver/src/stm32f10x_flash.c ****   if(FLASH_FLAG == FLASH_FLAG_OPTERR) 
 1635              		.loc 1 1403 0
 1636 0816 7B68     		ldr	r3, [r7, #4]
 1637 0818 012B     		cmp	r3, #1
 1638 081a 0DD1     		bne	.L108
1404:../lib/STM32F10x_StdPeriph_Driver/src/stm32f10x_flash.c ****   {
1405:../lib/STM32F10x_StdPeriph_Driver/src/stm32f10x_flash.c ****     if((FLASH->OBR & FLASH_FLAG_OPTERR) != (uint32_t)RESET)
 1639              		.loc 1 1405 0
 1640 081c 104B     		ldr	r3, .L113
 1641 081e DB69     		ldr	r3, [r3, #28]
 1642 0820 03F00103 		and	r3, r3, #1
 1643 0824 002B     		cmp	r3, #0
 1644 0826 03D0     		beq	.L109
1406:../lib/STM32F10x_StdPeriph_Driver/src/stm32f10x_flash.c ****     {
1407:../lib/STM32F10x_StdPeriph_Driver/src/stm32f10x_flash.c ****       bitstatus = SET;
 1645              		.loc 1 1407 0
 1646 0828 4FF00103 		mov	r3, #1
 1647 082c FB73     		strb	r3, [r7, #15]
 1648 082e 10E0     		b	.L110
 1649              	.L109:
1408:../lib/STM32F10x_StdPeriph_Driver/src/stm32f10x_flash.c ****     }
1409:../lib/STM32F10x_StdPeriph_Driver/src/stm32f10x_flash.c ****     else
1410:../lib/STM32F10x_StdPeriph_Driver/src/stm32f10x_flash.c ****     {
1411:../lib/STM32F10x_StdPeriph_Driver/src/stm32f10x_flash.c ****       bitstatus = RESET;
 1650              		.loc 1 1411 0
 1651 0830 4FF00003 		mov	r3, #0
 1652 0834 FB73     		strb	r3, [r7, #15]
 1653 0836 0CE0     		b	.L110
 1654              	.L108:
1412:../lib/STM32F10x_StdPeriph_Driver/src/stm32f10x_flash.c ****     }
1413:../lib/STM32F10x_StdPeriph_Driver/src/stm32f10x_flash.c ****   }
1414:../lib/STM32F10x_StdPeriph_Driver/src/stm32f10x_flash.c ****   else
1415:../lib/STM32F10x_StdPeriph_Driver/src/stm32f10x_flash.c ****   {
1416:../lib/STM32F10x_StdPeriph_Driver/src/stm32f10x_flash.c ****    if((FLASH->SR & FLASH_FLAG) != (uint32_t)RESET)
 1655              		.loc 1 1416 0
 1656 0838 094B     		ldr	r3, .L113
 1657 083a DA68     		ldr	r2, [r3, #12]
 1658 083c 7B68     		ldr	r3, [r7, #4]
 1659 083e 1340     		ands	r3, r3, r2
 1660 0840 002B     		cmp	r3, #0
 1661 0842 03D0     		beq	.L111
1417:../lib/STM32F10x_StdPeriph_Driver/src/stm32f10x_flash.c ****     {
1418:../lib/STM32F10x_StdPeriph_Driver/src/stm32f10x_flash.c ****       bitstatus = SET;
 1662              		.loc 1 1418 0
 1663 0844 4FF00103 		mov	r3, #1
 1664 0848 FB73     		strb	r3, [r7, #15]
 1665 084a 02E0     		b	.L110
 1666              	.L111:
1419:../lib/STM32F10x_StdPeriph_Driver/src/stm32f10x_flash.c ****     }
1420:../lib/STM32F10x_StdPeriph_Driver/src/stm32f10x_flash.c ****     else
1421:../lib/STM32F10x_StdPeriph_Driver/src/stm32f10x_flash.c ****     {
1422:../lib/STM32F10x_StdPeriph_Driver/src/stm32f10x_flash.c ****       bitstatus = RESET;
 1667              		.loc 1 1422 0
 1668 084c 4FF00003 		mov	r3, #0
 1669 0850 FB73     		strb	r3, [r7, #15]
 1670              	.L110:
1423:../lib/STM32F10x_StdPeriph_Driver/src/stm32f10x_flash.c ****     }
1424:../lib/STM32F10x_StdPeriph_Driver/src/stm32f10x_flash.c ****   }
1425:../lib/STM32F10x_StdPeriph_Driver/src/stm32f10x_flash.c **** #endif /* STM32F10X_XL */
1426:../lib/STM32F10x_StdPeriph_Driver/src/stm32f10x_flash.c **** 
1427:../lib/STM32F10x_StdPeriph_Driver/src/stm32f10x_flash.c ****   /* Return the new state of FLASH_FLAG (SET or RESET) */
1428:../lib/STM32F10x_StdPeriph_Driver/src/stm32f10x_flash.c ****   return bitstatus;
 1671              		.loc 1 1428 0
 1672 0852 FB7B     		ldrb	r3, [r7, #15]	@ zero_extendqisi2
1429:../lib/STM32F10x_StdPeriph_Driver/src/stm32f10x_flash.c **** }
 1673              		.loc 1 1429 0
 1674 0854 1846     		mov	r0, r3
 1675 0856 07F11407 		add	r7, r7, #20
 1676 085a BD46     		mov	sp, r7
 1677 085c 80BC     		pop	{r7}
 1678 085e 7047     		bx	lr
 1679              	.L114:
 1680              		.align	2
 1681              	.L113:
 1682 0860 00200240 		.word	1073881088
 1683              		.cfi_endproc
 1684              	.LFE51:
 1686              		.align	2
 1687              		.global	FLASH_ClearFlag
 1688              		.thumb
 1689              		.thumb_func
 1691              	FLASH_ClearFlag:
 1692              	.LFB52:
1430:../lib/STM32F10x_StdPeriph_Driver/src/stm32f10x_flash.c **** 
1431:../lib/STM32F10x_StdPeriph_Driver/src/stm32f10x_flash.c **** /**
1432:../lib/STM32F10x_StdPeriph_Driver/src/stm32f10x_flash.c ****   * @brief  Clears the FLASH's pending flags.
1433:../lib/STM32F10x_StdPeriph_Driver/src/stm32f10x_flash.c ****   * @note   This function can be used for all STM32F10x devices.
1434:../lib/STM32F10x_StdPeriph_Driver/src/stm32f10x_flash.c ****   *         - For STM32F10X_XL devices, this function clears Bank1 or Bank2s pending flags
1435:../lib/STM32F10x_StdPeriph_Driver/src/stm32f10x_flash.c ****   *         - For other devices, it clears Bank1s pending flags.
1436:../lib/STM32F10x_StdPeriph_Driver/src/stm32f10x_flash.c ****   * @param  FLASH_FLAG: specifies the FLASH flags to clear.
1437:../lib/STM32F10x_StdPeriph_Driver/src/stm32f10x_flash.c ****   *   This parameter can be any combination of the following values:         
1438:../lib/STM32F10x_StdPeriph_Driver/src/stm32f10x_flash.c ****   *     @arg FLASH_FLAG_PGERR: FLASH Program error flag       
1439:../lib/STM32F10x_StdPeriph_Driver/src/stm32f10x_flash.c ****   *     @arg FLASH_FLAG_WRPRTERR: FLASH Write protected error flag      
1440:../lib/STM32F10x_StdPeriph_Driver/src/stm32f10x_flash.c ****   *     @arg FLASH_FLAG_EOP: FLASH End of Operation flag           
1441:../lib/STM32F10x_StdPeriph_Driver/src/stm32f10x_flash.c ****   * @retval None
1442:../lib/STM32F10x_StdPeriph_Driver/src/stm32f10x_flash.c ****   */
1443:../lib/STM32F10x_StdPeriph_Driver/src/stm32f10x_flash.c **** void FLASH_ClearFlag(uint32_t FLASH_FLAG)
1444:../lib/STM32F10x_StdPeriph_Driver/src/stm32f10x_flash.c **** {
 1693              		.loc 1 1444 0
 1694              		.cfi_startproc
 1695              		@ args = 0, pretend = 0, frame = 8
 1696              		@ frame_needed = 1, uses_anonymous_args = 0
 1697              		@ link register save eliminated.
 1698 0864 80B4     		push	{r7}
 1699              	.LCFI63:
 1700              		.cfi_def_cfa_offset 4
 1701              		.cfi_offset 7, -4
 1702 0866 83B0     		sub	sp, sp, #12
 1703              	.LCFI64:
 1704              		.cfi_def_cfa_offset 16
 1705 0868 00AF     		add	r7, sp, #0
 1706              	.LCFI65:
 1707              		.cfi_def_cfa_register 7
 1708 086a 7860     		str	r0, [r7, #4]
1445:../lib/STM32F10x_StdPeriph_Driver/src/stm32f10x_flash.c **** #ifdef STM32F10X_XL
1446:../lib/STM32F10x_StdPeriph_Driver/src/stm32f10x_flash.c ****   /* Check the parameters */
1447:../lib/STM32F10x_StdPeriph_Driver/src/stm32f10x_flash.c ****   assert_param(IS_FLASH_CLEAR_FLAG(FLASH_FLAG)) ;
1448:../lib/STM32F10x_StdPeriph_Driver/src/stm32f10x_flash.c **** 
1449:../lib/STM32F10x_StdPeriph_Driver/src/stm32f10x_flash.c ****   if((FLASH_FLAG & 0x80000000) != 0x0)
1450:../lib/STM32F10x_StdPeriph_Driver/src/stm32f10x_flash.c ****   {
1451:../lib/STM32F10x_StdPeriph_Driver/src/stm32f10x_flash.c ****     /* Clear the flags */
1452:../lib/STM32F10x_StdPeriph_Driver/src/stm32f10x_flash.c ****     FLASH->SR2 = FLASH_FLAG;
1453:../lib/STM32F10x_StdPeriph_Driver/src/stm32f10x_flash.c ****   }
1454:../lib/STM32F10x_StdPeriph_Driver/src/stm32f10x_flash.c ****   else
1455:../lib/STM32F10x_StdPeriph_Driver/src/stm32f10x_flash.c ****   {
1456:../lib/STM32F10x_StdPeriph_Driver/src/stm32f10x_flash.c ****     /* Clear the flags */
1457:../lib/STM32F10x_StdPeriph_Driver/src/stm32f10x_flash.c ****     FLASH->SR = FLASH_FLAG;
1458:../lib/STM32F10x_StdPeriph_Driver/src/stm32f10x_flash.c ****   }  
1459:../lib/STM32F10x_StdPeriph_Driver/src/stm32f10x_flash.c **** 
1460:../lib/STM32F10x_StdPeriph_Driver/src/stm32f10x_flash.c **** #else
1461:../lib/STM32F10x_StdPeriph_Driver/src/stm32f10x_flash.c ****   /* Check the parameters */
1462:../lib/STM32F10x_StdPeriph_Driver/src/stm32f10x_flash.c ****   assert_param(IS_FLASH_CLEAR_FLAG(FLASH_FLAG)) ;
1463:../lib/STM32F10x_StdPeriph_Driver/src/stm32f10x_flash.c ****   
1464:../lib/STM32F10x_StdPeriph_Driver/src/stm32f10x_flash.c ****   /* Clear the flags */
1465:../lib/STM32F10x_StdPeriph_Driver/src/stm32f10x_flash.c ****   FLASH->SR = FLASH_FLAG;
 1709              		.loc 1 1465 0
 1710 086c 034B     		ldr	r3, .L116
 1711 086e 7A68     		ldr	r2, [r7, #4]
 1712 0870 DA60     		str	r2, [r3, #12]
1466:../lib/STM32F10x_StdPeriph_Driver/src/stm32f10x_flash.c **** #endif /* STM32F10X_XL */
1467:../lib/STM32F10x_StdPeriph_Driver/src/stm32f10x_flash.c **** }
 1713              		.loc 1 1467 0
 1714 0872 07F10C07 		add	r7, r7, #12
 1715 0876 BD46     		mov	sp, r7
 1716 0878 80BC     		pop	{r7}
 1717 087a 7047     		bx	lr
 1718              	.L117:
 1719              		.align	2
 1720              	.L116:
 1721 087c 00200240 		.word	1073881088
 1722              		.cfi_endproc
 1723              	.LFE52:
 1725              		.align	2
 1726              		.global	FLASH_GetStatus
 1727              		.thumb
 1728              		.thumb_func
 1730              	FLASH_GetStatus:
 1731              	.LFB53:
1468:../lib/STM32F10x_StdPeriph_Driver/src/stm32f10x_flash.c **** 
1469:../lib/STM32F10x_StdPeriph_Driver/src/stm32f10x_flash.c **** /**
1470:../lib/STM32F10x_StdPeriph_Driver/src/stm32f10x_flash.c ****   * @brief  Returns the FLASH Status.
1471:../lib/STM32F10x_StdPeriph_Driver/src/stm32f10x_flash.c ****   * @note   This function can be used for all STM32F10x devices, it is equivalent
1472:../lib/STM32F10x_StdPeriph_Driver/src/stm32f10x_flash.c ****   *         to FLASH_GetBank1Status function.
1473:../lib/STM32F10x_StdPeriph_Driver/src/stm32f10x_flash.c ****   * @param  None
1474:../lib/STM32F10x_StdPeriph_Driver/src/stm32f10x_flash.c ****   * @retval FLASH Status: The returned value can be: FLASH_BUSY, FLASH_ERROR_PG,
1475:../lib/STM32F10x_StdPeriph_Driver/src/stm32f10x_flash.c ****   *         FLASH_ERROR_WRP or FLASH_COMPLETE
1476:../lib/STM32F10x_StdPeriph_Driver/src/stm32f10x_flash.c ****   */
1477:../lib/STM32F10x_StdPeriph_Driver/src/stm32f10x_flash.c **** FLASH_Status FLASH_GetStatus(void)
1478:../lib/STM32F10x_StdPeriph_Driver/src/stm32f10x_flash.c **** {
 1732              		.loc 1 1478 0
 1733              		.cfi_startproc
 1734              		@ args = 0, pretend = 0, frame = 8
 1735              		@ frame_needed = 1, uses_anonymous_args = 0
 1736              		@ link register save eliminated.
 1737 0880 80B4     		push	{r7}
 1738              	.LCFI66:
 1739              		.cfi_def_cfa_offset 4
 1740              		.cfi_offset 7, -4
 1741 0882 83B0     		sub	sp, sp, #12
 1742              	.LCFI67:
 1743              		.cfi_def_cfa_offset 16
 1744 0884 00AF     		add	r7, sp, #0
 1745              	.LCFI68:
 1746              		.cfi_def_cfa_register 7
1479:../lib/STM32F10x_StdPeriph_Driver/src/stm32f10x_flash.c ****   FLASH_Status flashstatus = FLASH_COMPLETE;
 1747              		.loc 1 1479 0
 1748 0886 4FF00403 		mov	r3, #4
 1749 088a FB71     		strb	r3, [r7, #7]
1480:../lib/STM32F10x_StdPeriph_Driver/src/stm32f10x_flash.c ****   
1481:../lib/STM32F10x_StdPeriph_Driver/src/stm32f10x_flash.c ****   if((FLASH->SR & FLASH_FLAG_BSY) == FLASH_FLAG_BSY) 
 1750              		.loc 1 1481 0
 1751 088c 134B     		ldr	r3, .L124
 1752 088e DB68     		ldr	r3, [r3, #12]
 1753 0890 03F00103 		and	r3, r3, #1
 1754 0894 002B     		cmp	r3, #0
 1755 0896 03D0     		beq	.L119
1482:../lib/STM32F10x_StdPeriph_Driver/src/stm32f10x_flash.c ****   {
1483:../lib/STM32F10x_StdPeriph_Driver/src/stm32f10x_flash.c ****     flashstatus = FLASH_BUSY;
 1756              		.loc 1 1483 0
 1757 0898 4FF00103 		mov	r3, #1
 1758 089c FB71     		strb	r3, [r7, #7]
 1759 089e 16E0     		b	.L120
 1760              	.L119:
1484:../lib/STM32F10x_StdPeriph_Driver/src/stm32f10x_flash.c ****   }
1485:../lib/STM32F10x_StdPeriph_Driver/src/stm32f10x_flash.c ****   else 
1486:../lib/STM32F10x_StdPeriph_Driver/src/stm32f10x_flash.c ****   {  
1487:../lib/STM32F10x_StdPeriph_Driver/src/stm32f10x_flash.c ****     if((FLASH->SR & FLASH_FLAG_PGERR) != 0)
 1761              		.loc 1 1487 0
 1762 08a0 0E4B     		ldr	r3, .L124
 1763 08a2 DB68     		ldr	r3, [r3, #12]
 1764 08a4 03F00403 		and	r3, r3, #4
 1765 08a8 002B     		cmp	r3, #0
 1766 08aa 03D0     		beq	.L121
1488:../lib/STM32F10x_StdPeriph_Driver/src/stm32f10x_flash.c ****     { 
1489:../lib/STM32F10x_StdPeriph_Driver/src/stm32f10x_flash.c ****       flashstatus = FLASH_ERROR_PG;
 1767              		.loc 1 1489 0
 1768 08ac 4FF00203 		mov	r3, #2
 1769 08b0 FB71     		strb	r3, [r7, #7]
 1770 08b2 0CE0     		b	.L120
 1771              	.L121:
1490:../lib/STM32F10x_StdPeriph_Driver/src/stm32f10x_flash.c ****     }
1491:../lib/STM32F10x_StdPeriph_Driver/src/stm32f10x_flash.c ****     else 
1492:../lib/STM32F10x_StdPeriph_Driver/src/stm32f10x_flash.c ****     {
1493:../lib/STM32F10x_StdPeriph_Driver/src/stm32f10x_flash.c ****       if((FLASH->SR & FLASH_FLAG_WRPRTERR) != 0 )
 1772              		.loc 1 1493 0
 1773 08b4 094B     		ldr	r3, .L124
 1774 08b6 DB68     		ldr	r3, [r3, #12]
 1775 08b8 03F01003 		and	r3, r3, #16
 1776 08bc 002B     		cmp	r3, #0
 1777 08be 03D0     		beq	.L122
1494:../lib/STM32F10x_StdPeriph_Driver/src/stm32f10x_flash.c ****       {
1495:../lib/STM32F10x_StdPeriph_Driver/src/stm32f10x_flash.c ****         flashstatus = FLASH_ERROR_WRP;
 1778              		.loc 1 1495 0
 1779 08c0 4FF00303 		mov	r3, #3
 1780 08c4 FB71     		strb	r3, [r7, #7]
 1781 08c6 02E0     		b	.L120
 1782              	.L122:
1496:../lib/STM32F10x_StdPeriph_Driver/src/stm32f10x_flash.c ****       }
1497:../lib/STM32F10x_StdPeriph_Driver/src/stm32f10x_flash.c ****       else
1498:../lib/STM32F10x_StdPeriph_Driver/src/stm32f10x_flash.c ****       {
1499:../lib/STM32F10x_StdPeriph_Driver/src/stm32f10x_flash.c ****         flashstatus = FLASH_COMPLETE;
 1783              		.loc 1 1499 0
 1784 08c8 4FF00403 		mov	r3, #4
 1785 08cc FB71     		strb	r3, [r7, #7]
 1786              	.L120:
1500:../lib/STM32F10x_StdPeriph_Driver/src/stm32f10x_flash.c ****       }
1501:../lib/STM32F10x_StdPeriph_Driver/src/stm32f10x_flash.c ****     }
1502:../lib/STM32F10x_StdPeriph_Driver/src/stm32f10x_flash.c ****   }
1503:../lib/STM32F10x_StdPeriph_Driver/src/stm32f10x_flash.c ****   /* Return the Flash Status */
1504:../lib/STM32F10x_StdPeriph_Driver/src/stm32f10x_flash.c ****   return flashstatus;
 1787              		.loc 1 1504 0
 1788 08ce FB79     		ldrb	r3, [r7, #7]	@ zero_extendqisi2
1505:../lib/STM32F10x_StdPeriph_Driver/src/stm32f10x_flash.c **** }
 1789              		.loc 1 1505 0
 1790 08d0 1846     		mov	r0, r3
 1791 08d2 07F10C07 		add	r7, r7, #12
 1792 08d6 BD46     		mov	sp, r7
 1793 08d8 80BC     		pop	{r7}
 1794 08da 7047     		bx	lr
 1795              	.L125:
 1796              		.align	2
 1797              	.L124:
 1798 08dc 00200240 		.word	1073881088
 1799              		.cfi_endproc
 1800              	.LFE53:
 1802              		.align	2
 1803              		.global	FLASH_GetBank1Status
 1804              		.thumb
 1805              		.thumb_func
 1807              	FLASH_GetBank1Status:
 1808              	.LFB54:
1506:../lib/STM32F10x_StdPeriph_Driver/src/stm32f10x_flash.c **** 
1507:../lib/STM32F10x_StdPeriph_Driver/src/stm32f10x_flash.c **** /**
1508:../lib/STM32F10x_StdPeriph_Driver/src/stm32f10x_flash.c ****   * @brief  Returns the FLASH Bank1 Status.
1509:../lib/STM32F10x_StdPeriph_Driver/src/stm32f10x_flash.c ****   * @note   This function can be used for all STM32F10x devices, it is equivalent
1510:../lib/STM32F10x_StdPeriph_Driver/src/stm32f10x_flash.c ****   *         to FLASH_GetStatus function.
1511:../lib/STM32F10x_StdPeriph_Driver/src/stm32f10x_flash.c ****   * @param  None
1512:../lib/STM32F10x_StdPeriph_Driver/src/stm32f10x_flash.c ****   * @retval FLASH Status: The returned value can be: FLASH_BUSY, FLASH_ERROR_PG,
1513:../lib/STM32F10x_StdPeriph_Driver/src/stm32f10x_flash.c ****   *         FLASH_ERROR_WRP or FLASH_COMPLETE
1514:../lib/STM32F10x_StdPeriph_Driver/src/stm32f10x_flash.c ****   */
1515:../lib/STM32F10x_StdPeriph_Driver/src/stm32f10x_flash.c **** FLASH_Status FLASH_GetBank1Status(void)
1516:../lib/STM32F10x_StdPeriph_Driver/src/stm32f10x_flash.c **** {
 1809              		.loc 1 1516 0
 1810              		.cfi_startproc
 1811              		@ args = 0, pretend = 0, frame = 8
 1812              		@ frame_needed = 1, uses_anonymous_args = 0
 1813              		@ link register save eliminated.
 1814 08e0 80B4     		push	{r7}
 1815              	.LCFI69:
 1816              		.cfi_def_cfa_offset 4
 1817              		.cfi_offset 7, -4
 1818 08e2 83B0     		sub	sp, sp, #12
 1819              	.LCFI70:
 1820              		.cfi_def_cfa_offset 16
 1821 08e4 00AF     		add	r7, sp, #0
 1822              	.LCFI71:
 1823              		.cfi_def_cfa_register 7
1517:../lib/STM32F10x_StdPeriph_Driver/src/stm32f10x_flash.c ****   FLASH_Status flashstatus = FLASH_COMPLETE;
 1824              		.loc 1 1517 0
 1825 08e6 4FF00403 		mov	r3, #4
 1826 08ea FB71     		strb	r3, [r7, #7]
1518:../lib/STM32F10x_StdPeriph_Driver/src/stm32f10x_flash.c ****   
1519:../lib/STM32F10x_StdPeriph_Driver/src/stm32f10x_flash.c ****   if((FLASH->SR & FLASH_FLAG_BANK1_BSY) == FLASH_FLAG_BSY) 
 1827              		.loc 1 1519 0
 1828 08ec 134B     		ldr	r3, .L132
 1829 08ee DB68     		ldr	r3, [r3, #12]
 1830 08f0 03F00103 		and	r3, r3, #1
 1831 08f4 002B     		cmp	r3, #0
 1832 08f6 03D0     		beq	.L127
1520:../lib/STM32F10x_StdPeriph_Driver/src/stm32f10x_flash.c ****   {
1521:../lib/STM32F10x_StdPeriph_Driver/src/stm32f10x_flash.c ****     flashstatus = FLASH_BUSY;
 1833              		.loc 1 1521 0
 1834 08f8 4FF00103 		mov	r3, #1
 1835 08fc FB71     		strb	r3, [r7, #7]
 1836 08fe 16E0     		b	.L128
 1837              	.L127:
1522:../lib/STM32F10x_StdPeriph_Driver/src/stm32f10x_flash.c ****   }
1523:../lib/STM32F10x_StdPeriph_Driver/src/stm32f10x_flash.c ****   else 
1524:../lib/STM32F10x_StdPeriph_Driver/src/stm32f10x_flash.c ****   {  
1525:../lib/STM32F10x_StdPeriph_Driver/src/stm32f10x_flash.c ****     if((FLASH->SR & FLASH_FLAG_BANK1_PGERR) != 0)
 1838              		.loc 1 1525 0
 1839 0900 0E4B     		ldr	r3, .L132
 1840 0902 DB68     		ldr	r3, [r3, #12]
 1841 0904 03F00403 		and	r3, r3, #4
 1842 0908 002B     		cmp	r3, #0
 1843 090a 03D0     		beq	.L129
1526:../lib/STM32F10x_StdPeriph_Driver/src/stm32f10x_flash.c ****     { 
1527:../lib/STM32F10x_StdPeriph_Driver/src/stm32f10x_flash.c ****       flashstatus = FLASH_ERROR_PG;
 1844              		.loc 1 1527 0
 1845 090c 4FF00203 		mov	r3, #2
 1846 0910 FB71     		strb	r3, [r7, #7]
 1847 0912 0CE0     		b	.L128
 1848              	.L129:
1528:../lib/STM32F10x_StdPeriph_Driver/src/stm32f10x_flash.c ****     }
1529:../lib/STM32F10x_StdPeriph_Driver/src/stm32f10x_flash.c ****     else 
1530:../lib/STM32F10x_StdPeriph_Driver/src/stm32f10x_flash.c ****     {
1531:../lib/STM32F10x_StdPeriph_Driver/src/stm32f10x_flash.c ****       if((FLASH->SR & FLASH_FLAG_BANK1_WRPRTERR) != 0 )
 1849              		.loc 1 1531 0
 1850 0914 094B     		ldr	r3, .L132
 1851 0916 DB68     		ldr	r3, [r3, #12]
 1852 0918 03F01003 		and	r3, r3, #16
 1853 091c 002B     		cmp	r3, #0
 1854 091e 03D0     		beq	.L130
1532:../lib/STM32F10x_StdPeriph_Driver/src/stm32f10x_flash.c ****       {
1533:../lib/STM32F10x_StdPeriph_Driver/src/stm32f10x_flash.c ****         flashstatus = FLASH_ERROR_WRP;
 1855              		.loc 1 1533 0
 1856 0920 4FF00303 		mov	r3, #3
 1857 0924 FB71     		strb	r3, [r7, #7]
 1858 0926 02E0     		b	.L128
 1859              	.L130:
1534:../lib/STM32F10x_StdPeriph_Driver/src/stm32f10x_flash.c ****       }
1535:../lib/STM32F10x_StdPeriph_Driver/src/stm32f10x_flash.c ****       else
1536:../lib/STM32F10x_StdPeriph_Driver/src/stm32f10x_flash.c ****       {
1537:../lib/STM32F10x_StdPeriph_Driver/src/stm32f10x_flash.c ****         flashstatus = FLASH_COMPLETE;
 1860              		.loc 1 1537 0
 1861 0928 4FF00403 		mov	r3, #4
 1862 092c FB71     		strb	r3, [r7, #7]
 1863              	.L128:
1538:../lib/STM32F10x_StdPeriph_Driver/src/stm32f10x_flash.c ****       }
1539:../lib/STM32F10x_StdPeriph_Driver/src/stm32f10x_flash.c ****     }
1540:../lib/STM32F10x_StdPeriph_Driver/src/stm32f10x_flash.c ****   }
1541:../lib/STM32F10x_StdPeriph_Driver/src/stm32f10x_flash.c ****   /* Return the Flash Status */
1542:../lib/STM32F10x_StdPeriph_Driver/src/stm32f10x_flash.c ****   return flashstatus;
 1864              		.loc 1 1542 0
 1865 092e FB79     		ldrb	r3, [r7, #7]	@ zero_extendqisi2
1543:../lib/STM32F10x_StdPeriph_Driver/src/stm32f10x_flash.c **** }
 1866              		.loc 1 1543 0
 1867 0930 1846     		mov	r0, r3
 1868 0932 07F10C07 		add	r7, r7, #12
 1869 0936 BD46     		mov	sp, r7
 1870 0938 80BC     		pop	{r7}
 1871 093a 7047     		bx	lr
 1872              	.L133:
 1873              		.align	2
 1874              	.L132:
 1875 093c 00200240 		.word	1073881088
 1876              		.cfi_endproc
 1877              	.LFE54:
 1879              		.align	2
 1880              		.global	FLASH_WaitForLastOperation
 1881              		.thumb
 1882              		.thumb_func
 1884              	FLASH_WaitForLastOperation:
 1885              	.LFB55:
1544:../lib/STM32F10x_StdPeriph_Driver/src/stm32f10x_flash.c **** 
1545:../lib/STM32F10x_StdPeriph_Driver/src/stm32f10x_flash.c **** #ifdef STM32F10X_XL
1546:../lib/STM32F10x_StdPeriph_Driver/src/stm32f10x_flash.c **** /**
1547:../lib/STM32F10x_StdPeriph_Driver/src/stm32f10x_flash.c ****   * @brief  Returns the FLASH Bank2 Status.
1548:../lib/STM32F10x_StdPeriph_Driver/src/stm32f10x_flash.c ****   * @note   This function can be used for STM32F10x_XL density devices.
1549:../lib/STM32F10x_StdPeriph_Driver/src/stm32f10x_flash.c ****   * @param  None
1550:../lib/STM32F10x_StdPeriph_Driver/src/stm32f10x_flash.c ****   * @retval FLASH Status: The returned value can be: FLASH_BUSY, FLASH_ERROR_PG,
1551:../lib/STM32F10x_StdPeriph_Driver/src/stm32f10x_flash.c ****   *        FLASH_ERROR_WRP or FLASH_COMPLETE
1552:../lib/STM32F10x_StdPeriph_Driver/src/stm32f10x_flash.c ****   */
1553:../lib/STM32F10x_StdPeriph_Driver/src/stm32f10x_flash.c **** FLASH_Status FLASH_GetBank2Status(void)
1554:../lib/STM32F10x_StdPeriph_Driver/src/stm32f10x_flash.c **** {
1555:../lib/STM32F10x_StdPeriph_Driver/src/stm32f10x_flash.c ****   FLASH_Status flashstatus = FLASH_COMPLETE;
1556:../lib/STM32F10x_StdPeriph_Driver/src/stm32f10x_flash.c ****   
1557:../lib/STM32F10x_StdPeriph_Driver/src/stm32f10x_flash.c ****   if((FLASH->SR2 & (FLASH_FLAG_BANK2_BSY & 0x7FFFFFFF)) == (FLASH_FLAG_BANK2_BSY & 0x7FFFFFFF)) 
1558:../lib/STM32F10x_StdPeriph_Driver/src/stm32f10x_flash.c ****   {
1559:../lib/STM32F10x_StdPeriph_Driver/src/stm32f10x_flash.c ****     flashstatus = FLASH_BUSY;
1560:../lib/STM32F10x_StdPeriph_Driver/src/stm32f10x_flash.c ****   }
1561:../lib/STM32F10x_StdPeriph_Driver/src/stm32f10x_flash.c ****   else 
1562:../lib/STM32F10x_StdPeriph_Driver/src/stm32f10x_flash.c ****   {  
1563:../lib/STM32F10x_StdPeriph_Driver/src/stm32f10x_flash.c ****     if((FLASH->SR2 & (FLASH_FLAG_BANK2_PGERR & 0x7FFFFFFF)) != 0)
1564:../lib/STM32F10x_StdPeriph_Driver/src/stm32f10x_flash.c ****     { 
1565:../lib/STM32F10x_StdPeriph_Driver/src/stm32f10x_flash.c ****       flashstatus = FLASH_ERROR_PG;
1566:../lib/STM32F10x_StdPeriph_Driver/src/stm32f10x_flash.c ****     }
1567:../lib/STM32F10x_StdPeriph_Driver/src/stm32f10x_flash.c ****     else 
1568:../lib/STM32F10x_StdPeriph_Driver/src/stm32f10x_flash.c ****     {
1569:../lib/STM32F10x_StdPeriph_Driver/src/stm32f10x_flash.c ****       if((FLASH->SR2 & (FLASH_FLAG_BANK2_WRPRTERR & 0x7FFFFFFF)) != 0 )
1570:../lib/STM32F10x_StdPeriph_Driver/src/stm32f10x_flash.c ****       {
1571:../lib/STM32F10x_StdPeriph_Driver/src/stm32f10x_flash.c ****         flashstatus = FLASH_ERROR_WRP;
1572:../lib/STM32F10x_StdPeriph_Driver/src/stm32f10x_flash.c ****       }
1573:../lib/STM32F10x_StdPeriph_Driver/src/stm32f10x_flash.c ****       else
1574:../lib/STM32F10x_StdPeriph_Driver/src/stm32f10x_flash.c ****       {
1575:../lib/STM32F10x_StdPeriph_Driver/src/stm32f10x_flash.c ****         flashstatus = FLASH_COMPLETE;
1576:../lib/STM32F10x_StdPeriph_Driver/src/stm32f10x_flash.c ****       }
1577:../lib/STM32F10x_StdPeriph_Driver/src/stm32f10x_flash.c ****     }
1578:../lib/STM32F10x_StdPeriph_Driver/src/stm32f10x_flash.c ****   }
1579:../lib/STM32F10x_StdPeriph_Driver/src/stm32f10x_flash.c ****   /* Return the Flash Status */
1580:../lib/STM32F10x_StdPeriph_Driver/src/stm32f10x_flash.c ****   return flashstatus;
1581:../lib/STM32F10x_StdPeriph_Driver/src/stm32f10x_flash.c **** }
1582:../lib/STM32F10x_StdPeriph_Driver/src/stm32f10x_flash.c **** #endif /* STM32F10X_XL */
1583:../lib/STM32F10x_StdPeriph_Driver/src/stm32f10x_flash.c **** /**
1584:../lib/STM32F10x_StdPeriph_Driver/src/stm32f10x_flash.c ****   * @brief  Waits for a Flash operation to complete or a TIMEOUT to occur.
1585:../lib/STM32F10x_StdPeriph_Driver/src/stm32f10x_flash.c ****   * @note   This function can be used for all STM32F10x devices, 
1586:../lib/STM32F10x_StdPeriph_Driver/src/stm32f10x_flash.c ****   *         it is equivalent to FLASH_WaitForLastBank1Operation.
1587:../lib/STM32F10x_StdPeriph_Driver/src/stm32f10x_flash.c ****   *         - For STM32F10X_XL devices this function waits for a Bank1 Flash operation
1588:../lib/STM32F10x_StdPeriph_Driver/src/stm32f10x_flash.c ****   *           to complete or a TIMEOUT to occur.
1589:../lib/STM32F10x_StdPeriph_Driver/src/stm32f10x_flash.c ****   *         - For all other devices it waits for a Flash operation to complete 
1590:../lib/STM32F10x_StdPeriph_Driver/src/stm32f10x_flash.c ****   *           or a TIMEOUT to occur.
1591:../lib/STM32F10x_StdPeriph_Driver/src/stm32f10x_flash.c ****   * @param  Timeout: FLASH programming Timeout
1592:../lib/STM32F10x_StdPeriph_Driver/src/stm32f10x_flash.c ****   * @retval FLASH Status: The returned value can be: FLASH_ERROR_PG,
1593:../lib/STM32F10x_StdPeriph_Driver/src/stm32f10x_flash.c ****   *         FLASH_ERROR_WRP, FLASH_COMPLETE or FLASH_TIMEOUT.
1594:../lib/STM32F10x_StdPeriph_Driver/src/stm32f10x_flash.c ****   */
1595:../lib/STM32F10x_StdPeriph_Driver/src/stm32f10x_flash.c **** FLASH_Status FLASH_WaitForLastOperation(uint32_t Timeout)
1596:../lib/STM32F10x_StdPeriph_Driver/src/stm32f10x_flash.c **** { 
 1886              		.loc 1 1596 0
 1887              		.cfi_startproc
 1888              		@ args = 0, pretend = 0, frame = 16
 1889              		@ frame_needed = 1, uses_anonymous_args = 0
 1890 0940 80B5     		push	{r7, lr}
 1891              	.LCFI72:
 1892              		.cfi_def_cfa_offset 8
 1893              		.cfi_offset 7, -8
 1894              		.cfi_offset 14, -4
 1895 0942 84B0     		sub	sp, sp, #16
 1896              	.LCFI73:
 1897              		.cfi_def_cfa_offset 24
 1898 0944 00AF     		add	r7, sp, #0
 1899              	.LCFI74:
 1900              		.cfi_def_cfa_register 7
 1901 0946 7860     		str	r0, [r7, #4]
1597:../lib/STM32F10x_StdPeriph_Driver/src/stm32f10x_flash.c ****   FLASH_Status status = FLASH_COMPLETE;
 1902              		.loc 1 1597 0
 1903 0948 4FF00403 		mov	r3, #4
 1904 094c FB73     		strb	r3, [r7, #15]
1598:../lib/STM32F10x_StdPeriph_Driver/src/stm32f10x_flash.c ****    
1599:../lib/STM32F10x_StdPeriph_Driver/src/stm32f10x_flash.c ****   /* Check for the Flash Status */
1600:../lib/STM32F10x_StdPeriph_Driver/src/stm32f10x_flash.c ****   status = FLASH_GetBank1Status();
 1905              		.loc 1 1600 0
 1906 094e FFF7FEFF 		bl	FLASH_GetBank1Status
 1907 0952 0346     		mov	r3, r0
 1908 0954 FB73     		strb	r3, [r7, #15]
1601:../lib/STM32F10x_StdPeriph_Driver/src/stm32f10x_flash.c ****   /* Wait for a Flash operation to complete or a TIMEOUT to occur */
1602:../lib/STM32F10x_StdPeriph_Driver/src/stm32f10x_flash.c ****   while((status == FLASH_BUSY) && (Timeout != 0x00))
 1909              		.loc 1 1602 0
 1910 0956 07E0     		b	.L135
 1911              	.L137:
1603:../lib/STM32F10x_StdPeriph_Driver/src/stm32f10x_flash.c ****   {
1604:../lib/STM32F10x_StdPeriph_Driver/src/stm32f10x_flash.c ****     status = FLASH_GetBank1Status();
 1912              		.loc 1 1604 0
 1913 0958 FFF7FEFF 		bl	FLASH_GetBank1Status
 1914 095c 0346     		mov	r3, r0
 1915 095e FB73     		strb	r3, [r7, #15]
1605:../lib/STM32F10x_StdPeriph_Driver/src/stm32f10x_flash.c ****     Timeout--;
 1916              		.loc 1 1605 0
 1917 0960 7B68     		ldr	r3, [r7, #4]
 1918 0962 03F1FF33 		add	r3, r3, #-1
 1919 0966 7B60     		str	r3, [r7, #4]
 1920              	.L135:
1602:../lib/STM32F10x_StdPeriph_Driver/src/stm32f10x_flash.c ****   while((status == FLASH_BUSY) && (Timeout != 0x00))
 1921              		.loc 1 1602 0 discriminator 1
 1922 0968 FB7B     		ldrb	r3, [r7, #15]	@ zero_extendqisi2
 1923 096a 012B     		cmp	r3, #1
 1924 096c 02D1     		bne	.L136
1602:../lib/STM32F10x_StdPeriph_Driver/src/stm32f10x_flash.c ****   while((status == FLASH_BUSY) && (Timeout != 0x00))
 1925              		.loc 1 1602 0 is_stmt 0 discriminator 2
 1926 096e 7B68     		ldr	r3, [r7, #4]
 1927 0970 002B     		cmp	r3, #0
 1928 0972 F1D1     		bne	.L137
 1929              	.L136:
1606:../lib/STM32F10x_StdPeriph_Driver/src/stm32f10x_flash.c ****   }
1607:../lib/STM32F10x_StdPeriph_Driver/src/stm32f10x_flash.c ****   if(Timeout == 0x00 )
 1930              		.loc 1 1607 0 is_stmt 1
 1931 0974 7B68     		ldr	r3, [r7, #4]
 1932 0976 002B     		cmp	r3, #0
 1933 0978 02D1     		bne	.L138
1608:../lib/STM32F10x_StdPeriph_Driver/src/stm32f10x_flash.c ****   {
1609:../lib/STM32F10x_StdPeriph_Driver/src/stm32f10x_flash.c ****     status = FLASH_TIMEOUT;
 1934              		.loc 1 1609 0
 1935 097a 4FF00503 		mov	r3, #5
 1936 097e FB73     		strb	r3, [r7, #15]
 1937              	.L138:
1610:../lib/STM32F10x_StdPeriph_Driver/src/stm32f10x_flash.c ****   }
1611:../lib/STM32F10x_StdPeriph_Driver/src/stm32f10x_flash.c ****   /* Return the operation status */
1612:../lib/STM32F10x_StdPeriph_Driver/src/stm32f10x_flash.c ****   return status;
 1938              		.loc 1 1612 0
 1939 0980 FB7B     		ldrb	r3, [r7, #15]	@ zero_extendqisi2
1613:../lib/STM32F10x_StdPeriph_Driver/src/stm32f10x_flash.c **** }
 1940              		.loc 1 1613 0
 1941 0982 1846     		mov	r0, r3
 1942 0984 07F11007 		add	r7, r7, #16
 1943 0988 BD46     		mov	sp, r7
 1944 098a 80BD     		pop	{r7, pc}
 1945              		.cfi_endproc
 1946              	.LFE55:
 1948              		.align	2
 1949              		.global	FLASH_WaitForLastBank1Operation
 1950              		.thumb
 1951              		.thumb_func
 1953              	FLASH_WaitForLastBank1Operation:
 1954              	.LFB56:
1614:../lib/STM32F10x_StdPeriph_Driver/src/stm32f10x_flash.c **** 
1615:../lib/STM32F10x_StdPeriph_Driver/src/stm32f10x_flash.c **** /**
1616:../lib/STM32F10x_StdPeriph_Driver/src/stm32f10x_flash.c ****   * @brief  Waits for a Flash operation on Bank1 to complete or a TIMEOUT to occur.
1617:../lib/STM32F10x_StdPeriph_Driver/src/stm32f10x_flash.c ****   * @note   This function can be used for all STM32F10x devices, 
1618:../lib/STM32F10x_StdPeriph_Driver/src/stm32f10x_flash.c ****   *         it is equivalent to FLASH_WaitForLastOperation.
1619:../lib/STM32F10x_StdPeriph_Driver/src/stm32f10x_flash.c ****   * @param  Timeout: FLASH programming Timeout
1620:../lib/STM32F10x_StdPeriph_Driver/src/stm32f10x_flash.c ****   * @retval FLASH Status: The returned value can be: FLASH_ERROR_PG,
1621:../lib/STM32F10x_StdPeriph_Driver/src/stm32f10x_flash.c ****   *         FLASH_ERROR_WRP, FLASH_COMPLETE or FLASH_TIMEOUT.
1622:../lib/STM32F10x_StdPeriph_Driver/src/stm32f10x_flash.c ****   */
1623:../lib/STM32F10x_StdPeriph_Driver/src/stm32f10x_flash.c **** FLASH_Status FLASH_WaitForLastBank1Operation(uint32_t Timeout)
1624:../lib/STM32F10x_StdPeriph_Driver/src/stm32f10x_flash.c **** { 
 1955              		.loc 1 1624 0
 1956              		.cfi_startproc
 1957              		@ args = 0, pretend = 0, frame = 16
 1958              		@ frame_needed = 1, uses_anonymous_args = 0
 1959 098c 80B5     		push	{r7, lr}
 1960              	.LCFI75:
 1961              		.cfi_def_cfa_offset 8
 1962              		.cfi_offset 7, -8
 1963              		.cfi_offset 14, -4
 1964 098e 84B0     		sub	sp, sp, #16
 1965              	.LCFI76:
 1966              		.cfi_def_cfa_offset 24
 1967 0990 00AF     		add	r7, sp, #0
 1968              	.LCFI77:
 1969              		.cfi_def_cfa_register 7
 1970 0992 7860     		str	r0, [r7, #4]
1625:../lib/STM32F10x_StdPeriph_Driver/src/stm32f10x_flash.c ****   FLASH_Status status = FLASH_COMPLETE;
 1971              		.loc 1 1625 0
 1972 0994 4FF00403 		mov	r3, #4
 1973 0998 FB73     		strb	r3, [r7, #15]
1626:../lib/STM32F10x_StdPeriph_Driver/src/stm32f10x_flash.c ****    
1627:../lib/STM32F10x_StdPeriph_Driver/src/stm32f10x_flash.c ****   /* Check for the Flash Status */
1628:../lib/STM32F10x_StdPeriph_Driver/src/stm32f10x_flash.c ****   status = FLASH_GetBank1Status();
 1974              		.loc 1 1628 0
 1975 099a FFF7FEFF 		bl	FLASH_GetBank1Status
 1976 099e 0346     		mov	r3, r0
 1977 09a0 FB73     		strb	r3, [r7, #15]
1629:../lib/STM32F10x_StdPeriph_Driver/src/stm32f10x_flash.c ****   /* Wait for a Flash operation to complete or a TIMEOUT to occur */
1630:../lib/STM32F10x_StdPeriph_Driver/src/stm32f10x_flash.c ****   while((status == FLASH_FLAG_BANK1_BSY) && (Timeout != 0x00))
 1978              		.loc 1 1630 0
 1979 09a2 07E0     		b	.L141
 1980              	.L143:
1631:../lib/STM32F10x_StdPeriph_Driver/src/stm32f10x_flash.c ****   {
1632:../lib/STM32F10x_StdPeriph_Driver/src/stm32f10x_flash.c ****     status = FLASH_GetBank1Status();
 1981              		.loc 1 1632 0
 1982 09a4 FFF7FEFF 		bl	FLASH_GetBank1Status
 1983 09a8 0346     		mov	r3, r0
 1984 09aa FB73     		strb	r3, [r7, #15]
1633:../lib/STM32F10x_StdPeriph_Driver/src/stm32f10x_flash.c ****     Timeout--;
 1985              		.loc 1 1633 0
 1986 09ac 7B68     		ldr	r3, [r7, #4]
 1987 09ae 03F1FF33 		add	r3, r3, #-1
 1988 09b2 7B60     		str	r3, [r7, #4]
 1989              	.L141:
1630:../lib/STM32F10x_StdPeriph_Driver/src/stm32f10x_flash.c ****   while((status == FLASH_FLAG_BANK1_BSY) && (Timeout != 0x00))
 1990              		.loc 1 1630 0 discriminator 1
 1991 09b4 FB7B     		ldrb	r3, [r7, #15]	@ zero_extendqisi2
 1992 09b6 012B     		cmp	r3, #1
 1993 09b8 02D1     		bne	.L142
1630:../lib/STM32F10x_StdPeriph_Driver/src/stm32f10x_flash.c ****   while((status == FLASH_FLAG_BANK1_BSY) && (Timeout != 0x00))
 1994              		.loc 1 1630 0 is_stmt 0 discriminator 2
 1995 09ba 7B68     		ldr	r3, [r7, #4]
 1996 09bc 002B     		cmp	r3, #0
 1997 09be F1D1     		bne	.L143
 1998              	.L142:
1634:../lib/STM32F10x_StdPeriph_Driver/src/stm32f10x_flash.c ****   }
1635:../lib/STM32F10x_StdPeriph_Driver/src/stm32f10x_flash.c ****   if(Timeout == 0x00 )
 1999              		.loc 1 1635 0 is_stmt 1
 2000 09c0 7B68     		ldr	r3, [r7, #4]
 2001 09c2 002B     		cmp	r3, #0
 2002 09c4 02D1     		bne	.L144
1636:../lib/STM32F10x_StdPeriph_Driver/src/stm32f10x_flash.c ****   {
1637:../lib/STM32F10x_StdPeriph_Driver/src/stm32f10x_flash.c ****     status = FLASH_TIMEOUT;
 2003              		.loc 1 1637 0
 2004 09c6 4FF00503 		mov	r3, #5
 2005 09ca FB73     		strb	r3, [r7, #15]
 2006              	.L144:
1638:../lib/STM32F10x_StdPeriph_Driver/src/stm32f10x_flash.c ****   }
1639:../lib/STM32F10x_StdPeriph_Driver/src/stm32f10x_flash.c ****   /* Return the operation status */
1640:../lib/STM32F10x_StdPeriph_Driver/src/stm32f10x_flash.c ****   return status;
 2007              		.loc 1 1640 0
 2008 09cc FB7B     		ldrb	r3, [r7, #15]	@ zero_extendqisi2
1641:../lib/STM32F10x_StdPeriph_Driver/src/stm32f10x_flash.c **** }
 2009              		.loc 1 1641 0
 2010 09ce 1846     		mov	r0, r3
 2011 09d0 07F11007 		add	r7, r7, #16
 2012 09d4 BD46     		mov	sp, r7
 2013 09d6 80BD     		pop	{r7, pc}
 2014              		.cfi_endproc
 2015              	.LFE56:
 2017              	.Letext0:
 2018              		.file 2 "/home/oni/ARM_EABI/bin/../lib/gcc/arm-none-eabi/4.7.2/../../../../arm-none-eabi/include/s
 2019              		.file 3 "/home/oni/workspace/Naze32/lib/CMSIS/CM3/DeviceSupport/ST/STM32F10x/stm32f10x.h"
 2020              		.file 4 "/home/oni/workspace/Naze32/lib/STM32F10x_StdPeriph_Driver/inc/stm32f10x_flash.h"
 2021              		.file 5 "/home/oni/workspace/Naze32/lib/CMSIS/CM3/CoreSupport/core_cm3.h"