   1              		.syntax unified
   2              		.cpu cortex-m3
   3              		.fpu softvfp
   4              		.eabi_attribute 20, 1
   5              		.eabi_attribute 21, 1
   6              		.eabi_attribute 23, 3
   7              		.eabi_attribute 24, 1
   8              		.eabi_attribute 25, 1
   9              		.eabi_attribute 26, 1
  10              		.eabi_attribute 30, 6
  11              		.eabi_attribute 34, 1
  12              		.eabi_attribute 18, 4
  13              		.thumb
  14              		.file	"stm32f10x_tim.c"
  15              		.text
  16              	.Ltext0:
  17              		.cfi_sections	.debug_frame
  18              		.align	2
  19              		.global	TIM_DeInit
  20              		.thumb
  21              		.thumb_func
  23              	TIM_DeInit:
  24              	.LFB29:
  25              		.file 1 "../lib/STM32F10x_StdPeriph_Driver/src/stm32f10x_tim.c"
   1:../lib/STM32F10x_StdPeriph_Driver/src/stm32f10x_tim.c **** /**
   2:../lib/STM32F10x_StdPeriph_Driver/src/stm32f10x_tim.c ****   ******************************************************************************
   3:../lib/STM32F10x_StdPeriph_Driver/src/stm32f10x_tim.c ****   * @file    stm32f10x_tim.c
   4:../lib/STM32F10x_StdPeriph_Driver/src/stm32f10x_tim.c ****   * @author  MCD Application Team
   5:../lib/STM32F10x_StdPeriph_Driver/src/stm32f10x_tim.c ****   * @version V3.5.0
   6:../lib/STM32F10x_StdPeriph_Driver/src/stm32f10x_tim.c ****   * @date    11-March-2011
   7:../lib/STM32F10x_StdPeriph_Driver/src/stm32f10x_tim.c ****   * @brief   This file provides all the TIM firmware functions.
   8:../lib/STM32F10x_StdPeriph_Driver/src/stm32f10x_tim.c ****   ******************************************************************************
   9:../lib/STM32F10x_StdPeriph_Driver/src/stm32f10x_tim.c ****   * @attention
  10:../lib/STM32F10x_StdPeriph_Driver/src/stm32f10x_tim.c ****   *
  11:../lib/STM32F10x_StdPeriph_Driver/src/stm32f10x_tim.c ****   * THE PRESENT FIRMWARE WHICH IS FOR GUIDANCE ONLY AIMS AT PROVIDING CUSTOMERS
  12:../lib/STM32F10x_StdPeriph_Driver/src/stm32f10x_tim.c ****   * WITH CODING INFORMATION REGARDING THEIR PRODUCTS IN ORDER FOR THEM TO SAVE
  13:../lib/STM32F10x_StdPeriph_Driver/src/stm32f10x_tim.c ****   * TIME. AS A RESULT, STMICROELECTRONICS SHALL NOT BE HELD LIABLE FOR ANY
  14:../lib/STM32F10x_StdPeriph_Driver/src/stm32f10x_tim.c ****   * DIRECT, INDIRECT OR CONSEQUENTIAL DAMAGES WITH RESPECT TO ANY CLAIMS ARISING
  15:../lib/STM32F10x_StdPeriph_Driver/src/stm32f10x_tim.c ****   * FROM THE CONTENT OF SUCH FIRMWARE AND/OR THE USE MADE BY CUSTOMERS OF THE
  16:../lib/STM32F10x_StdPeriph_Driver/src/stm32f10x_tim.c ****   * CODING INFORMATION CONTAINED HEREIN IN CONNECTION WITH THEIR PRODUCTS.
  17:../lib/STM32F10x_StdPeriph_Driver/src/stm32f10x_tim.c ****   *
  18:../lib/STM32F10x_StdPeriph_Driver/src/stm32f10x_tim.c ****   * <h2><center>&copy; COPYRIGHT 2011 STMicroelectronics</center></h2>
  19:../lib/STM32F10x_StdPeriph_Driver/src/stm32f10x_tim.c ****   ******************************************************************************
  20:../lib/STM32F10x_StdPeriph_Driver/src/stm32f10x_tim.c ****   */
  21:../lib/STM32F10x_StdPeriph_Driver/src/stm32f10x_tim.c **** 
  22:../lib/STM32F10x_StdPeriph_Driver/src/stm32f10x_tim.c **** /* Includes ------------------------------------------------------------------*/
  23:../lib/STM32F10x_StdPeriph_Driver/src/stm32f10x_tim.c **** #include "stm32f10x_tim.h"
  24:../lib/STM32F10x_StdPeriph_Driver/src/stm32f10x_tim.c **** #include "stm32f10x_rcc.h"
  25:../lib/STM32F10x_StdPeriph_Driver/src/stm32f10x_tim.c **** 
  26:../lib/STM32F10x_StdPeriph_Driver/src/stm32f10x_tim.c **** /** @addtogroup STM32F10x_StdPeriph_Driver
  27:../lib/STM32F10x_StdPeriph_Driver/src/stm32f10x_tim.c ****   * @{
  28:../lib/STM32F10x_StdPeriph_Driver/src/stm32f10x_tim.c ****   */
  29:../lib/STM32F10x_StdPeriph_Driver/src/stm32f10x_tim.c **** 
  30:../lib/STM32F10x_StdPeriph_Driver/src/stm32f10x_tim.c **** /** @defgroup TIM 
  31:../lib/STM32F10x_StdPeriph_Driver/src/stm32f10x_tim.c ****   * @brief TIM driver modules
  32:../lib/STM32F10x_StdPeriph_Driver/src/stm32f10x_tim.c ****   * @{
  33:../lib/STM32F10x_StdPeriph_Driver/src/stm32f10x_tim.c ****   */
  34:../lib/STM32F10x_StdPeriph_Driver/src/stm32f10x_tim.c **** 
  35:../lib/STM32F10x_StdPeriph_Driver/src/stm32f10x_tim.c **** /** @defgroup TIM_Private_TypesDefinitions
  36:../lib/STM32F10x_StdPeriph_Driver/src/stm32f10x_tim.c ****   * @{
  37:../lib/STM32F10x_StdPeriph_Driver/src/stm32f10x_tim.c ****   */
  38:../lib/STM32F10x_StdPeriph_Driver/src/stm32f10x_tim.c **** 
  39:../lib/STM32F10x_StdPeriph_Driver/src/stm32f10x_tim.c **** /**
  40:../lib/STM32F10x_StdPeriph_Driver/src/stm32f10x_tim.c ****   * @}
  41:../lib/STM32F10x_StdPeriph_Driver/src/stm32f10x_tim.c ****   */
  42:../lib/STM32F10x_StdPeriph_Driver/src/stm32f10x_tim.c **** 
  43:../lib/STM32F10x_StdPeriph_Driver/src/stm32f10x_tim.c **** /** @defgroup TIM_Private_Defines
  44:../lib/STM32F10x_StdPeriph_Driver/src/stm32f10x_tim.c ****   * @{
  45:../lib/STM32F10x_StdPeriph_Driver/src/stm32f10x_tim.c ****   */
  46:../lib/STM32F10x_StdPeriph_Driver/src/stm32f10x_tim.c **** 
  47:../lib/STM32F10x_StdPeriph_Driver/src/stm32f10x_tim.c **** /* ---------------------- TIM registers bit mask ------------------------ */
  48:../lib/STM32F10x_StdPeriph_Driver/src/stm32f10x_tim.c **** #define SMCR_ETR_Mask               ((uint16_t)0x00FF) 
  49:../lib/STM32F10x_StdPeriph_Driver/src/stm32f10x_tim.c **** #define CCMR_Offset                 ((uint16_t)0x0018)
  50:../lib/STM32F10x_StdPeriph_Driver/src/stm32f10x_tim.c **** #define CCER_CCE_Set                ((uint16_t)0x0001)  
  51:../lib/STM32F10x_StdPeriph_Driver/src/stm32f10x_tim.c **** #define	CCER_CCNE_Set               ((uint16_t)0x0004) 
  52:../lib/STM32F10x_StdPeriph_Driver/src/stm32f10x_tim.c **** 
  53:../lib/STM32F10x_StdPeriph_Driver/src/stm32f10x_tim.c **** /**
  54:../lib/STM32F10x_StdPeriph_Driver/src/stm32f10x_tim.c ****   * @}
  55:../lib/STM32F10x_StdPeriph_Driver/src/stm32f10x_tim.c ****   */
  56:../lib/STM32F10x_StdPeriph_Driver/src/stm32f10x_tim.c **** 
  57:../lib/STM32F10x_StdPeriph_Driver/src/stm32f10x_tim.c **** /** @defgroup TIM_Private_Macros
  58:../lib/STM32F10x_StdPeriph_Driver/src/stm32f10x_tim.c ****   * @{
  59:../lib/STM32F10x_StdPeriph_Driver/src/stm32f10x_tim.c ****   */
  60:../lib/STM32F10x_StdPeriph_Driver/src/stm32f10x_tim.c **** 
  61:../lib/STM32F10x_StdPeriph_Driver/src/stm32f10x_tim.c **** /**
  62:../lib/STM32F10x_StdPeriph_Driver/src/stm32f10x_tim.c ****   * @}
  63:../lib/STM32F10x_StdPeriph_Driver/src/stm32f10x_tim.c ****   */
  64:../lib/STM32F10x_StdPeriph_Driver/src/stm32f10x_tim.c **** 
  65:../lib/STM32F10x_StdPeriph_Driver/src/stm32f10x_tim.c **** /** @defgroup TIM_Private_Variables
  66:../lib/STM32F10x_StdPeriph_Driver/src/stm32f10x_tim.c ****   * @{
  67:../lib/STM32F10x_StdPeriph_Driver/src/stm32f10x_tim.c ****   */
  68:../lib/STM32F10x_StdPeriph_Driver/src/stm32f10x_tim.c **** 
  69:../lib/STM32F10x_StdPeriph_Driver/src/stm32f10x_tim.c **** /**
  70:../lib/STM32F10x_StdPeriph_Driver/src/stm32f10x_tim.c ****   * @}
  71:../lib/STM32F10x_StdPeriph_Driver/src/stm32f10x_tim.c ****   */
  72:../lib/STM32F10x_StdPeriph_Driver/src/stm32f10x_tim.c **** 
  73:../lib/STM32F10x_StdPeriph_Driver/src/stm32f10x_tim.c **** /** @defgroup TIM_Private_FunctionPrototypes
  74:../lib/STM32F10x_StdPeriph_Driver/src/stm32f10x_tim.c ****   * @{
  75:../lib/STM32F10x_StdPeriph_Driver/src/stm32f10x_tim.c ****   */
  76:../lib/STM32F10x_StdPeriph_Driver/src/stm32f10x_tim.c **** 
  77:../lib/STM32F10x_StdPeriph_Driver/src/stm32f10x_tim.c **** static void TI1_Config(TIM_TypeDef* TIMx, uint16_t TIM_ICPolarity, uint16_t TIM_ICSelection,
  78:../lib/STM32F10x_StdPeriph_Driver/src/stm32f10x_tim.c ****                        uint16_t TIM_ICFilter);
  79:../lib/STM32F10x_StdPeriph_Driver/src/stm32f10x_tim.c **** static void TI2_Config(TIM_TypeDef* TIMx, uint16_t TIM_ICPolarity, uint16_t TIM_ICSelection,
  80:../lib/STM32F10x_StdPeriph_Driver/src/stm32f10x_tim.c ****                        uint16_t TIM_ICFilter);
  81:../lib/STM32F10x_StdPeriph_Driver/src/stm32f10x_tim.c **** static void TI3_Config(TIM_TypeDef* TIMx, uint16_t TIM_ICPolarity, uint16_t TIM_ICSelection,
  82:../lib/STM32F10x_StdPeriph_Driver/src/stm32f10x_tim.c ****                        uint16_t TIM_ICFilter);
  83:../lib/STM32F10x_StdPeriph_Driver/src/stm32f10x_tim.c **** static void TI4_Config(TIM_TypeDef* TIMx, uint16_t TIM_ICPolarity, uint16_t TIM_ICSelection,
  84:../lib/STM32F10x_StdPeriph_Driver/src/stm32f10x_tim.c ****                        uint16_t TIM_ICFilter);
  85:../lib/STM32F10x_StdPeriph_Driver/src/stm32f10x_tim.c **** /**
  86:../lib/STM32F10x_StdPeriph_Driver/src/stm32f10x_tim.c ****   * @}
  87:../lib/STM32F10x_StdPeriph_Driver/src/stm32f10x_tim.c ****   */
  88:../lib/STM32F10x_StdPeriph_Driver/src/stm32f10x_tim.c **** 
  89:../lib/STM32F10x_StdPeriph_Driver/src/stm32f10x_tim.c **** /** @defgroup TIM_Private_Macros
  90:../lib/STM32F10x_StdPeriph_Driver/src/stm32f10x_tim.c ****   * @{
  91:../lib/STM32F10x_StdPeriph_Driver/src/stm32f10x_tim.c ****   */
  92:../lib/STM32F10x_StdPeriph_Driver/src/stm32f10x_tim.c **** 
  93:../lib/STM32F10x_StdPeriph_Driver/src/stm32f10x_tim.c **** /**
  94:../lib/STM32F10x_StdPeriph_Driver/src/stm32f10x_tim.c ****   * @}
  95:../lib/STM32F10x_StdPeriph_Driver/src/stm32f10x_tim.c ****   */
  96:../lib/STM32F10x_StdPeriph_Driver/src/stm32f10x_tim.c **** 
  97:../lib/STM32F10x_StdPeriph_Driver/src/stm32f10x_tim.c **** /** @defgroup TIM_Private_Variables
  98:../lib/STM32F10x_StdPeriph_Driver/src/stm32f10x_tim.c ****   * @{
  99:../lib/STM32F10x_StdPeriph_Driver/src/stm32f10x_tim.c ****   */
 100:../lib/STM32F10x_StdPeriph_Driver/src/stm32f10x_tim.c **** 
 101:../lib/STM32F10x_StdPeriph_Driver/src/stm32f10x_tim.c **** /**
 102:../lib/STM32F10x_StdPeriph_Driver/src/stm32f10x_tim.c ****   * @}
 103:../lib/STM32F10x_StdPeriph_Driver/src/stm32f10x_tim.c ****   */
 104:../lib/STM32F10x_StdPeriph_Driver/src/stm32f10x_tim.c **** 
 105:../lib/STM32F10x_StdPeriph_Driver/src/stm32f10x_tim.c **** /** @defgroup TIM_Private_FunctionPrototypes
 106:../lib/STM32F10x_StdPeriph_Driver/src/stm32f10x_tim.c ****   * @{
 107:../lib/STM32F10x_StdPeriph_Driver/src/stm32f10x_tim.c ****   */
 108:../lib/STM32F10x_StdPeriph_Driver/src/stm32f10x_tim.c **** 
 109:../lib/STM32F10x_StdPeriph_Driver/src/stm32f10x_tim.c **** /**
 110:../lib/STM32F10x_StdPeriph_Driver/src/stm32f10x_tim.c ****   * @}
 111:../lib/STM32F10x_StdPeriph_Driver/src/stm32f10x_tim.c ****   */
 112:../lib/STM32F10x_StdPeriph_Driver/src/stm32f10x_tim.c **** 
 113:../lib/STM32F10x_StdPeriph_Driver/src/stm32f10x_tim.c **** /** @defgroup TIM_Private_Functions
 114:../lib/STM32F10x_StdPeriph_Driver/src/stm32f10x_tim.c ****   * @{
 115:../lib/STM32F10x_StdPeriph_Driver/src/stm32f10x_tim.c ****   */
 116:../lib/STM32F10x_StdPeriph_Driver/src/stm32f10x_tim.c **** 
 117:../lib/STM32F10x_StdPeriph_Driver/src/stm32f10x_tim.c **** /**
 118:../lib/STM32F10x_StdPeriph_Driver/src/stm32f10x_tim.c ****   * @brief  Deinitializes the TIMx peripheral registers to their default reset values.
 119:../lib/STM32F10x_StdPeriph_Driver/src/stm32f10x_tim.c ****   * @param  TIMx: where x can be 1 to 17 to select the TIM peripheral.
 120:../lib/STM32F10x_StdPeriph_Driver/src/stm32f10x_tim.c ****   * @retval None
 121:../lib/STM32F10x_StdPeriph_Driver/src/stm32f10x_tim.c ****   */
 122:../lib/STM32F10x_StdPeriph_Driver/src/stm32f10x_tim.c **** void TIM_DeInit(TIM_TypeDef* TIMx)
 123:../lib/STM32F10x_StdPeriph_Driver/src/stm32f10x_tim.c **** {
  26              		.loc 1 123 0
  27              		.cfi_startproc
  28              		@ args = 0, pretend = 0, frame = 8
  29              		@ frame_needed = 1, uses_anonymous_args = 0
  30 0000 80B5     		push	{r7, lr}
  31              	.LCFI0:
  32              		.cfi_def_cfa_offset 8
  33              		.cfi_offset 7, -8
  34              		.cfi_offset 14, -4
  35 0002 82B0     		sub	sp, sp, #8
  36              	.LCFI1:
  37              		.cfi_def_cfa_offset 16
  38 0004 00AF     		add	r7, sp, #0
  39              	.LCFI2:
  40              		.cfi_def_cfa_register 7
  41 0006 7860     		str	r0, [r7, #4]
 124:../lib/STM32F10x_StdPeriph_Driver/src/stm32f10x_tim.c ****   /* Check the parameters */
 125:../lib/STM32F10x_StdPeriph_Driver/src/stm32f10x_tim.c ****   assert_param(IS_TIM_ALL_PERIPH(TIMx)); 
 126:../lib/STM32F10x_StdPeriph_Driver/src/stm32f10x_tim.c ****  
 127:../lib/STM32F10x_StdPeriph_Driver/src/stm32f10x_tim.c ****   if (TIMx == TIM1)
  42              		.loc 1 127 0
  43 0008 7A68     		ldr	r2, [r7, #4]
  44 000a 914B     		ldr	r3, .L19
  45 000c 9A42     		cmp	r2, r3
  46 000e 0CD1     		bne	.L2
 128:../lib/STM32F10x_StdPeriph_Driver/src/stm32f10x_tim.c ****   {
 129:../lib/STM32F10x_StdPeriph_Driver/src/stm32f10x_tim.c ****     RCC_APB2PeriphResetCmd(RCC_APB2Periph_TIM1, ENABLE);
  47              		.loc 1 129 0
  48 0010 4FF40060 		mov	r0, #2048
  49 0014 4FF00101 		mov	r1, #1
  50 0018 FFF7FEFF 		bl	RCC_APB2PeriphResetCmd
 130:../lib/STM32F10x_StdPeriph_Driver/src/stm32f10x_tim.c ****     RCC_APB2PeriphResetCmd(RCC_APB2Periph_TIM1, DISABLE);  
  51              		.loc 1 130 0
  52 001c 4FF40060 		mov	r0, #2048
  53 0020 4FF00001 		mov	r1, #0
  54 0024 FFF7FEFF 		bl	RCC_APB2PeriphResetCmd
  55 0028 0EE1     		b	.L1
  56              	.L2:
 131:../lib/STM32F10x_StdPeriph_Driver/src/stm32f10x_tim.c ****   }     
 132:../lib/STM32F10x_StdPeriph_Driver/src/stm32f10x_tim.c ****   else if (TIMx == TIM2)
  57              		.loc 1 132 0
  58 002a 7B68     		ldr	r3, [r7, #4]
  59 002c B3F1804F 		cmp	r3, #1073741824
  60 0030 0CD1     		bne	.L4
 133:../lib/STM32F10x_StdPeriph_Driver/src/stm32f10x_tim.c ****   {
 134:../lib/STM32F10x_StdPeriph_Driver/src/stm32f10x_tim.c ****     RCC_APB1PeriphResetCmd(RCC_APB1Periph_TIM2, ENABLE);
  61              		.loc 1 134 0
  62 0032 4FF00100 		mov	r0, #1
  63 0036 4FF00101 		mov	r1, #1
  64 003a FFF7FEFF 		bl	RCC_APB1PeriphResetCmd
 135:../lib/STM32F10x_StdPeriph_Driver/src/stm32f10x_tim.c ****     RCC_APB1PeriphResetCmd(RCC_APB1Periph_TIM2, DISABLE);
  65              		.loc 1 135 0
  66 003e 4FF00100 		mov	r0, #1
  67 0042 4FF00001 		mov	r1, #0
  68 0046 FFF7FEFF 		bl	RCC_APB1PeriphResetCmd
  69 004a FDE0     		b	.L1
  70              	.L4:
 136:../lib/STM32F10x_StdPeriph_Driver/src/stm32f10x_tim.c ****   }
 137:../lib/STM32F10x_StdPeriph_Driver/src/stm32f10x_tim.c ****   else if (TIMx == TIM3)
  71              		.loc 1 137 0
  72 004c 7A68     		ldr	r2, [r7, #4]
  73 004e 814B     		ldr	r3, .L19+4
  74 0050 9A42     		cmp	r2, r3
  75 0052 0CD1     		bne	.L5
 138:../lib/STM32F10x_StdPeriph_Driver/src/stm32f10x_tim.c ****   {
 139:../lib/STM32F10x_StdPeriph_Driver/src/stm32f10x_tim.c ****     RCC_APB1PeriphResetCmd(RCC_APB1Periph_TIM3, ENABLE);
  76              		.loc 1 139 0
  77 0054 4FF00200 		mov	r0, #2
  78 0058 4FF00101 		mov	r1, #1
  79 005c FFF7FEFF 		bl	RCC_APB1PeriphResetCmd
 140:../lib/STM32F10x_StdPeriph_Driver/src/stm32f10x_tim.c ****     RCC_APB1PeriphResetCmd(RCC_APB1Periph_TIM3, DISABLE);
  80              		.loc 1 140 0
  81 0060 4FF00200 		mov	r0, #2
  82 0064 4FF00001 		mov	r1, #0
  83 0068 FFF7FEFF 		bl	RCC_APB1PeriphResetCmd
  84 006c ECE0     		b	.L1
  85              	.L5:
 141:../lib/STM32F10x_StdPeriph_Driver/src/stm32f10x_tim.c ****   }
 142:../lib/STM32F10x_StdPeriph_Driver/src/stm32f10x_tim.c ****   else if (TIMx == TIM4)
  86              		.loc 1 142 0
  87 006e 7A68     		ldr	r2, [r7, #4]
  88 0070 794B     		ldr	r3, .L19+8
  89 0072 9A42     		cmp	r2, r3
  90 0074 0CD1     		bne	.L6
 143:../lib/STM32F10x_StdPeriph_Driver/src/stm32f10x_tim.c ****   {
 144:../lib/STM32F10x_StdPeriph_Driver/src/stm32f10x_tim.c ****     RCC_APB1PeriphResetCmd(RCC_APB1Periph_TIM4, ENABLE);
  91              		.loc 1 144 0
  92 0076 4FF00400 		mov	r0, #4
  93 007a 4FF00101 		mov	r1, #1
  94 007e FFF7FEFF 		bl	RCC_APB1PeriphResetCmd
 145:../lib/STM32F10x_StdPeriph_Driver/src/stm32f10x_tim.c ****     RCC_APB1PeriphResetCmd(RCC_APB1Periph_TIM4, DISABLE);
  95              		.loc 1 145 0
  96 0082 4FF00400 		mov	r0, #4
  97 0086 4FF00001 		mov	r1, #0
  98 008a FFF7FEFF 		bl	RCC_APB1PeriphResetCmd
  99 008e DBE0     		b	.L1
 100              	.L6:
 146:../lib/STM32F10x_StdPeriph_Driver/src/stm32f10x_tim.c ****   } 
 147:../lib/STM32F10x_StdPeriph_Driver/src/stm32f10x_tim.c ****   else if (TIMx == TIM5)
 101              		.loc 1 147 0
 102 0090 7A68     		ldr	r2, [r7, #4]
 103 0092 724B     		ldr	r3, .L19+12
 104 0094 9A42     		cmp	r2, r3
 105 0096 0CD1     		bne	.L7
 148:../lib/STM32F10x_StdPeriph_Driver/src/stm32f10x_tim.c ****   {
 149:../lib/STM32F10x_StdPeriph_Driver/src/stm32f10x_tim.c ****     RCC_APB1PeriphResetCmd(RCC_APB1Periph_TIM5, ENABLE);
 106              		.loc 1 149 0
 107 0098 4FF00800 		mov	r0, #8
 108 009c 4FF00101 		mov	r1, #1
 109 00a0 FFF7FEFF 		bl	RCC_APB1PeriphResetCmd
 150:../lib/STM32F10x_StdPeriph_Driver/src/stm32f10x_tim.c ****     RCC_APB1PeriphResetCmd(RCC_APB1Periph_TIM5, DISABLE);
 110              		.loc 1 150 0
 111 00a4 4FF00800 		mov	r0, #8
 112 00a8 4FF00001 		mov	r1, #0
 113 00ac FFF7FEFF 		bl	RCC_APB1PeriphResetCmd
 114 00b0 CAE0     		b	.L1
 115              	.L7:
 151:../lib/STM32F10x_StdPeriph_Driver/src/stm32f10x_tim.c ****   } 
 152:../lib/STM32F10x_StdPeriph_Driver/src/stm32f10x_tim.c ****   else if (TIMx == TIM6)
 116              		.loc 1 152 0
 117 00b2 7A68     		ldr	r2, [r7, #4]
 118 00b4 6A4B     		ldr	r3, .L19+16
 119 00b6 9A42     		cmp	r2, r3
 120 00b8 0CD1     		bne	.L8
 153:../lib/STM32F10x_StdPeriph_Driver/src/stm32f10x_tim.c ****   {
 154:../lib/STM32F10x_StdPeriph_Driver/src/stm32f10x_tim.c ****     RCC_APB1PeriphResetCmd(RCC_APB1Periph_TIM6, ENABLE);
 121              		.loc 1 154 0
 122 00ba 4FF01000 		mov	r0, #16
 123 00be 4FF00101 		mov	r1, #1
 124 00c2 FFF7FEFF 		bl	RCC_APB1PeriphResetCmd
 155:../lib/STM32F10x_StdPeriph_Driver/src/stm32f10x_tim.c ****     RCC_APB1PeriphResetCmd(RCC_APB1Periph_TIM6, DISABLE);
 125              		.loc 1 155 0
 126 00c6 4FF01000 		mov	r0, #16
 127 00ca 4FF00001 		mov	r1, #0
 128 00ce FFF7FEFF 		bl	RCC_APB1PeriphResetCmd
 129 00d2 B9E0     		b	.L1
 130              	.L8:
 156:../lib/STM32F10x_StdPeriph_Driver/src/stm32f10x_tim.c ****   } 
 157:../lib/STM32F10x_StdPeriph_Driver/src/stm32f10x_tim.c ****   else if (TIMx == TIM7)
 131              		.loc 1 157 0
 132 00d4 7A68     		ldr	r2, [r7, #4]
 133 00d6 634B     		ldr	r3, .L19+20
 134 00d8 9A42     		cmp	r2, r3
 135 00da 0CD1     		bne	.L9
 158:../lib/STM32F10x_StdPeriph_Driver/src/stm32f10x_tim.c ****   {
 159:../lib/STM32F10x_StdPeriph_Driver/src/stm32f10x_tim.c ****     RCC_APB1PeriphResetCmd(RCC_APB1Periph_TIM7, ENABLE);
 136              		.loc 1 159 0
 137 00dc 4FF02000 		mov	r0, #32
 138 00e0 4FF00101 		mov	r1, #1
 139 00e4 FFF7FEFF 		bl	RCC_APB1PeriphResetCmd
 160:../lib/STM32F10x_StdPeriph_Driver/src/stm32f10x_tim.c ****     RCC_APB1PeriphResetCmd(RCC_APB1Periph_TIM7, DISABLE);
 140              		.loc 1 160 0
 141 00e8 4FF02000 		mov	r0, #32
 142 00ec 4FF00001 		mov	r1, #0
 143 00f0 FFF7FEFF 		bl	RCC_APB1PeriphResetCmd
 144 00f4 A8E0     		b	.L1
 145              	.L9:
 161:../lib/STM32F10x_StdPeriph_Driver/src/stm32f10x_tim.c ****   } 
 162:../lib/STM32F10x_StdPeriph_Driver/src/stm32f10x_tim.c ****   else if (TIMx == TIM8)
 146              		.loc 1 162 0
 147 00f6 7A68     		ldr	r2, [r7, #4]
 148 00f8 5B4B     		ldr	r3, .L19+24
 149 00fa 9A42     		cmp	r2, r3
 150 00fc 0CD1     		bne	.L10
 163:../lib/STM32F10x_StdPeriph_Driver/src/stm32f10x_tim.c ****   {
 164:../lib/STM32F10x_StdPeriph_Driver/src/stm32f10x_tim.c ****     RCC_APB2PeriphResetCmd(RCC_APB2Periph_TIM8, ENABLE);
 151              		.loc 1 164 0
 152 00fe 4FF40050 		mov	r0, #8192
 153 0102 4FF00101 		mov	r1, #1
 154 0106 FFF7FEFF 		bl	RCC_APB2PeriphResetCmd
 165:../lib/STM32F10x_StdPeriph_Driver/src/stm32f10x_tim.c ****     RCC_APB2PeriphResetCmd(RCC_APB2Periph_TIM8, DISABLE);
 155              		.loc 1 165 0
 156 010a 4FF40050 		mov	r0, #8192
 157 010e 4FF00001 		mov	r1, #0
 158 0112 FFF7FEFF 		bl	RCC_APB2PeriphResetCmd
 159 0116 97E0     		b	.L1
 160              	.L10:
 166:../lib/STM32F10x_StdPeriph_Driver/src/stm32f10x_tim.c ****   }
 167:../lib/STM32F10x_StdPeriph_Driver/src/stm32f10x_tim.c ****   else if (TIMx == TIM9)
 161              		.loc 1 167 0
 162 0118 7A68     		ldr	r2, [r7, #4]
 163 011a 544B     		ldr	r3, .L19+28
 164 011c 9A42     		cmp	r2, r3
 165 011e 0CD1     		bne	.L11
 168:../lib/STM32F10x_StdPeriph_Driver/src/stm32f10x_tim.c ****   {      
 169:../lib/STM32F10x_StdPeriph_Driver/src/stm32f10x_tim.c ****     RCC_APB2PeriphResetCmd(RCC_APB2Periph_TIM9, ENABLE);
 166              		.loc 1 169 0
 167 0120 4FF40020 		mov	r0, #524288
 168 0124 4FF00101 		mov	r1, #1
 169 0128 FFF7FEFF 		bl	RCC_APB2PeriphResetCmd
 170:../lib/STM32F10x_StdPeriph_Driver/src/stm32f10x_tim.c ****     RCC_APB2PeriphResetCmd(RCC_APB2Periph_TIM9, DISABLE);  
 170              		.loc 1 170 0
 171 012c 4FF40020 		mov	r0, #524288
 172 0130 4FF00001 		mov	r1, #0
 173 0134 FFF7FEFF 		bl	RCC_APB2PeriphResetCmd
 174 0138 86E0     		b	.L1
 175              	.L11:
 171:../lib/STM32F10x_StdPeriph_Driver/src/stm32f10x_tim.c ****    }  
 172:../lib/STM32F10x_StdPeriph_Driver/src/stm32f10x_tim.c ****   else if (TIMx == TIM10)
 176              		.loc 1 172 0
 177 013a 7A68     		ldr	r2, [r7, #4]
 178 013c 4C4B     		ldr	r3, .L19+32
 179 013e 9A42     		cmp	r2, r3
 180 0140 0CD1     		bne	.L12
 173:../lib/STM32F10x_StdPeriph_Driver/src/stm32f10x_tim.c ****   {      
 174:../lib/STM32F10x_StdPeriph_Driver/src/stm32f10x_tim.c ****     RCC_APB2PeriphResetCmd(RCC_APB2Periph_TIM10, ENABLE);
 181              		.loc 1 174 0
 182 0142 4FF48010 		mov	r0, #1048576
 183 0146 4FF00101 		mov	r1, #1
 184 014a FFF7FEFF 		bl	RCC_APB2PeriphResetCmd
 175:../lib/STM32F10x_StdPeriph_Driver/src/stm32f10x_tim.c ****     RCC_APB2PeriphResetCmd(RCC_APB2Periph_TIM10, DISABLE);  
 185              		.loc 1 175 0
 186 014e 4FF48010 		mov	r0, #1048576
 187 0152 4FF00001 		mov	r1, #0
 188 0156 FFF7FEFF 		bl	RCC_APB2PeriphResetCmd
 189 015a 75E0     		b	.L1
 190              	.L12:
 176:../lib/STM32F10x_StdPeriph_Driver/src/stm32f10x_tim.c ****   }  
 177:../lib/STM32F10x_StdPeriph_Driver/src/stm32f10x_tim.c ****   else if (TIMx == TIM11) 
 191              		.loc 1 177 0
 192 015c 7A68     		ldr	r2, [r7, #4]
 193 015e 454B     		ldr	r3, .L19+36
 194 0160 9A42     		cmp	r2, r3
 195 0162 0CD1     		bne	.L13
 178:../lib/STM32F10x_StdPeriph_Driver/src/stm32f10x_tim.c ****   {     
 179:../lib/STM32F10x_StdPeriph_Driver/src/stm32f10x_tim.c ****     RCC_APB2PeriphResetCmd(RCC_APB2Periph_TIM11, ENABLE);
 196              		.loc 1 179 0
 197 0164 4FF40010 		mov	r0, #2097152
 198 0168 4FF00101 		mov	r1, #1
 199 016c FFF7FEFF 		bl	RCC_APB2PeriphResetCmd
 180:../lib/STM32F10x_StdPeriph_Driver/src/stm32f10x_tim.c ****     RCC_APB2PeriphResetCmd(RCC_APB2Periph_TIM11, DISABLE);  
 200              		.loc 1 180 0
 201 0170 4FF40010 		mov	r0, #2097152
 202 0174 4FF00001 		mov	r1, #0
 203 0178 FFF7FEFF 		bl	RCC_APB2PeriphResetCmd
 204 017c 64E0     		b	.L1
 205              	.L13:
 181:../lib/STM32F10x_StdPeriph_Driver/src/stm32f10x_tim.c ****   }  
 182:../lib/STM32F10x_StdPeriph_Driver/src/stm32f10x_tim.c ****   else if (TIMx == TIM12)
 206              		.loc 1 182 0
 207 017e 7A68     		ldr	r2, [r7, #4]
 208 0180 3D4B     		ldr	r3, .L19+40
 209 0182 9A42     		cmp	r2, r3
 210 0184 0CD1     		bne	.L14
 183:../lib/STM32F10x_StdPeriph_Driver/src/stm32f10x_tim.c ****   {      
 184:../lib/STM32F10x_StdPeriph_Driver/src/stm32f10x_tim.c ****     RCC_APB1PeriphResetCmd(RCC_APB1Periph_TIM12, ENABLE);
 211              		.loc 1 184 0
 212 0186 4FF04000 		mov	r0, #64
 213 018a 4FF00101 		mov	r1, #1
 214 018e FFF7FEFF 		bl	RCC_APB1PeriphResetCmd
 185:../lib/STM32F10x_StdPeriph_Driver/src/stm32f10x_tim.c ****     RCC_APB1PeriphResetCmd(RCC_APB1Periph_TIM12, DISABLE);  
 215              		.loc 1 185 0
 216 0192 4FF04000 		mov	r0, #64
 217 0196 4FF00001 		mov	r1, #0
 218 019a FFF7FEFF 		bl	RCC_APB1PeriphResetCmd
 219 019e 53E0     		b	.L1
 220              	.L14:
 186:../lib/STM32F10x_StdPeriph_Driver/src/stm32f10x_tim.c ****   }  
 187:../lib/STM32F10x_StdPeriph_Driver/src/stm32f10x_tim.c ****   else if (TIMx == TIM13) 
 221              		.loc 1 187 0
 222 01a0 7A68     		ldr	r2, [r7, #4]
 223 01a2 364B     		ldr	r3, .L19+44
 224 01a4 9A42     		cmp	r2, r3
 225 01a6 0CD1     		bne	.L15
 188:../lib/STM32F10x_StdPeriph_Driver/src/stm32f10x_tim.c ****   {       
 189:../lib/STM32F10x_StdPeriph_Driver/src/stm32f10x_tim.c ****     RCC_APB1PeriphResetCmd(RCC_APB1Periph_TIM13, ENABLE);
 226              		.loc 1 189 0
 227 01a8 4FF08000 		mov	r0, #128
 228 01ac 4FF00101 		mov	r1, #1
 229 01b0 FFF7FEFF 		bl	RCC_APB1PeriphResetCmd
 190:../lib/STM32F10x_StdPeriph_Driver/src/stm32f10x_tim.c ****     RCC_APB1PeriphResetCmd(RCC_APB1Periph_TIM13, DISABLE);  
 230              		.loc 1 190 0
 231 01b4 4FF08000 		mov	r0, #128
 232 01b8 4FF00001 		mov	r1, #0
 233 01bc FFF7FEFF 		bl	RCC_APB1PeriphResetCmd
 234 01c0 42E0     		b	.L1
 235              	.L15:
 191:../lib/STM32F10x_StdPeriph_Driver/src/stm32f10x_tim.c ****   }
 192:../lib/STM32F10x_StdPeriph_Driver/src/stm32f10x_tim.c ****   else if (TIMx == TIM14) 
 236              		.loc 1 192 0
 237 01c2 7A68     		ldr	r2, [r7, #4]
 238 01c4 2E4B     		ldr	r3, .L19+48
 239 01c6 9A42     		cmp	r2, r3
 240 01c8 0CD1     		bne	.L16
 193:../lib/STM32F10x_StdPeriph_Driver/src/stm32f10x_tim.c ****   {       
 194:../lib/STM32F10x_StdPeriph_Driver/src/stm32f10x_tim.c ****     RCC_APB1PeriphResetCmd(RCC_APB1Periph_TIM14, ENABLE);
 241              		.loc 1 194 0
 242 01ca 4FF48070 		mov	r0, #256
 243 01ce 4FF00101 		mov	r1, #1
 244 01d2 FFF7FEFF 		bl	RCC_APB1PeriphResetCmd
 195:../lib/STM32F10x_StdPeriph_Driver/src/stm32f10x_tim.c ****     RCC_APB1PeriphResetCmd(RCC_APB1Periph_TIM14, DISABLE);  
 245              		.loc 1 195 0
 246 01d6 4FF48070 		mov	r0, #256
 247 01da 4FF00001 		mov	r1, #0
 248 01de FFF7FEFF 		bl	RCC_APB1PeriphResetCmd
 249 01e2 31E0     		b	.L1
 250              	.L16:
 196:../lib/STM32F10x_StdPeriph_Driver/src/stm32f10x_tim.c ****   }        
 197:../lib/STM32F10x_StdPeriph_Driver/src/stm32f10x_tim.c ****   else if (TIMx == TIM15)
 251              		.loc 1 197 0
 252 01e4 7A68     		ldr	r2, [r7, #4]
 253 01e6 274B     		ldr	r3, .L19+52
 254 01e8 9A42     		cmp	r2, r3
 255 01ea 0CD1     		bne	.L17
 198:../lib/STM32F10x_StdPeriph_Driver/src/stm32f10x_tim.c ****   {
 199:../lib/STM32F10x_StdPeriph_Driver/src/stm32f10x_tim.c ****     RCC_APB2PeriphResetCmd(RCC_APB2Periph_TIM15, ENABLE);
 256              		.loc 1 199 0
 257 01ec 4FF48030 		mov	r0, #65536
 258 01f0 4FF00101 		mov	r1, #1
 259 01f4 FFF7FEFF 		bl	RCC_APB2PeriphResetCmd
 200:../lib/STM32F10x_StdPeriph_Driver/src/stm32f10x_tim.c ****     RCC_APB2PeriphResetCmd(RCC_APB2Periph_TIM15, DISABLE);
 260              		.loc 1 200 0
 261 01f8 4FF48030 		mov	r0, #65536
 262 01fc 4FF00001 		mov	r1, #0
 263 0200 FFF7FEFF 		bl	RCC_APB2PeriphResetCmd
 264 0204 20E0     		b	.L1
 265              	.L17:
 201:../lib/STM32F10x_StdPeriph_Driver/src/stm32f10x_tim.c ****   } 
 202:../lib/STM32F10x_StdPeriph_Driver/src/stm32f10x_tim.c ****   else if (TIMx == TIM16)
 266              		.loc 1 202 0
 267 0206 7A68     		ldr	r2, [r7, #4]
 268 0208 1F4B     		ldr	r3, .L19+56
 269 020a 9A42     		cmp	r2, r3
 270 020c 0CD1     		bne	.L18
 203:../lib/STM32F10x_StdPeriph_Driver/src/stm32f10x_tim.c ****   {
 204:../lib/STM32F10x_StdPeriph_Driver/src/stm32f10x_tim.c ****     RCC_APB2PeriphResetCmd(RCC_APB2Periph_TIM16, ENABLE);
 271              		.loc 1 204 0
 272 020e 4FF40030 		mov	r0, #131072
 273 0212 4FF00101 		mov	r1, #1
 274 0216 FFF7FEFF 		bl	RCC_APB2PeriphResetCmd
 205:../lib/STM32F10x_StdPeriph_Driver/src/stm32f10x_tim.c ****     RCC_APB2PeriphResetCmd(RCC_APB2Periph_TIM16, DISABLE);
 275              		.loc 1 205 0
 276 021a 4FF40030 		mov	r0, #131072
 277 021e 4FF00001 		mov	r1, #0
 278 0222 FFF7FEFF 		bl	RCC_APB2PeriphResetCmd
 279 0226 0FE0     		b	.L1
 280              	.L18:
 206:../lib/STM32F10x_StdPeriph_Driver/src/stm32f10x_tim.c ****   } 
 207:../lib/STM32F10x_StdPeriph_Driver/src/stm32f10x_tim.c ****   else
 208:../lib/STM32F10x_StdPeriph_Driver/src/stm32f10x_tim.c ****   {
 209:../lib/STM32F10x_StdPeriph_Driver/src/stm32f10x_tim.c ****     if (TIMx == TIM17)
 281              		.loc 1 209 0
 282 0228 7A68     		ldr	r2, [r7, #4]
 283 022a 184B     		ldr	r3, .L19+60
 284 022c 9A42     		cmp	r2, r3
 285 022e 0BD1     		bne	.L1
 210:../lib/STM32F10x_StdPeriph_Driver/src/stm32f10x_tim.c ****     {
 211:../lib/STM32F10x_StdPeriph_Driver/src/stm32f10x_tim.c ****       RCC_APB2PeriphResetCmd(RCC_APB2Periph_TIM17, ENABLE);
 286              		.loc 1 211 0
 287 0230 4FF48020 		mov	r0, #262144
 288 0234 4FF00101 		mov	r1, #1
 289 0238 FFF7FEFF 		bl	RCC_APB2PeriphResetCmd
 212:../lib/STM32F10x_StdPeriph_Driver/src/stm32f10x_tim.c ****       RCC_APB2PeriphResetCmd(RCC_APB2Periph_TIM17, DISABLE);
 290              		.loc 1 212 0
 291 023c 4FF48020 		mov	r0, #262144
 292 0240 4FF00001 		mov	r1, #0
 293 0244 FFF7FEFF 		bl	RCC_APB2PeriphResetCmd
 294              	.L1:
 213:../lib/STM32F10x_StdPeriph_Driver/src/stm32f10x_tim.c ****     }  
 214:../lib/STM32F10x_StdPeriph_Driver/src/stm32f10x_tim.c ****   }
 215:../lib/STM32F10x_StdPeriph_Driver/src/stm32f10x_tim.c **** }
 295              		.loc 1 215 0
 296 0248 07F10807 		add	r7, r7, #8
 297 024c BD46     		mov	sp, r7
 298 024e 80BD     		pop	{r7, pc}
 299              	.L20:
 300              		.align	2
 301              	.L19:
 302 0250 002C0140 		.word	1073818624
 303 0254 00040040 		.word	1073742848
 304 0258 00080040 		.word	1073743872
 305 025c 000C0040 		.word	1073744896
 306 0260 00100040 		.word	1073745920
 307 0264 00140040 		.word	1073746944
 308 0268 00340140 		.word	1073820672
 309 026c 004C0140 		.word	1073826816
 310 0270 00500140 		.word	1073827840
 311 0274 00540140 		.word	1073828864
 312 0278 00180040 		.word	1073747968
 313 027c 001C0040 		.word	1073748992
 314 0280 00200040 		.word	1073750016
 315 0284 00400140 		.word	1073823744
 316 0288 00440140 		.word	1073824768
 317 028c 00480140 		.word	1073825792
 318              		.cfi_endproc
 319              	.LFE29:
 321              		.align	2
 322              		.global	TIM_TimeBaseInit
 323              		.thumb
 324              		.thumb_func
 326              	TIM_TimeBaseInit:
 327              	.LFB30:
 216:../lib/STM32F10x_StdPeriph_Driver/src/stm32f10x_tim.c **** 
 217:../lib/STM32F10x_StdPeriph_Driver/src/stm32f10x_tim.c **** /**
 218:../lib/STM32F10x_StdPeriph_Driver/src/stm32f10x_tim.c ****   * @brief  Initializes the TIMx Time Base Unit peripheral according to 
 219:../lib/STM32F10x_StdPeriph_Driver/src/stm32f10x_tim.c ****   *         the specified parameters in the TIM_TimeBaseInitStruct.
 220:../lib/STM32F10x_StdPeriph_Driver/src/stm32f10x_tim.c ****   * @param  TIMx: where x can be 1 to 17 to select the TIM peripheral.
 221:../lib/STM32F10x_StdPeriph_Driver/src/stm32f10x_tim.c ****   * @param  TIM_TimeBaseInitStruct: pointer to a TIM_TimeBaseInitTypeDef
 222:../lib/STM32F10x_StdPeriph_Driver/src/stm32f10x_tim.c ****   *         structure that contains the configuration information for the 
 223:../lib/STM32F10x_StdPeriph_Driver/src/stm32f10x_tim.c ****   *         specified TIM peripheral.
 224:../lib/STM32F10x_StdPeriph_Driver/src/stm32f10x_tim.c ****   * @retval None
 225:../lib/STM32F10x_StdPeriph_Driver/src/stm32f10x_tim.c ****   */
 226:../lib/STM32F10x_StdPeriph_Driver/src/stm32f10x_tim.c **** void TIM_TimeBaseInit(TIM_TypeDef* TIMx, TIM_TimeBaseInitTypeDef* TIM_TimeBaseInitStruct)
 227:../lib/STM32F10x_StdPeriph_Driver/src/stm32f10x_tim.c **** {
 328              		.loc 1 227 0
 329              		.cfi_startproc
 330              		@ args = 0, pretend = 0, frame = 16
 331              		@ frame_needed = 1, uses_anonymous_args = 0
 332              		@ link register save eliminated.
 333 0290 80B4     		push	{r7}
 334              	.LCFI3:
 335              		.cfi_def_cfa_offset 4
 336              		.cfi_offset 7, -4
 337 0292 85B0     		sub	sp, sp, #20
 338              	.LCFI4:
 339              		.cfi_def_cfa_offset 24
 340 0294 00AF     		add	r7, sp, #0
 341              	.LCFI5:
 342              		.cfi_def_cfa_register 7
 343 0296 7860     		str	r0, [r7, #4]
 344 0298 3960     		str	r1, [r7, #0]
 228:../lib/STM32F10x_StdPeriph_Driver/src/stm32f10x_tim.c ****   uint16_t tmpcr1 = 0;
 345              		.loc 1 228 0
 346 029a 4FF00003 		mov	r3, #0
 347 029e FB81     		strh	r3, [r7, #14]	@ movhi
 229:../lib/STM32F10x_StdPeriph_Driver/src/stm32f10x_tim.c **** 
 230:../lib/STM32F10x_StdPeriph_Driver/src/stm32f10x_tim.c ****   /* Check the parameters */
 231:../lib/STM32F10x_StdPeriph_Driver/src/stm32f10x_tim.c ****   assert_param(IS_TIM_ALL_PERIPH(TIMx)); 
 232:../lib/STM32F10x_StdPeriph_Driver/src/stm32f10x_tim.c ****   assert_param(IS_TIM_COUNTER_MODE(TIM_TimeBaseInitStruct->TIM_CounterMode));
 233:../lib/STM32F10x_StdPeriph_Driver/src/stm32f10x_tim.c ****   assert_param(IS_TIM_CKD_DIV(TIM_TimeBaseInitStruct->TIM_ClockDivision));
 234:../lib/STM32F10x_StdPeriph_Driver/src/stm32f10x_tim.c **** 
 235:../lib/STM32F10x_StdPeriph_Driver/src/stm32f10x_tim.c ****   tmpcr1 = TIMx->CR1;  
 348              		.loc 1 235 0
 349 02a0 7B68     		ldr	r3, [r7, #4]
 350 02a2 1B88     		ldrh	r3, [r3, #0]	@ movhi
 351 02a4 FB81     		strh	r3, [r7, #14]	@ movhi
 236:../lib/STM32F10x_StdPeriph_Driver/src/stm32f10x_tim.c **** 
 237:../lib/STM32F10x_StdPeriph_Driver/src/stm32f10x_tim.c ****   if((TIMx == TIM1) || (TIMx == TIM8)|| (TIMx == TIM2) || (TIMx == TIM3)||
 352              		.loc 1 237 0
 353 02a6 7A68     		ldr	r2, [r7, #4]
 354 02a8 2E4B     		ldr	r3, .L27
 355 02aa 9A42     		cmp	r2, r3
 356 02ac 13D0     		beq	.L22
 357              		.loc 1 237 0 is_stmt 0 discriminator 1
 358 02ae 7A68     		ldr	r2, [r7, #4]
 359 02b0 2D4B     		ldr	r3, .L27+4
 360 02b2 9A42     		cmp	r2, r3
 361 02b4 0FD0     		beq	.L22
 362 02b6 7B68     		ldr	r3, [r7, #4]
 363 02b8 B3F1804F 		cmp	r3, #1073741824
 364 02bc 0BD0     		beq	.L22
 365 02be 7A68     		ldr	r2, [r7, #4]
 366 02c0 2A4B     		ldr	r3, .L27+8
 367 02c2 9A42     		cmp	r2, r3
 368 02c4 07D0     		beq	.L22
 369 02c6 7A68     		ldr	r2, [r7, #4]
 370 02c8 294B     		ldr	r3, .L27+12
 371 02ca 9A42     		cmp	r2, r3
 372 02cc 03D0     		beq	.L22
 238:../lib/STM32F10x_StdPeriph_Driver/src/stm32f10x_tim.c ****      (TIMx == TIM4) || (TIMx == TIM5)) 
 373              		.loc 1 238 0 is_stmt 1
 374 02ce 7A68     		ldr	r2, [r7, #4]
 375 02d0 284B     		ldr	r3, .L27+16
 376 02d2 9A42     		cmp	r2, r3
 377 02d4 08D1     		bne	.L23
 378              	.L22:
 239:../lib/STM32F10x_StdPeriph_Driver/src/stm32f10x_tim.c ****   {
 240:../lib/STM32F10x_StdPeriph_Driver/src/stm32f10x_tim.c ****     /* Select the Counter Mode */
 241:../lib/STM32F10x_StdPeriph_Driver/src/stm32f10x_tim.c ****     tmpcr1 &= (uint16_t)(~((uint16_t)(TIM_CR1_DIR | TIM_CR1_CMS)));
 379              		.loc 1 241 0
 380 02d6 FB89     		ldrh	r3, [r7, #14]	@ movhi
 381 02d8 23F07003 		bic	r3, r3, #112
 382 02dc FB81     		strh	r3, [r7, #14]	@ movhi
 242:../lib/STM32F10x_StdPeriph_Driver/src/stm32f10x_tim.c ****     tmpcr1 |= (uint32_t)TIM_TimeBaseInitStruct->TIM_CounterMode;
 383              		.loc 1 242 0
 384 02de 3B68     		ldr	r3, [r7, #0]
 385 02e0 5A88     		ldrh	r2, [r3, #2]
 386 02e2 FB89     		ldrh	r3, [r7, #14]	@ movhi
 387 02e4 1343     		orrs	r3, r3, r2
 388 02e6 FB81     		strh	r3, [r7, #14]	@ movhi
 389              	.L23:
 243:../lib/STM32F10x_StdPeriph_Driver/src/stm32f10x_tim.c ****   }
 244:../lib/STM32F10x_StdPeriph_Driver/src/stm32f10x_tim.c ****  
 245:../lib/STM32F10x_StdPeriph_Driver/src/stm32f10x_tim.c ****   if((TIMx != TIM6) && (TIMx != TIM7))
 390              		.loc 1 245 0
 391 02e8 7A68     		ldr	r2, [r7, #4]
 392 02ea 234B     		ldr	r3, .L27+20
 393 02ec 9A42     		cmp	r2, r3
 394 02ee 0CD0     		beq	.L24
 395              		.loc 1 245 0 is_stmt 0 discriminator 1
 396 02f0 7A68     		ldr	r2, [r7, #4]
 397 02f2 224B     		ldr	r3, .L27+24
 398 02f4 9A42     		cmp	r2, r3
 399 02f6 08D0     		beq	.L24
 246:../lib/STM32F10x_StdPeriph_Driver/src/stm32f10x_tim.c ****   {
 247:../lib/STM32F10x_StdPeriph_Driver/src/stm32f10x_tim.c ****     /* Set the clock division */
 248:../lib/STM32F10x_StdPeriph_Driver/src/stm32f10x_tim.c ****     tmpcr1 &= (uint16_t)(~((uint16_t)TIM_CR1_CKD));
 400              		.loc 1 248 0 is_stmt 1
 401 02f8 FB89     		ldrh	r3, [r7, #14]	@ movhi
 402 02fa 23F44073 		bic	r3, r3, #768
 403 02fe FB81     		strh	r3, [r7, #14]	@ movhi
 249:../lib/STM32F10x_StdPeriph_Driver/src/stm32f10x_tim.c ****     tmpcr1 |= (uint32_t)TIM_TimeBaseInitStruct->TIM_ClockDivision;
 404              		.loc 1 249 0
 405 0300 3B68     		ldr	r3, [r7, #0]
 406 0302 DA88     		ldrh	r2, [r3, #6]
 407 0304 FB89     		ldrh	r3, [r7, #14]	@ movhi
 408 0306 1343     		orrs	r3, r3, r2
 409 0308 FB81     		strh	r3, [r7, #14]	@ movhi
 410              	.L24:
 250:../lib/STM32F10x_StdPeriph_Driver/src/stm32f10x_tim.c ****   }
 251:../lib/STM32F10x_StdPeriph_Driver/src/stm32f10x_tim.c **** 
 252:../lib/STM32F10x_StdPeriph_Driver/src/stm32f10x_tim.c ****   TIMx->CR1 = tmpcr1;
 411              		.loc 1 252 0
 412 030a 7B68     		ldr	r3, [r7, #4]
 413 030c FA89     		ldrh	r2, [r7, #14]	@ movhi
 414 030e 1A80     		strh	r2, [r3, #0]	@ movhi
 253:../lib/STM32F10x_StdPeriph_Driver/src/stm32f10x_tim.c **** 
 254:../lib/STM32F10x_StdPeriph_Driver/src/stm32f10x_tim.c ****   /* Set the Autoreload value */
 255:../lib/STM32F10x_StdPeriph_Driver/src/stm32f10x_tim.c ****   TIMx->ARR = TIM_TimeBaseInitStruct->TIM_Period ;
 415              		.loc 1 255 0
 416 0310 3B68     		ldr	r3, [r7, #0]
 417 0312 9A88     		ldrh	r2, [r3, #4]
 418 0314 7B68     		ldr	r3, [r7, #4]
 419 0316 9A85     		strh	r2, [r3, #44]	@ movhi
 256:../lib/STM32F10x_StdPeriph_Driver/src/stm32f10x_tim.c ****  
 257:../lib/STM32F10x_StdPeriph_Driver/src/stm32f10x_tim.c ****   /* Set the Prescaler value */
 258:../lib/STM32F10x_StdPeriph_Driver/src/stm32f10x_tim.c ****   TIMx->PSC = TIM_TimeBaseInitStruct->TIM_Prescaler;
 420              		.loc 1 258 0
 421 0318 3B68     		ldr	r3, [r7, #0]
 422 031a 1A88     		ldrh	r2, [r3, #0]
 423 031c 7B68     		ldr	r3, [r7, #4]
 424 031e 1A85     		strh	r2, [r3, #40]	@ movhi
 259:../lib/STM32F10x_StdPeriph_Driver/src/stm32f10x_tim.c ****     
 260:../lib/STM32F10x_StdPeriph_Driver/src/stm32f10x_tim.c ****   if ((TIMx == TIM1) || (TIMx == TIM8)|| (TIMx == TIM15)|| (TIMx == TIM16) || (TIMx == TIM17))  
 425              		.loc 1 260 0
 426 0320 7A68     		ldr	r2, [r7, #4]
 427 0322 104B     		ldr	r3, .L27
 428 0324 9A42     		cmp	r2, r3
 429 0326 0FD0     		beq	.L25
 430              		.loc 1 260 0 is_stmt 0 discriminator 1
 431 0328 7A68     		ldr	r2, [r7, #4]
 432 032a 0F4B     		ldr	r3, .L27+4
 433 032c 9A42     		cmp	r2, r3
 434 032e 0BD0     		beq	.L25
 435 0330 7A68     		ldr	r2, [r7, #4]
 436 0332 134B     		ldr	r3, .L27+28
 437 0334 9A42     		cmp	r2, r3
 438 0336 07D0     		beq	.L25
 439 0338 7A68     		ldr	r2, [r7, #4]
 440 033a 124B     		ldr	r3, .L27+32
 441 033c 9A42     		cmp	r2, r3
 442 033e 03D0     		beq	.L25
 443 0340 7A68     		ldr	r2, [r7, #4]
 444 0342 114B     		ldr	r3, .L27+36
 445 0344 9A42     		cmp	r2, r3
 446 0346 04D1     		bne	.L26
 447              	.L25:
 261:../lib/STM32F10x_StdPeriph_Driver/src/stm32f10x_tim.c ****   {
 262:../lib/STM32F10x_StdPeriph_Driver/src/stm32f10x_tim.c ****     /* Set the Repetition Counter value */
 263:../lib/STM32F10x_StdPeriph_Driver/src/stm32f10x_tim.c ****     TIMx->RCR = TIM_TimeBaseInitStruct->TIM_RepetitionCounter;
 448              		.loc 1 263 0 is_stmt 1
 449 0348 3B68     		ldr	r3, [r7, #0]
 450 034a 1B7A     		ldrb	r3, [r3, #8]	@ zero_extendqisi2
 451 034c 1A46     		mov	r2, r3
 452 034e 7B68     		ldr	r3, [r7, #4]
 453 0350 1A86     		strh	r2, [r3, #48]	@ movhi
 454              	.L26:
 264:../lib/STM32F10x_StdPeriph_Driver/src/stm32f10x_tim.c ****   }
 265:../lib/STM32F10x_StdPeriph_Driver/src/stm32f10x_tim.c **** 
 266:../lib/STM32F10x_StdPeriph_Driver/src/stm32f10x_tim.c ****   /* Generate an update event to reload the Prescaler and the Repetition counter
 267:../lib/STM32F10x_StdPeriph_Driver/src/stm32f10x_tim.c ****      values immediately */
 268:../lib/STM32F10x_StdPeriph_Driver/src/stm32f10x_tim.c ****   TIMx->EGR = TIM_PSCReloadMode_Immediate;           
 455              		.loc 1 268 0
 456 0352 7B68     		ldr	r3, [r7, #4]
 457 0354 4FF00102 		mov	r2, #1
 458 0358 9A82     		strh	r2, [r3, #20]	@ movhi
 269:../lib/STM32F10x_StdPeriph_Driver/src/stm32f10x_tim.c **** }
 459              		.loc 1 269 0
 460 035a 07F11407 		add	r7, r7, #20
 461 035e BD46     		mov	sp, r7
 462 0360 80BC     		pop	{r7}
 463 0362 7047     		bx	lr
 464              	.L28:
 465              		.align	2
 466              	.L27:
 467 0364 002C0140 		.word	1073818624
 468 0368 00340140 		.word	1073820672
 469 036c 00040040 		.word	1073742848
 470 0370 00080040 		.word	1073743872
 471 0374 000C0040 		.word	1073744896
 472 0378 00100040 		.word	1073745920
 473 037c 00140040 		.word	1073746944
 474 0380 00400140 		.word	1073823744
 475 0384 00440140 		.word	1073824768
 476 0388 00480140 		.word	1073825792
 477              		.cfi_endproc
 478              	.LFE30:
 480              		.align	2
 481              		.global	TIM_OC1Init
 482              		.thumb
 483              		.thumb_func
 485              	TIM_OC1Init:
 486              	.LFB31:
 270:../lib/STM32F10x_StdPeriph_Driver/src/stm32f10x_tim.c **** 
 271:../lib/STM32F10x_StdPeriph_Driver/src/stm32f10x_tim.c **** /**
 272:../lib/STM32F10x_StdPeriph_Driver/src/stm32f10x_tim.c ****   * @brief  Initializes the TIMx Channel1 according to the specified
 273:../lib/STM32F10x_StdPeriph_Driver/src/stm32f10x_tim.c ****   *         parameters in the TIM_OCInitStruct.
 274:../lib/STM32F10x_StdPeriph_Driver/src/stm32f10x_tim.c ****   * @param  TIMx: where x can be  1 to 17 except 6 and 7 to select the TIM peripheral.
 275:../lib/STM32F10x_StdPeriph_Driver/src/stm32f10x_tim.c ****   * @param  TIM_OCInitStruct: pointer to a TIM_OCInitTypeDef structure
 276:../lib/STM32F10x_StdPeriph_Driver/src/stm32f10x_tim.c ****   *         that contains the configuration information for the specified TIM peripheral.
 277:../lib/STM32F10x_StdPeriph_Driver/src/stm32f10x_tim.c ****   * @retval None
 278:../lib/STM32F10x_StdPeriph_Driver/src/stm32f10x_tim.c ****   */
 279:../lib/STM32F10x_StdPeriph_Driver/src/stm32f10x_tim.c **** void TIM_OC1Init(TIM_TypeDef* TIMx, TIM_OCInitTypeDef* TIM_OCInitStruct)
 280:../lib/STM32F10x_StdPeriph_Driver/src/stm32f10x_tim.c **** {
 487              		.loc 1 280 0
 488              		.cfi_startproc
 489              		@ args = 0, pretend = 0, frame = 16
 490              		@ frame_needed = 1, uses_anonymous_args = 0
 491              		@ link register save eliminated.
 492 038c 80B4     		push	{r7}
 493              	.LCFI6:
 494              		.cfi_def_cfa_offset 4
 495              		.cfi_offset 7, -4
 496 038e 85B0     		sub	sp, sp, #20
 497              	.LCFI7:
 498              		.cfi_def_cfa_offset 24
 499 0390 00AF     		add	r7, sp, #0
 500              	.LCFI8:
 501              		.cfi_def_cfa_register 7
 502 0392 7860     		str	r0, [r7, #4]
 503 0394 3960     		str	r1, [r7, #0]
 281:../lib/STM32F10x_StdPeriph_Driver/src/stm32f10x_tim.c ****   uint16_t tmpccmrx = 0, tmpccer = 0, tmpcr2 = 0;
 504              		.loc 1 281 0
 505 0396 4FF00003 		mov	r3, #0
 506 039a 7B81     		strh	r3, [r7, #10]	@ movhi
 507 039c 4FF00003 		mov	r3, #0
 508 03a0 FB81     		strh	r3, [r7, #14]	@ movhi
 509 03a2 4FF00003 		mov	r3, #0
 510 03a6 BB81     		strh	r3, [r7, #12]	@ movhi
 282:../lib/STM32F10x_StdPeriph_Driver/src/stm32f10x_tim.c ****    
 283:../lib/STM32F10x_StdPeriph_Driver/src/stm32f10x_tim.c ****   /* Check the parameters */
 284:../lib/STM32F10x_StdPeriph_Driver/src/stm32f10x_tim.c ****   assert_param(IS_TIM_LIST8_PERIPH(TIMx));
 285:../lib/STM32F10x_StdPeriph_Driver/src/stm32f10x_tim.c ****   assert_param(IS_TIM_OC_MODE(TIM_OCInitStruct->TIM_OCMode));
 286:../lib/STM32F10x_StdPeriph_Driver/src/stm32f10x_tim.c ****   assert_param(IS_TIM_OUTPUT_STATE(TIM_OCInitStruct->TIM_OutputState));
 287:../lib/STM32F10x_StdPeriph_Driver/src/stm32f10x_tim.c ****   assert_param(IS_TIM_OC_POLARITY(TIM_OCInitStruct->TIM_OCPolarity));   
 288:../lib/STM32F10x_StdPeriph_Driver/src/stm32f10x_tim.c ****  /* Disable the Channel 1: Reset the CC1E Bit */
 289:../lib/STM32F10x_StdPeriph_Driver/src/stm32f10x_tim.c ****   TIMx->CCER &= (uint16_t)(~(uint16_t)TIM_CCER_CC1E);
 511              		.loc 1 289 0
 512 03a8 7B68     		ldr	r3, [r7, #4]
 513 03aa 1B8C     		ldrh	r3, [r3, #32]	@ movhi
 514 03ac 9BB2     		uxth	r3, r3
 515 03ae 23F00103 		bic	r3, r3, #1
 516 03b2 9AB2     		uxth	r2, r3
 517 03b4 7B68     		ldr	r3, [r7, #4]
 518 03b6 1A84     		strh	r2, [r3, #32]	@ movhi
 290:../lib/STM32F10x_StdPeriph_Driver/src/stm32f10x_tim.c ****   /* Get the TIMx CCER register value */
 291:../lib/STM32F10x_StdPeriph_Driver/src/stm32f10x_tim.c ****   tmpccer = TIMx->CCER;
 519              		.loc 1 291 0
 520 03b8 7B68     		ldr	r3, [r7, #4]
 521 03ba 1B8C     		ldrh	r3, [r3, #32]	@ movhi
 522 03bc FB81     		strh	r3, [r7, #14]	@ movhi
 292:../lib/STM32F10x_StdPeriph_Driver/src/stm32f10x_tim.c ****   /* Get the TIMx CR2 register value */
 293:../lib/STM32F10x_StdPeriph_Driver/src/stm32f10x_tim.c ****   tmpcr2 =  TIMx->CR2;
 523              		.loc 1 293 0
 524 03be 7B68     		ldr	r3, [r7, #4]
 525 03c0 9B88     		ldrh	r3, [r3, #4]	@ movhi
 526 03c2 BB81     		strh	r3, [r7, #12]	@ movhi
 294:../lib/STM32F10x_StdPeriph_Driver/src/stm32f10x_tim.c ****   
 295:../lib/STM32F10x_StdPeriph_Driver/src/stm32f10x_tim.c ****   /* Get the TIMx CCMR1 register value */
 296:../lib/STM32F10x_StdPeriph_Driver/src/stm32f10x_tim.c ****   tmpccmrx = TIMx->CCMR1;
 527              		.loc 1 296 0
 528 03c4 7B68     		ldr	r3, [r7, #4]
 529 03c6 1B8B     		ldrh	r3, [r3, #24]	@ movhi
 530 03c8 7B81     		strh	r3, [r7, #10]	@ movhi
 297:../lib/STM32F10x_StdPeriph_Driver/src/stm32f10x_tim.c ****     
 298:../lib/STM32F10x_StdPeriph_Driver/src/stm32f10x_tim.c ****   /* Reset the Output Compare Mode Bits */
 299:../lib/STM32F10x_StdPeriph_Driver/src/stm32f10x_tim.c ****   tmpccmrx &= (uint16_t)(~((uint16_t)TIM_CCMR1_OC1M));
 531              		.loc 1 299 0
 532 03ca 7B89     		ldrh	r3, [r7, #10]	@ movhi
 533 03cc 23F07003 		bic	r3, r3, #112
 534 03d0 7B81     		strh	r3, [r7, #10]	@ movhi
 300:../lib/STM32F10x_StdPeriph_Driver/src/stm32f10x_tim.c ****   tmpccmrx &= (uint16_t)(~((uint16_t)TIM_CCMR1_CC1S));
 535              		.loc 1 300 0
 536 03d2 7B89     		ldrh	r3, [r7, #10]	@ movhi
 537 03d4 23F00303 		bic	r3, r3, #3
 538 03d8 7B81     		strh	r3, [r7, #10]	@ movhi
 301:../lib/STM32F10x_StdPeriph_Driver/src/stm32f10x_tim.c **** 
 302:../lib/STM32F10x_StdPeriph_Driver/src/stm32f10x_tim.c ****   /* Select the Output Compare Mode */
 303:../lib/STM32F10x_StdPeriph_Driver/src/stm32f10x_tim.c ****   tmpccmrx |= TIM_OCInitStruct->TIM_OCMode;
 539              		.loc 1 303 0
 540 03da 3B68     		ldr	r3, [r7, #0]
 541 03dc 1A88     		ldrh	r2, [r3, #0]
 542 03de 7B89     		ldrh	r3, [r7, #10]	@ movhi
 543 03e0 1343     		orrs	r3, r3, r2
 544 03e2 7B81     		strh	r3, [r7, #10]	@ movhi
 304:../lib/STM32F10x_StdPeriph_Driver/src/stm32f10x_tim.c ****   
 305:../lib/STM32F10x_StdPeriph_Driver/src/stm32f10x_tim.c ****   /* Reset the Output Polarity level */
 306:../lib/STM32F10x_StdPeriph_Driver/src/stm32f10x_tim.c ****   tmpccer &= (uint16_t)(~((uint16_t)TIM_CCER_CC1P));
 545              		.loc 1 306 0
 546 03e4 FB89     		ldrh	r3, [r7, #14]	@ movhi
 547 03e6 23F00203 		bic	r3, r3, #2
 548 03ea FB81     		strh	r3, [r7, #14]	@ movhi
 307:../lib/STM32F10x_StdPeriph_Driver/src/stm32f10x_tim.c ****   /* Set the Output Compare Polarity */
 308:../lib/STM32F10x_StdPeriph_Driver/src/stm32f10x_tim.c ****   tmpccer |= TIM_OCInitStruct->TIM_OCPolarity;
 549              		.loc 1 308 0
 550 03ec 3B68     		ldr	r3, [r7, #0]
 551 03ee 1A89     		ldrh	r2, [r3, #8]
 552 03f0 FB89     		ldrh	r3, [r7, #14]	@ movhi
 553 03f2 1343     		orrs	r3, r3, r2
 554 03f4 FB81     		strh	r3, [r7, #14]	@ movhi
 309:../lib/STM32F10x_StdPeriph_Driver/src/stm32f10x_tim.c ****   
 310:../lib/STM32F10x_StdPeriph_Driver/src/stm32f10x_tim.c ****   /* Set the Output State */
 311:../lib/STM32F10x_StdPeriph_Driver/src/stm32f10x_tim.c ****   tmpccer |= TIM_OCInitStruct->TIM_OutputState;
 555              		.loc 1 311 0
 556 03f6 3B68     		ldr	r3, [r7, #0]
 557 03f8 5A88     		ldrh	r2, [r3, #2]
 558 03fa FB89     		ldrh	r3, [r7, #14]	@ movhi
 559 03fc 1343     		orrs	r3, r3, r2
 560 03fe FB81     		strh	r3, [r7, #14]	@ movhi
 312:../lib/STM32F10x_StdPeriph_Driver/src/stm32f10x_tim.c ****     
 313:../lib/STM32F10x_StdPeriph_Driver/src/stm32f10x_tim.c ****   if((TIMx == TIM1) || (TIMx == TIM8)|| (TIMx == TIM15)||
 561              		.loc 1 313 0
 562 0400 7A68     		ldr	r2, [r7, #4]
 563 0402 244B     		ldr	r3, .L32
 564 0404 9A42     		cmp	r2, r3
 565 0406 0FD0     		beq	.L30
 566              		.loc 1 313 0 is_stmt 0 discriminator 1
 567 0408 7A68     		ldr	r2, [r7, #4]
 568 040a 234B     		ldr	r3, .L32+4
 569 040c 9A42     		cmp	r2, r3
 570 040e 0BD0     		beq	.L30
 571 0410 7A68     		ldr	r2, [r7, #4]
 572 0412 224B     		ldr	r3, .L32+8
 573 0414 9A42     		cmp	r2, r3
 574 0416 07D0     		beq	.L30
 575 0418 7A68     		ldr	r2, [r7, #4]
 576 041a 214B     		ldr	r3, .L32+12
 577 041c 9A42     		cmp	r2, r3
 578 041e 03D0     		beq	.L30
 314:../lib/STM32F10x_StdPeriph_Driver/src/stm32f10x_tim.c ****      (TIMx == TIM16)|| (TIMx == TIM17))
 579              		.loc 1 314 0 is_stmt 1
 580 0420 7A68     		ldr	r2, [r7, #4]
 581 0422 204B     		ldr	r3, .L32+16
 582 0424 9A42     		cmp	r2, r3
 583 0426 23D1     		bne	.L31
 584              	.L30:
 315:../lib/STM32F10x_StdPeriph_Driver/src/stm32f10x_tim.c ****   {
 316:../lib/STM32F10x_StdPeriph_Driver/src/stm32f10x_tim.c ****     assert_param(IS_TIM_OUTPUTN_STATE(TIM_OCInitStruct->TIM_OutputNState));
 317:../lib/STM32F10x_StdPeriph_Driver/src/stm32f10x_tim.c ****     assert_param(IS_TIM_OCN_POLARITY(TIM_OCInitStruct->TIM_OCNPolarity));
 318:../lib/STM32F10x_StdPeriph_Driver/src/stm32f10x_tim.c ****     assert_param(IS_TIM_OCNIDLE_STATE(TIM_OCInitStruct->TIM_OCNIdleState));
 319:../lib/STM32F10x_StdPeriph_Driver/src/stm32f10x_tim.c ****     assert_param(IS_TIM_OCIDLE_STATE(TIM_OCInitStruct->TIM_OCIdleState));
 320:../lib/STM32F10x_StdPeriph_Driver/src/stm32f10x_tim.c ****     
 321:../lib/STM32F10x_StdPeriph_Driver/src/stm32f10x_tim.c ****     /* Reset the Output N Polarity level */
 322:../lib/STM32F10x_StdPeriph_Driver/src/stm32f10x_tim.c ****     tmpccer &= (uint16_t)(~((uint16_t)TIM_CCER_CC1NP));
 585              		.loc 1 322 0
 586 0428 FB89     		ldrh	r3, [r7, #14]	@ movhi
 587 042a 23F00803 		bic	r3, r3, #8
 588 042e FB81     		strh	r3, [r7, #14]	@ movhi
 323:../lib/STM32F10x_StdPeriph_Driver/src/stm32f10x_tim.c ****     /* Set the Output N Polarity */
 324:../lib/STM32F10x_StdPeriph_Driver/src/stm32f10x_tim.c ****     tmpccer |= TIM_OCInitStruct->TIM_OCNPolarity;
 589              		.loc 1 324 0
 590 0430 3B68     		ldr	r3, [r7, #0]
 591 0432 5A89     		ldrh	r2, [r3, #10]
 592 0434 FB89     		ldrh	r3, [r7, #14]	@ movhi
 593 0436 1343     		orrs	r3, r3, r2
 594 0438 FB81     		strh	r3, [r7, #14]	@ movhi
 325:../lib/STM32F10x_StdPeriph_Driver/src/stm32f10x_tim.c ****     
 326:../lib/STM32F10x_StdPeriph_Driver/src/stm32f10x_tim.c ****     /* Reset the Output N State */
 327:../lib/STM32F10x_StdPeriph_Driver/src/stm32f10x_tim.c ****     tmpccer &= (uint16_t)(~((uint16_t)TIM_CCER_CC1NE));    
 595              		.loc 1 327 0
 596 043a FB89     		ldrh	r3, [r7, #14]	@ movhi
 597 043c 23F00403 		bic	r3, r3, #4
 598 0440 FB81     		strh	r3, [r7, #14]	@ movhi
 328:../lib/STM32F10x_StdPeriph_Driver/src/stm32f10x_tim.c ****     /* Set the Output N State */
 329:../lib/STM32F10x_StdPeriph_Driver/src/stm32f10x_tim.c ****     tmpccer |= TIM_OCInitStruct->TIM_OutputNState;
 599              		.loc 1 329 0
 600 0442 3B68     		ldr	r3, [r7, #0]
 601 0444 9A88     		ldrh	r2, [r3, #4]
 602 0446 FB89     		ldrh	r3, [r7, #14]	@ movhi
 603 0448 1343     		orrs	r3, r3, r2
 604 044a FB81     		strh	r3, [r7, #14]	@ movhi
 330:../lib/STM32F10x_StdPeriph_Driver/src/stm32f10x_tim.c ****     
 331:../lib/STM32F10x_StdPeriph_Driver/src/stm32f10x_tim.c ****     /* Reset the Output Compare and Output Compare N IDLE State */
 332:../lib/STM32F10x_StdPeriph_Driver/src/stm32f10x_tim.c ****     tmpcr2 &= (uint16_t)(~((uint16_t)TIM_CR2_OIS1));
 605              		.loc 1 332 0
 606 044c BB89     		ldrh	r3, [r7, #12]	@ movhi
 607 044e 23F48073 		bic	r3, r3, #256
 608 0452 BB81     		strh	r3, [r7, #12]	@ movhi
 333:../lib/STM32F10x_StdPeriph_Driver/src/stm32f10x_tim.c ****     tmpcr2 &= (uint16_t)(~((uint16_t)TIM_CR2_OIS1N));
 609              		.loc 1 333 0
 610 0454 BB89     		ldrh	r3, [r7, #12]	@ movhi
 611 0456 23F40073 		bic	r3, r3, #512
 612 045a BB81     		strh	r3, [r7, #12]	@ movhi
 334:../lib/STM32F10x_StdPeriph_Driver/src/stm32f10x_tim.c ****     
 335:../lib/STM32F10x_StdPeriph_Driver/src/stm32f10x_tim.c ****     /* Set the Output Idle state */
 336:../lib/STM32F10x_StdPeriph_Driver/src/stm32f10x_tim.c ****     tmpcr2 |= TIM_OCInitStruct->TIM_OCIdleState;
 613              		.loc 1 336 0
 614 045c 3B68     		ldr	r3, [r7, #0]
 615 045e 9A89     		ldrh	r2, [r3, #12]
 616 0460 BB89     		ldrh	r3, [r7, #12]	@ movhi
 617 0462 1343     		orrs	r3, r3, r2
 618 0464 BB81     		strh	r3, [r7, #12]	@ movhi
 337:../lib/STM32F10x_StdPeriph_Driver/src/stm32f10x_tim.c ****     /* Set the Output N Idle state */
 338:../lib/STM32F10x_StdPeriph_Driver/src/stm32f10x_tim.c ****     tmpcr2 |= TIM_OCInitStruct->TIM_OCNIdleState;
 619              		.loc 1 338 0
 620 0466 3B68     		ldr	r3, [r7, #0]
 621 0468 DA89     		ldrh	r2, [r3, #14]
 622 046a BB89     		ldrh	r3, [r7, #12]	@ movhi
 623 046c 1343     		orrs	r3, r3, r2
 624 046e BB81     		strh	r3, [r7, #12]	@ movhi
 625              	.L31:
 339:../lib/STM32F10x_StdPeriph_Driver/src/stm32f10x_tim.c ****   }
 340:../lib/STM32F10x_StdPeriph_Driver/src/stm32f10x_tim.c ****   /* Write to TIMx CR2 */
 341:../lib/STM32F10x_StdPeriph_Driver/src/stm32f10x_tim.c ****   TIMx->CR2 = tmpcr2;
 626              		.loc 1 341 0
 627 0470 7B68     		ldr	r3, [r7, #4]
 628 0472 BA89     		ldrh	r2, [r7, #12]	@ movhi
 629 0474 9A80     		strh	r2, [r3, #4]	@ movhi
 342:../lib/STM32F10x_StdPeriph_Driver/src/stm32f10x_tim.c ****   
 343:../lib/STM32F10x_StdPeriph_Driver/src/stm32f10x_tim.c ****   /* Write to TIMx CCMR1 */
 344:../lib/STM32F10x_StdPeriph_Driver/src/stm32f10x_tim.c ****   TIMx->CCMR1 = tmpccmrx;
 630              		.loc 1 344 0
 631 0476 7B68     		ldr	r3, [r7, #4]
 632 0478 7A89     		ldrh	r2, [r7, #10]	@ movhi
 633 047a 1A83     		strh	r2, [r3, #24]	@ movhi
 345:../lib/STM32F10x_StdPeriph_Driver/src/stm32f10x_tim.c **** 
 346:../lib/STM32F10x_StdPeriph_Driver/src/stm32f10x_tim.c ****   /* Set the Capture Compare Register value */
 347:../lib/STM32F10x_StdPeriph_Driver/src/stm32f10x_tim.c ****   TIMx->CCR1 = TIM_OCInitStruct->TIM_Pulse; 
 634              		.loc 1 347 0
 635 047c 3B68     		ldr	r3, [r7, #0]
 636 047e DA88     		ldrh	r2, [r3, #6]
 637 0480 7B68     		ldr	r3, [r7, #4]
 638 0482 9A86     		strh	r2, [r3, #52]	@ movhi
 348:../lib/STM32F10x_StdPeriph_Driver/src/stm32f10x_tim.c ****  
 349:../lib/STM32F10x_StdPeriph_Driver/src/stm32f10x_tim.c ****   /* Write to TIMx CCER */
 350:../lib/STM32F10x_StdPeriph_Driver/src/stm32f10x_tim.c ****   TIMx->CCER = tmpccer;
 639              		.loc 1 350 0
 640 0484 7B68     		ldr	r3, [r7, #4]
 641 0486 FA89     		ldrh	r2, [r7, #14]	@ movhi
 642 0488 1A84     		strh	r2, [r3, #32]	@ movhi
 351:../lib/STM32F10x_StdPeriph_Driver/src/stm32f10x_tim.c **** }
 643              		.loc 1 351 0
 644 048a 07F11407 		add	r7, r7, #20
 645 048e BD46     		mov	sp, r7
 646 0490 80BC     		pop	{r7}
 647 0492 7047     		bx	lr
 648              	.L33:
 649              		.align	2
 650              	.L32:
 651 0494 002C0140 		.word	1073818624
 652 0498 00340140 		.word	1073820672
 653 049c 00400140 		.word	1073823744
 654 04a0 00440140 		.word	1073824768
 655 04a4 00480140 		.word	1073825792
 656              		.cfi_endproc
 657              	.LFE31:
 659              		.align	2
 660              		.global	TIM_OC2Init
 661              		.thumb
 662              		.thumb_func
 664              	TIM_OC2Init:
 665              	.LFB32:
 352:../lib/STM32F10x_StdPeriph_Driver/src/stm32f10x_tim.c **** 
 353:../lib/STM32F10x_StdPeriph_Driver/src/stm32f10x_tim.c **** /**
 354:../lib/STM32F10x_StdPeriph_Driver/src/stm32f10x_tim.c ****   * @brief  Initializes the TIMx Channel2 according to the specified
 355:../lib/STM32F10x_StdPeriph_Driver/src/stm32f10x_tim.c ****   *         parameters in the TIM_OCInitStruct.
 356:../lib/STM32F10x_StdPeriph_Driver/src/stm32f10x_tim.c ****   * @param  TIMx: where x can be  1, 2, 3, 4, 5, 8, 9, 12 or 15 to select 
 357:../lib/STM32F10x_StdPeriph_Driver/src/stm32f10x_tim.c ****   *         the TIM peripheral.
 358:../lib/STM32F10x_StdPeriph_Driver/src/stm32f10x_tim.c ****   * @param  TIM_OCInitStruct: pointer to a TIM_OCInitTypeDef structure
 359:../lib/STM32F10x_StdPeriph_Driver/src/stm32f10x_tim.c ****   *         that contains the configuration information for the specified TIM peripheral.
 360:../lib/STM32F10x_StdPeriph_Driver/src/stm32f10x_tim.c ****   * @retval None
 361:../lib/STM32F10x_StdPeriph_Driver/src/stm32f10x_tim.c ****   */
 362:../lib/STM32F10x_StdPeriph_Driver/src/stm32f10x_tim.c **** void TIM_OC2Init(TIM_TypeDef* TIMx, TIM_OCInitTypeDef* TIM_OCInitStruct)
 363:../lib/STM32F10x_StdPeriph_Driver/src/stm32f10x_tim.c **** {
 666              		.loc 1 363 0
 667              		.cfi_startproc
 668              		@ args = 0, pretend = 0, frame = 16
 669              		@ frame_needed = 1, uses_anonymous_args = 0
 670              		@ link register save eliminated.
 671 04a8 80B4     		push	{r7}
 672              	.LCFI9:
 673              		.cfi_def_cfa_offset 4
 674              		.cfi_offset 7, -4
 675 04aa 85B0     		sub	sp, sp, #20
 676              	.LCFI10:
 677              		.cfi_def_cfa_offset 24
 678 04ac 00AF     		add	r7, sp, #0
 679              	.LCFI11:
 680              		.cfi_def_cfa_register 7
 681 04ae 7860     		str	r0, [r7, #4]
 682 04b0 3960     		str	r1, [r7, #0]
 364:../lib/STM32F10x_StdPeriph_Driver/src/stm32f10x_tim.c ****   uint16_t tmpccmrx = 0, tmpccer = 0, tmpcr2 = 0;
 683              		.loc 1 364 0
 684 04b2 4FF00003 		mov	r3, #0
 685 04b6 7B81     		strh	r3, [r7, #10]	@ movhi
 686 04b8 4FF00003 		mov	r3, #0
 687 04bc FB81     		strh	r3, [r7, #14]	@ movhi
 688 04be 4FF00003 		mov	r3, #0
 689 04c2 BB81     		strh	r3, [r7, #12]	@ movhi
 365:../lib/STM32F10x_StdPeriph_Driver/src/stm32f10x_tim.c ****    
 366:../lib/STM32F10x_StdPeriph_Driver/src/stm32f10x_tim.c ****   /* Check the parameters */
 367:../lib/STM32F10x_StdPeriph_Driver/src/stm32f10x_tim.c ****   assert_param(IS_TIM_LIST6_PERIPH(TIMx)); 
 368:../lib/STM32F10x_StdPeriph_Driver/src/stm32f10x_tim.c ****   assert_param(IS_TIM_OC_MODE(TIM_OCInitStruct->TIM_OCMode));
 369:../lib/STM32F10x_StdPeriph_Driver/src/stm32f10x_tim.c ****   assert_param(IS_TIM_OUTPUT_STATE(TIM_OCInitStruct->TIM_OutputState));
 370:../lib/STM32F10x_StdPeriph_Driver/src/stm32f10x_tim.c ****   assert_param(IS_TIM_OC_POLARITY(TIM_OCInitStruct->TIM_OCPolarity));   
 371:../lib/STM32F10x_StdPeriph_Driver/src/stm32f10x_tim.c ****    /* Disable the Channel 2: Reset the CC2E Bit */
 372:../lib/STM32F10x_StdPeriph_Driver/src/stm32f10x_tim.c ****   TIMx->CCER &= (uint16_t)(~((uint16_t)TIM_CCER_CC2E));
 690              		.loc 1 372 0
 691 04c4 7B68     		ldr	r3, [r7, #4]
 692 04c6 1B8C     		ldrh	r3, [r3, #32]	@ movhi
 693 04c8 9BB2     		uxth	r3, r3
 694 04ca 23F01003 		bic	r3, r3, #16
 695 04ce 9AB2     		uxth	r2, r3
 696 04d0 7B68     		ldr	r3, [r7, #4]
 697 04d2 1A84     		strh	r2, [r3, #32]	@ movhi
 373:../lib/STM32F10x_StdPeriph_Driver/src/stm32f10x_tim.c ****   
 374:../lib/STM32F10x_StdPeriph_Driver/src/stm32f10x_tim.c ****   /* Get the TIMx CCER register value */  
 375:../lib/STM32F10x_StdPeriph_Driver/src/stm32f10x_tim.c ****   tmpccer = TIMx->CCER;
 698              		.loc 1 375 0
 699 04d4 7B68     		ldr	r3, [r7, #4]
 700 04d6 1B8C     		ldrh	r3, [r3, #32]	@ movhi
 701 04d8 FB81     		strh	r3, [r7, #14]	@ movhi
 376:../lib/STM32F10x_StdPeriph_Driver/src/stm32f10x_tim.c ****   /* Get the TIMx CR2 register value */
 377:../lib/STM32F10x_StdPeriph_Driver/src/stm32f10x_tim.c ****   tmpcr2 =  TIMx->CR2;
 702              		.loc 1 377 0
 703 04da 7B68     		ldr	r3, [r7, #4]
 704 04dc 9B88     		ldrh	r3, [r3, #4]	@ movhi
 705 04de BB81     		strh	r3, [r7, #12]	@ movhi
 378:../lib/STM32F10x_StdPeriph_Driver/src/stm32f10x_tim.c ****   
 379:../lib/STM32F10x_StdPeriph_Driver/src/stm32f10x_tim.c ****   /* Get the TIMx CCMR1 register value */
 380:../lib/STM32F10x_StdPeriph_Driver/src/stm32f10x_tim.c ****   tmpccmrx = TIMx->CCMR1;
 706              		.loc 1 380 0
 707 04e0 7B68     		ldr	r3, [r7, #4]
 708 04e2 1B8B     		ldrh	r3, [r3, #24]	@ movhi
 709 04e4 7B81     		strh	r3, [r7, #10]	@ movhi
 381:../lib/STM32F10x_StdPeriph_Driver/src/stm32f10x_tim.c ****     
 382:../lib/STM32F10x_StdPeriph_Driver/src/stm32f10x_tim.c ****   /* Reset the Output Compare mode and Capture/Compare selection Bits */
 383:../lib/STM32F10x_StdPeriph_Driver/src/stm32f10x_tim.c ****   tmpccmrx &= (uint16_t)(~((uint16_t)TIM_CCMR1_OC2M));
 710              		.loc 1 383 0
 711 04e6 7B89     		ldrh	r3, [r7, #10]	@ movhi
 712 04e8 23F4E043 		bic	r3, r3, #28672
 713 04ec 7B81     		strh	r3, [r7, #10]	@ movhi
 384:../lib/STM32F10x_StdPeriph_Driver/src/stm32f10x_tim.c ****   tmpccmrx &= (uint16_t)(~((uint16_t)TIM_CCMR1_CC2S));
 714              		.loc 1 384 0
 715 04ee 7B89     		ldrh	r3, [r7, #10]	@ movhi
 716 04f0 23F44073 		bic	r3, r3, #768
 717 04f4 7B81     		strh	r3, [r7, #10]	@ movhi
 385:../lib/STM32F10x_StdPeriph_Driver/src/stm32f10x_tim.c ****   
 386:../lib/STM32F10x_StdPeriph_Driver/src/stm32f10x_tim.c ****   /* Select the Output Compare Mode */
 387:../lib/STM32F10x_StdPeriph_Driver/src/stm32f10x_tim.c ****   tmpccmrx |= (uint16_t)(TIM_OCInitStruct->TIM_OCMode << 8);
 718              		.loc 1 387 0
 719 04f6 3B68     		ldr	r3, [r7, #0]
 720 04f8 1B88     		ldrh	r3, [r3, #0]
 721 04fa 4FEA0323 		lsl	r3, r3, #8
 722 04fe 9AB2     		uxth	r2, r3
 723 0500 7B89     		ldrh	r3, [r7, #10]	@ movhi
 724 0502 1343     		orrs	r3, r3, r2
 725 0504 7B81     		strh	r3, [r7, #10]	@ movhi
 388:../lib/STM32F10x_StdPeriph_Driver/src/stm32f10x_tim.c ****   
 389:../lib/STM32F10x_StdPeriph_Driver/src/stm32f10x_tim.c ****   /* Reset the Output Polarity level */
 390:../lib/STM32F10x_StdPeriph_Driver/src/stm32f10x_tim.c ****   tmpccer &= (uint16_t)(~((uint16_t)TIM_CCER_CC2P));
 726              		.loc 1 390 0
 727 0506 FB89     		ldrh	r3, [r7, #14]	@ movhi
 728 0508 23F02003 		bic	r3, r3, #32
 729 050c FB81     		strh	r3, [r7, #14]	@ movhi
 391:../lib/STM32F10x_StdPeriph_Driver/src/stm32f10x_tim.c ****   /* Set the Output Compare Polarity */
 392:../lib/STM32F10x_StdPeriph_Driver/src/stm32f10x_tim.c ****   tmpccer |= (uint16_t)(TIM_OCInitStruct->TIM_OCPolarity << 4);
 730              		.loc 1 392 0
 731 050e 3B68     		ldr	r3, [r7, #0]
 732 0510 1B89     		ldrh	r3, [r3, #8]
 733 0512 4FEA0313 		lsl	r3, r3, #4
 734 0516 9AB2     		uxth	r2, r3
 735 0518 FB89     		ldrh	r3, [r7, #14]	@ movhi
 736 051a 1343     		orrs	r3, r3, r2
 737 051c FB81     		strh	r3, [r7, #14]	@ movhi
 393:../lib/STM32F10x_StdPeriph_Driver/src/stm32f10x_tim.c ****   
 394:../lib/STM32F10x_StdPeriph_Driver/src/stm32f10x_tim.c ****   /* Set the Output State */
 395:../lib/STM32F10x_StdPeriph_Driver/src/stm32f10x_tim.c ****   tmpccer |= (uint16_t)(TIM_OCInitStruct->TIM_OutputState << 4);
 738              		.loc 1 395 0
 739 051e 3B68     		ldr	r3, [r7, #0]
 740 0520 5B88     		ldrh	r3, [r3, #2]
 741 0522 4FEA0313 		lsl	r3, r3, #4
 742 0526 9AB2     		uxth	r2, r3
 743 0528 FB89     		ldrh	r3, [r7, #14]	@ movhi
 744 052a 1343     		orrs	r3, r3, r2
 745 052c FB81     		strh	r3, [r7, #14]	@ movhi
 396:../lib/STM32F10x_StdPeriph_Driver/src/stm32f10x_tim.c ****     
 397:../lib/STM32F10x_StdPeriph_Driver/src/stm32f10x_tim.c ****   if((TIMx == TIM1) || (TIMx == TIM8))
 746              		.loc 1 397 0
 747 052e 7A68     		ldr	r2, [r7, #4]
 748 0530 244B     		ldr	r3, .L37
 749 0532 9A42     		cmp	r2, r3
 750 0534 03D0     		beq	.L35
 751              		.loc 1 397 0 is_stmt 0 discriminator 1
 752 0536 7A68     		ldr	r2, [r7, #4]
 753 0538 234B     		ldr	r3, .L37+4
 754 053a 9A42     		cmp	r2, r3
 755 053c 2FD1     		bne	.L36
 756              	.L35:
 398:../lib/STM32F10x_StdPeriph_Driver/src/stm32f10x_tim.c ****   {
 399:../lib/STM32F10x_StdPeriph_Driver/src/stm32f10x_tim.c ****     assert_param(IS_TIM_OUTPUTN_STATE(TIM_OCInitStruct->TIM_OutputNState));
 400:../lib/STM32F10x_StdPeriph_Driver/src/stm32f10x_tim.c ****     assert_param(IS_TIM_OCN_POLARITY(TIM_OCInitStruct->TIM_OCNPolarity));
 401:../lib/STM32F10x_StdPeriph_Driver/src/stm32f10x_tim.c ****     assert_param(IS_TIM_OCNIDLE_STATE(TIM_OCInitStruct->TIM_OCNIdleState));
 402:../lib/STM32F10x_StdPeriph_Driver/src/stm32f10x_tim.c ****     assert_param(IS_TIM_OCIDLE_STATE(TIM_OCInitStruct->TIM_OCIdleState));
 403:../lib/STM32F10x_StdPeriph_Driver/src/stm32f10x_tim.c ****     
 404:../lib/STM32F10x_StdPeriph_Driver/src/stm32f10x_tim.c ****     /* Reset the Output N Polarity level */
 405:../lib/STM32F10x_StdPeriph_Driver/src/stm32f10x_tim.c ****     tmpccer &= (uint16_t)(~((uint16_t)TIM_CCER_CC2NP));
 757              		.loc 1 405 0 is_stmt 1
 758 053e FB89     		ldrh	r3, [r7, #14]	@ movhi
 759 0540 23F08003 		bic	r3, r3, #128
 760 0544 FB81     		strh	r3, [r7, #14]	@ movhi
 406:../lib/STM32F10x_StdPeriph_Driver/src/stm32f10x_tim.c ****     /* Set the Output N Polarity */
 407:../lib/STM32F10x_StdPeriph_Driver/src/stm32f10x_tim.c ****     tmpccer |= (uint16_t)(TIM_OCInitStruct->TIM_OCNPolarity << 4);
 761              		.loc 1 407 0
 762 0546 3B68     		ldr	r3, [r7, #0]
 763 0548 5B89     		ldrh	r3, [r3, #10]
 764 054a 4FEA0313 		lsl	r3, r3, #4
 765 054e 9AB2     		uxth	r2, r3
 766 0550 FB89     		ldrh	r3, [r7, #14]	@ movhi
 767 0552 1343     		orrs	r3, r3, r2
 768 0554 FB81     		strh	r3, [r7, #14]	@ movhi
 408:../lib/STM32F10x_StdPeriph_Driver/src/stm32f10x_tim.c ****     
 409:../lib/STM32F10x_StdPeriph_Driver/src/stm32f10x_tim.c ****     /* Reset the Output N State */
 410:../lib/STM32F10x_StdPeriph_Driver/src/stm32f10x_tim.c ****     tmpccer &= (uint16_t)(~((uint16_t)TIM_CCER_CC2NE));    
 769              		.loc 1 410 0
 770 0556 FB89     		ldrh	r3, [r7, #14]	@ movhi
 771 0558 23F04003 		bic	r3, r3, #64
 772 055c FB81     		strh	r3, [r7, #14]	@ movhi
 411:../lib/STM32F10x_StdPeriph_Driver/src/stm32f10x_tim.c ****     /* Set the Output N State */
 412:../lib/STM32F10x_StdPeriph_Driver/src/stm32f10x_tim.c ****     tmpccer |= (uint16_t)(TIM_OCInitStruct->TIM_OutputNState << 4);
 773              		.loc 1 412 0
 774 055e 3B68     		ldr	r3, [r7, #0]
 775 0560 9B88     		ldrh	r3, [r3, #4]
 776 0562 4FEA0313 		lsl	r3, r3, #4
 777 0566 9AB2     		uxth	r2, r3
 778 0568 FB89     		ldrh	r3, [r7, #14]	@ movhi
 779 056a 1343     		orrs	r3, r3, r2
 780 056c FB81     		strh	r3, [r7, #14]	@ movhi
 413:../lib/STM32F10x_StdPeriph_Driver/src/stm32f10x_tim.c ****     
 414:../lib/STM32F10x_StdPeriph_Driver/src/stm32f10x_tim.c ****     /* Reset the Output Compare and Output Compare N IDLE State */
 415:../lib/STM32F10x_StdPeriph_Driver/src/stm32f10x_tim.c ****     tmpcr2 &= (uint16_t)(~((uint16_t)TIM_CR2_OIS2));
 781              		.loc 1 415 0
 782 056e BB89     		ldrh	r3, [r7, #12]	@ movhi
 783 0570 23F48063 		bic	r3, r3, #1024
 784 0574 BB81     		strh	r3, [r7, #12]	@ movhi
 416:../lib/STM32F10x_StdPeriph_Driver/src/stm32f10x_tim.c ****     tmpcr2 &= (uint16_t)(~((uint16_t)TIM_CR2_OIS2N));
 785              		.loc 1 416 0
 786 0576 BB89     		ldrh	r3, [r7, #12]	@ movhi
 787 0578 23F40063 		bic	r3, r3, #2048
 788 057c BB81     		strh	r3, [r7, #12]	@ movhi
 417:../lib/STM32F10x_StdPeriph_Driver/src/stm32f10x_tim.c ****     
 418:../lib/STM32F10x_StdPeriph_Driver/src/stm32f10x_tim.c ****     /* Set the Output Idle state */
 419:../lib/STM32F10x_StdPeriph_Driver/src/stm32f10x_tim.c ****     tmpcr2 |= (uint16_t)(TIM_OCInitStruct->TIM_OCIdleState << 2);
 789              		.loc 1 419 0
 790 057e 3B68     		ldr	r3, [r7, #0]
 791 0580 9B89     		ldrh	r3, [r3, #12]
 792 0582 4FEA8303 		lsl	r3, r3, #2
 793 0586 9AB2     		uxth	r2, r3
 794 0588 BB89     		ldrh	r3, [r7, #12]	@ movhi
 795 058a 1343     		orrs	r3, r3, r2
 796 058c BB81     		strh	r3, [r7, #12]	@ movhi
 420:../lib/STM32F10x_StdPeriph_Driver/src/stm32f10x_tim.c ****     /* Set the Output N Idle state */
 421:../lib/STM32F10x_StdPeriph_Driver/src/stm32f10x_tim.c ****     tmpcr2 |= (uint16_t)(TIM_OCInitStruct->TIM_OCNIdleState << 2);
 797              		.loc 1 421 0
 798 058e 3B68     		ldr	r3, [r7, #0]
 799 0590 DB89     		ldrh	r3, [r3, #14]
 800 0592 4FEA8303 		lsl	r3, r3, #2
 801 0596 9AB2     		uxth	r2, r3
 802 0598 BB89     		ldrh	r3, [r7, #12]	@ movhi
 803 059a 1343     		orrs	r3, r3, r2
 804 059c BB81     		strh	r3, [r7, #12]	@ movhi
 805              	.L36:
 422:../lib/STM32F10x_StdPeriph_Driver/src/stm32f10x_tim.c ****   }
 423:../lib/STM32F10x_StdPeriph_Driver/src/stm32f10x_tim.c ****   /* Write to TIMx CR2 */
 424:../lib/STM32F10x_StdPeriph_Driver/src/stm32f10x_tim.c ****   TIMx->CR2 = tmpcr2;
 806              		.loc 1 424 0
 807 059e 7B68     		ldr	r3, [r7, #4]
 808 05a0 BA89     		ldrh	r2, [r7, #12]	@ movhi
 809 05a2 9A80     		strh	r2, [r3, #4]	@ movhi
 425:../lib/STM32F10x_StdPeriph_Driver/src/stm32f10x_tim.c ****   
 426:../lib/STM32F10x_StdPeriph_Driver/src/stm32f10x_tim.c ****   /* Write to TIMx CCMR1 */
 427:../lib/STM32F10x_StdPeriph_Driver/src/stm32f10x_tim.c ****   TIMx->CCMR1 = tmpccmrx;
 810              		.loc 1 427 0
 811 05a4 7B68     		ldr	r3, [r7, #4]
 812 05a6 7A89     		ldrh	r2, [r7, #10]	@ movhi
 813 05a8 1A83     		strh	r2, [r3, #24]	@ movhi
 428:../lib/STM32F10x_StdPeriph_Driver/src/stm32f10x_tim.c **** 
 429:../lib/STM32F10x_StdPeriph_Driver/src/stm32f10x_tim.c ****   /* Set the Capture Compare Register value */
 430:../lib/STM32F10x_StdPeriph_Driver/src/stm32f10x_tim.c ****   TIMx->CCR2 = TIM_OCInitStruct->TIM_Pulse;
 814              		.loc 1 430 0
 815 05aa 3B68     		ldr	r3, [r7, #0]
 816 05ac DA88     		ldrh	r2, [r3, #6]
 817 05ae 7B68     		ldr	r3, [r7, #4]
 818 05b0 1A87     		strh	r2, [r3, #56]	@ movhi
 431:../lib/STM32F10x_StdPeriph_Driver/src/stm32f10x_tim.c ****   
 432:../lib/STM32F10x_StdPeriph_Driver/src/stm32f10x_tim.c ****   /* Write to TIMx CCER */
 433:../lib/STM32F10x_StdPeriph_Driver/src/stm32f10x_tim.c ****   TIMx->CCER = tmpccer;
 819              		.loc 1 433 0
 820 05b2 7B68     		ldr	r3, [r7, #4]
 821 05b4 FA89     		ldrh	r2, [r7, #14]	@ movhi
 822 05b6 1A84     		strh	r2, [r3, #32]	@ movhi
 434:../lib/STM32F10x_StdPeriph_Driver/src/stm32f10x_tim.c **** }
 823              		.loc 1 434 0
 824 05b8 07F11407 		add	r7, r7, #20
 825 05bc BD46     		mov	sp, r7
 826 05be 80BC     		pop	{r7}
 827 05c0 7047     		bx	lr
 828              	.L38:
 829 05c2 00BF     		.align	2
 830              	.L37:
 831 05c4 002C0140 		.word	1073818624
 832 05c8 00340140 		.word	1073820672
 833              		.cfi_endproc
 834              	.LFE32:
 836              		.align	2
 837              		.global	TIM_OC3Init
 838              		.thumb
 839              		.thumb_func
 841              	TIM_OC3Init:
 842              	.LFB33:
 435:../lib/STM32F10x_StdPeriph_Driver/src/stm32f10x_tim.c **** 
 436:../lib/STM32F10x_StdPeriph_Driver/src/stm32f10x_tim.c **** /**
 437:../lib/STM32F10x_StdPeriph_Driver/src/stm32f10x_tim.c ****   * @brief  Initializes the TIMx Channel3 according to the specified
 438:../lib/STM32F10x_StdPeriph_Driver/src/stm32f10x_tim.c ****   *         parameters in the TIM_OCInitStruct.
 439:../lib/STM32F10x_StdPeriph_Driver/src/stm32f10x_tim.c ****   * @param  TIMx: where x can be  1, 2, 3, 4, 5 or 8 to select the TIM peripheral.
 440:../lib/STM32F10x_StdPeriph_Driver/src/stm32f10x_tim.c ****   * @param  TIM_OCInitStruct: pointer to a TIM_OCInitTypeDef structure
 441:../lib/STM32F10x_StdPeriph_Driver/src/stm32f10x_tim.c ****   *         that contains the configuration information for the specified TIM peripheral.
 442:../lib/STM32F10x_StdPeriph_Driver/src/stm32f10x_tim.c ****   * @retval None
 443:../lib/STM32F10x_StdPeriph_Driver/src/stm32f10x_tim.c ****   */
 444:../lib/STM32F10x_StdPeriph_Driver/src/stm32f10x_tim.c **** void TIM_OC3Init(TIM_TypeDef* TIMx, TIM_OCInitTypeDef* TIM_OCInitStruct)
 445:../lib/STM32F10x_StdPeriph_Driver/src/stm32f10x_tim.c **** {
 843              		.loc 1 445 0
 844              		.cfi_startproc
 845              		@ args = 0, pretend = 0, frame = 16
 846              		@ frame_needed = 1, uses_anonymous_args = 0
 847              		@ link register save eliminated.
 848 05cc 80B4     		push	{r7}
 849              	.LCFI12:
 850              		.cfi_def_cfa_offset 4
 851              		.cfi_offset 7, -4
 852 05ce 85B0     		sub	sp, sp, #20
 853              	.LCFI13:
 854              		.cfi_def_cfa_offset 24
 855 05d0 00AF     		add	r7, sp, #0
 856              	.LCFI14:
 857              		.cfi_def_cfa_register 7
 858 05d2 7860     		str	r0, [r7, #4]
 859 05d4 3960     		str	r1, [r7, #0]
 446:../lib/STM32F10x_StdPeriph_Driver/src/stm32f10x_tim.c ****   uint16_t tmpccmrx = 0, tmpccer = 0, tmpcr2 = 0;
 860              		.loc 1 446 0
 861 05d6 4FF00003 		mov	r3, #0
 862 05da 7B81     		strh	r3, [r7, #10]	@ movhi
 863 05dc 4FF00003 		mov	r3, #0
 864 05e0 FB81     		strh	r3, [r7, #14]	@ movhi
 865 05e2 4FF00003 		mov	r3, #0
 866 05e6 BB81     		strh	r3, [r7, #12]	@ movhi
 447:../lib/STM32F10x_StdPeriph_Driver/src/stm32f10x_tim.c ****    
 448:../lib/STM32F10x_StdPeriph_Driver/src/stm32f10x_tim.c ****   /* Check the parameters */
 449:../lib/STM32F10x_StdPeriph_Driver/src/stm32f10x_tim.c ****   assert_param(IS_TIM_LIST3_PERIPH(TIMx)); 
 450:../lib/STM32F10x_StdPeriph_Driver/src/stm32f10x_tim.c ****   assert_param(IS_TIM_OC_MODE(TIM_OCInitStruct->TIM_OCMode));
 451:../lib/STM32F10x_StdPeriph_Driver/src/stm32f10x_tim.c ****   assert_param(IS_TIM_OUTPUT_STATE(TIM_OCInitStruct->TIM_OutputState));
 452:../lib/STM32F10x_StdPeriph_Driver/src/stm32f10x_tim.c ****   assert_param(IS_TIM_OC_POLARITY(TIM_OCInitStruct->TIM_OCPolarity));   
 453:../lib/STM32F10x_StdPeriph_Driver/src/stm32f10x_tim.c ****   /* Disable the Channel 2: Reset the CC2E Bit */
 454:../lib/STM32F10x_StdPeriph_Driver/src/stm32f10x_tim.c ****   TIMx->CCER &= (uint16_t)(~((uint16_t)TIM_CCER_CC3E));
 867              		.loc 1 454 0
 868 05e8 7B68     		ldr	r3, [r7, #4]
 869 05ea 1B8C     		ldrh	r3, [r3, #32]	@ movhi
 870 05ec 9BB2     		uxth	r3, r3
 871 05ee 23F48073 		bic	r3, r3, #256
 872 05f2 9AB2     		uxth	r2, r3
 873 05f4 7B68     		ldr	r3, [r7, #4]
 874 05f6 1A84     		strh	r2, [r3, #32]	@ movhi
 455:../lib/STM32F10x_StdPeriph_Driver/src/stm32f10x_tim.c ****   
 456:../lib/STM32F10x_StdPeriph_Driver/src/stm32f10x_tim.c ****   /* Get the TIMx CCER register value */
 457:../lib/STM32F10x_StdPeriph_Driver/src/stm32f10x_tim.c ****   tmpccer = TIMx->CCER;
 875              		.loc 1 457 0
 876 05f8 7B68     		ldr	r3, [r7, #4]
 877 05fa 1B8C     		ldrh	r3, [r3, #32]	@ movhi
 878 05fc FB81     		strh	r3, [r7, #14]	@ movhi
 458:../lib/STM32F10x_StdPeriph_Driver/src/stm32f10x_tim.c ****   /* Get the TIMx CR2 register value */
 459:../lib/STM32F10x_StdPeriph_Driver/src/stm32f10x_tim.c ****   tmpcr2 =  TIMx->CR2;
 879              		.loc 1 459 0
 880 05fe 7B68     		ldr	r3, [r7, #4]
 881 0600 9B88     		ldrh	r3, [r3, #4]	@ movhi
 882 0602 BB81     		strh	r3, [r7, #12]	@ movhi
 460:../lib/STM32F10x_StdPeriph_Driver/src/stm32f10x_tim.c ****   
 461:../lib/STM32F10x_StdPeriph_Driver/src/stm32f10x_tim.c ****   /* Get the TIMx CCMR2 register value */
 462:../lib/STM32F10x_StdPeriph_Driver/src/stm32f10x_tim.c ****   tmpccmrx = TIMx->CCMR2;
 883              		.loc 1 462 0
 884 0604 7B68     		ldr	r3, [r7, #4]
 885 0606 9B8B     		ldrh	r3, [r3, #28]	@ movhi
 886 0608 7B81     		strh	r3, [r7, #10]	@ movhi
 463:../lib/STM32F10x_StdPeriph_Driver/src/stm32f10x_tim.c ****     
 464:../lib/STM32F10x_StdPeriph_Driver/src/stm32f10x_tim.c ****   /* Reset the Output Compare mode and Capture/Compare selection Bits */
 465:../lib/STM32F10x_StdPeriph_Driver/src/stm32f10x_tim.c ****   tmpccmrx &= (uint16_t)(~((uint16_t)TIM_CCMR2_OC3M));
 887              		.loc 1 465 0
 888 060a 7B89     		ldrh	r3, [r7, #10]	@ movhi
 889 060c 23F07003 		bic	r3, r3, #112
 890 0610 7B81     		strh	r3, [r7, #10]	@ movhi
 466:../lib/STM32F10x_StdPeriph_Driver/src/stm32f10x_tim.c ****   tmpccmrx &= (uint16_t)(~((uint16_t)TIM_CCMR2_CC3S));  
 891              		.loc 1 466 0
 892 0612 7B89     		ldrh	r3, [r7, #10]	@ movhi
 893 0614 23F00303 		bic	r3, r3, #3
 894 0618 7B81     		strh	r3, [r7, #10]	@ movhi
 467:../lib/STM32F10x_StdPeriph_Driver/src/stm32f10x_tim.c ****   /* Select the Output Compare Mode */
 468:../lib/STM32F10x_StdPeriph_Driver/src/stm32f10x_tim.c ****   tmpccmrx |= TIM_OCInitStruct->TIM_OCMode;
 895              		.loc 1 468 0
 896 061a 3B68     		ldr	r3, [r7, #0]
 897 061c 1A88     		ldrh	r2, [r3, #0]
 898 061e 7B89     		ldrh	r3, [r7, #10]	@ movhi
 899 0620 1343     		orrs	r3, r3, r2
 900 0622 7B81     		strh	r3, [r7, #10]	@ movhi
 469:../lib/STM32F10x_StdPeriph_Driver/src/stm32f10x_tim.c ****   
 470:../lib/STM32F10x_StdPeriph_Driver/src/stm32f10x_tim.c ****   /* Reset the Output Polarity level */
 471:../lib/STM32F10x_StdPeriph_Driver/src/stm32f10x_tim.c ****   tmpccer &= (uint16_t)(~((uint16_t)TIM_CCER_CC3P));
 901              		.loc 1 471 0
 902 0624 FB89     		ldrh	r3, [r7, #14]	@ movhi
 903 0626 23F40073 		bic	r3, r3, #512
 904 062a FB81     		strh	r3, [r7, #14]	@ movhi
 472:../lib/STM32F10x_StdPeriph_Driver/src/stm32f10x_tim.c ****   /* Set the Output Compare Polarity */
 473:../lib/STM32F10x_StdPeriph_Driver/src/stm32f10x_tim.c ****   tmpccer |= (uint16_t)(TIM_OCInitStruct->TIM_OCPolarity << 8);
 905              		.loc 1 473 0
 906 062c 3B68     		ldr	r3, [r7, #0]
 907 062e 1B89     		ldrh	r3, [r3, #8]
 908 0630 4FEA0323 		lsl	r3, r3, #8
 909 0634 9AB2     		uxth	r2, r3
 910 0636 FB89     		ldrh	r3, [r7, #14]	@ movhi
 911 0638 1343     		orrs	r3, r3, r2
 912 063a FB81     		strh	r3, [r7, #14]	@ movhi
 474:../lib/STM32F10x_StdPeriph_Driver/src/stm32f10x_tim.c ****   
 475:../lib/STM32F10x_StdPeriph_Driver/src/stm32f10x_tim.c ****   /* Set the Output State */
 476:../lib/STM32F10x_StdPeriph_Driver/src/stm32f10x_tim.c ****   tmpccer |= (uint16_t)(TIM_OCInitStruct->TIM_OutputState << 8);
 913              		.loc 1 476 0
 914 063c 3B68     		ldr	r3, [r7, #0]
 915 063e 5B88     		ldrh	r3, [r3, #2]
 916 0640 4FEA0323 		lsl	r3, r3, #8
 917 0644 9AB2     		uxth	r2, r3
 918 0646 FB89     		ldrh	r3, [r7, #14]	@ movhi
 919 0648 1343     		orrs	r3, r3, r2
 920 064a FB81     		strh	r3, [r7, #14]	@ movhi
 477:../lib/STM32F10x_StdPeriph_Driver/src/stm32f10x_tim.c ****     
 478:../lib/STM32F10x_StdPeriph_Driver/src/stm32f10x_tim.c ****   if((TIMx == TIM1) || (TIMx == TIM8))
 921              		.loc 1 478 0
 922 064c 7A68     		ldr	r2, [r7, #4]
 923 064e 244B     		ldr	r3, .L42
 924 0650 9A42     		cmp	r2, r3
 925 0652 03D0     		beq	.L40
 926              		.loc 1 478 0 is_stmt 0 discriminator 1
 927 0654 7A68     		ldr	r2, [r7, #4]
 928 0656 234B     		ldr	r3, .L42+4
 929 0658 9A42     		cmp	r2, r3
 930 065a 2FD1     		bne	.L41
 931              	.L40:
 479:../lib/STM32F10x_StdPeriph_Driver/src/stm32f10x_tim.c ****   {
 480:../lib/STM32F10x_StdPeriph_Driver/src/stm32f10x_tim.c ****     assert_param(IS_TIM_OUTPUTN_STATE(TIM_OCInitStruct->TIM_OutputNState));
 481:../lib/STM32F10x_StdPeriph_Driver/src/stm32f10x_tim.c ****     assert_param(IS_TIM_OCN_POLARITY(TIM_OCInitStruct->TIM_OCNPolarity));
 482:../lib/STM32F10x_StdPeriph_Driver/src/stm32f10x_tim.c ****     assert_param(IS_TIM_OCNIDLE_STATE(TIM_OCInitStruct->TIM_OCNIdleState));
 483:../lib/STM32F10x_StdPeriph_Driver/src/stm32f10x_tim.c ****     assert_param(IS_TIM_OCIDLE_STATE(TIM_OCInitStruct->TIM_OCIdleState));
 484:../lib/STM32F10x_StdPeriph_Driver/src/stm32f10x_tim.c ****     
 485:../lib/STM32F10x_StdPeriph_Driver/src/stm32f10x_tim.c ****     /* Reset the Output N Polarity level */
 486:../lib/STM32F10x_StdPeriph_Driver/src/stm32f10x_tim.c ****     tmpccer &= (uint16_t)(~((uint16_t)TIM_CCER_CC3NP));
 932              		.loc 1 486 0 is_stmt 1
 933 065c FB89     		ldrh	r3, [r7, #14]	@ movhi
 934 065e 23F40063 		bic	r3, r3, #2048
 935 0662 FB81     		strh	r3, [r7, #14]	@ movhi
 487:../lib/STM32F10x_StdPeriph_Driver/src/stm32f10x_tim.c ****     /* Set the Output N Polarity */
 488:../lib/STM32F10x_StdPeriph_Driver/src/stm32f10x_tim.c ****     tmpccer |= (uint16_t)(TIM_OCInitStruct->TIM_OCNPolarity << 8);
 936              		.loc 1 488 0
 937 0664 3B68     		ldr	r3, [r7, #0]
 938 0666 5B89     		ldrh	r3, [r3, #10]
 939 0668 4FEA0323 		lsl	r3, r3, #8
 940 066c 9AB2     		uxth	r2, r3
 941 066e FB89     		ldrh	r3, [r7, #14]	@ movhi
 942 0670 1343     		orrs	r3, r3, r2
 943 0672 FB81     		strh	r3, [r7, #14]	@ movhi
 489:../lib/STM32F10x_StdPeriph_Driver/src/stm32f10x_tim.c ****     /* Reset the Output N State */
 490:../lib/STM32F10x_StdPeriph_Driver/src/stm32f10x_tim.c ****     tmpccer &= (uint16_t)(~((uint16_t)TIM_CCER_CC3NE));
 944              		.loc 1 490 0
 945 0674 FB89     		ldrh	r3, [r7, #14]	@ movhi
 946 0676 23F48063 		bic	r3, r3, #1024
 947 067a FB81     		strh	r3, [r7, #14]	@ movhi
 491:../lib/STM32F10x_StdPeriph_Driver/src/stm32f10x_tim.c ****     
 492:../lib/STM32F10x_StdPeriph_Driver/src/stm32f10x_tim.c ****     /* Set the Output N State */
 493:../lib/STM32F10x_StdPeriph_Driver/src/stm32f10x_tim.c ****     tmpccer |= (uint16_t)(TIM_OCInitStruct->TIM_OutputNState << 8);
 948              		.loc 1 493 0
 949 067c 3B68     		ldr	r3, [r7, #0]
 950 067e 9B88     		ldrh	r3, [r3, #4]
 951 0680 4FEA0323 		lsl	r3, r3, #8
 952 0684 9AB2     		uxth	r2, r3
 953 0686 FB89     		ldrh	r3, [r7, #14]	@ movhi
 954 0688 1343     		orrs	r3, r3, r2
 955 068a FB81     		strh	r3, [r7, #14]	@ movhi
 494:../lib/STM32F10x_StdPeriph_Driver/src/stm32f10x_tim.c ****     /* Reset the Output Compare and Output Compare N IDLE State */
 495:../lib/STM32F10x_StdPeriph_Driver/src/stm32f10x_tim.c ****     tmpcr2 &= (uint16_t)(~((uint16_t)TIM_CR2_OIS3));
 956              		.loc 1 495 0
 957 068c BB89     		ldrh	r3, [r7, #12]	@ movhi
 958 068e 23F48053 		bic	r3, r3, #4096
 959 0692 BB81     		strh	r3, [r7, #12]	@ movhi
 496:../lib/STM32F10x_StdPeriph_Driver/src/stm32f10x_tim.c ****     tmpcr2 &= (uint16_t)(~((uint16_t)TIM_CR2_OIS3N));
 960              		.loc 1 496 0
 961 0694 BB89     		ldrh	r3, [r7, #12]	@ movhi
 962 0696 23F40053 		bic	r3, r3, #8192
 963 069a BB81     		strh	r3, [r7, #12]	@ movhi
 497:../lib/STM32F10x_StdPeriph_Driver/src/stm32f10x_tim.c ****     /* Set the Output Idle state */
 498:../lib/STM32F10x_StdPeriph_Driver/src/stm32f10x_tim.c ****     tmpcr2 |= (uint16_t)(TIM_OCInitStruct->TIM_OCIdleState << 4);
 964              		.loc 1 498 0
 965 069c 3B68     		ldr	r3, [r7, #0]
 966 069e 9B89     		ldrh	r3, [r3, #12]
 967 06a0 4FEA0313 		lsl	r3, r3, #4
 968 06a4 9AB2     		uxth	r2, r3
 969 06a6 BB89     		ldrh	r3, [r7, #12]	@ movhi
 970 06a8 1343     		orrs	r3, r3, r2
 971 06aa BB81     		strh	r3, [r7, #12]	@ movhi
 499:../lib/STM32F10x_StdPeriph_Driver/src/stm32f10x_tim.c ****     /* Set the Output N Idle state */
 500:../lib/STM32F10x_StdPeriph_Driver/src/stm32f10x_tim.c ****     tmpcr2 |= (uint16_t)(TIM_OCInitStruct->TIM_OCNIdleState << 4);
 972              		.loc 1 500 0
 973 06ac 3B68     		ldr	r3, [r7, #0]
 974 06ae DB89     		ldrh	r3, [r3, #14]
 975 06b0 4FEA0313 		lsl	r3, r3, #4
 976 06b4 9AB2     		uxth	r2, r3
 977 06b6 BB89     		ldrh	r3, [r7, #12]	@ movhi
 978 06b8 1343     		orrs	r3, r3, r2
 979 06ba BB81     		strh	r3, [r7, #12]	@ movhi
 980              	.L41:
 501:../lib/STM32F10x_StdPeriph_Driver/src/stm32f10x_tim.c ****   }
 502:../lib/STM32F10x_StdPeriph_Driver/src/stm32f10x_tim.c ****   /* Write to TIMx CR2 */
 503:../lib/STM32F10x_StdPeriph_Driver/src/stm32f10x_tim.c ****   TIMx->CR2 = tmpcr2;
 981              		.loc 1 503 0
 982 06bc 7B68     		ldr	r3, [r7, #4]
 983 06be BA89     		ldrh	r2, [r7, #12]	@ movhi
 984 06c0 9A80     		strh	r2, [r3, #4]	@ movhi
 504:../lib/STM32F10x_StdPeriph_Driver/src/stm32f10x_tim.c ****   
 505:../lib/STM32F10x_StdPeriph_Driver/src/stm32f10x_tim.c ****   /* Write to TIMx CCMR2 */
 506:../lib/STM32F10x_StdPeriph_Driver/src/stm32f10x_tim.c ****   TIMx->CCMR2 = tmpccmrx;
 985              		.loc 1 506 0
 986 06c2 7B68     		ldr	r3, [r7, #4]
 987 06c4 7A89     		ldrh	r2, [r7, #10]	@ movhi
 988 06c6 9A83     		strh	r2, [r3, #28]	@ movhi
 507:../lib/STM32F10x_StdPeriph_Driver/src/stm32f10x_tim.c **** 
 508:../lib/STM32F10x_StdPeriph_Driver/src/stm32f10x_tim.c ****   /* Set the Capture Compare Register value */
 509:../lib/STM32F10x_StdPeriph_Driver/src/stm32f10x_tim.c ****   TIMx->CCR3 = TIM_OCInitStruct->TIM_Pulse;
 989              		.loc 1 509 0
 990 06c8 3B68     		ldr	r3, [r7, #0]
 991 06ca DA88     		ldrh	r2, [r3, #6]
 992 06cc 7B68     		ldr	r3, [r7, #4]
 993 06ce 9A87     		strh	r2, [r3, #60]	@ movhi
 510:../lib/STM32F10x_StdPeriph_Driver/src/stm32f10x_tim.c ****   
 511:../lib/STM32F10x_StdPeriph_Driver/src/stm32f10x_tim.c ****   /* Write to TIMx CCER */
 512:../lib/STM32F10x_StdPeriph_Driver/src/stm32f10x_tim.c ****   TIMx->CCER = tmpccer;
 994              		.loc 1 512 0
 995 06d0 7B68     		ldr	r3, [r7, #4]
 996 06d2 FA89     		ldrh	r2, [r7, #14]	@ movhi
 997 06d4 1A84     		strh	r2, [r3, #32]	@ movhi
 513:../lib/STM32F10x_StdPeriph_Driver/src/stm32f10x_tim.c **** }
 998              		.loc 1 513 0
 999 06d6 07F11407 		add	r7, r7, #20
 1000 06da BD46     		mov	sp, r7
 1001 06dc 80BC     		pop	{r7}
 1002 06de 7047     		bx	lr
 1003              	.L43:
 1004              		.align	2
 1005              	.L42:
 1006 06e0 002C0140 		.word	1073818624
 1007 06e4 00340140 		.word	1073820672
 1008              		.cfi_endproc
 1009              	.LFE33:
 1011              		.align	2
 1012              		.global	TIM_OC4Init
 1013              		.thumb
 1014              		.thumb_func
 1016              	TIM_OC4Init:
 1017              	.LFB34:
 514:../lib/STM32F10x_StdPeriph_Driver/src/stm32f10x_tim.c **** 
 515:../lib/STM32F10x_StdPeriph_Driver/src/stm32f10x_tim.c **** /**
 516:../lib/STM32F10x_StdPeriph_Driver/src/stm32f10x_tim.c ****   * @brief  Initializes the TIMx Channel4 according to the specified
 517:../lib/STM32F10x_StdPeriph_Driver/src/stm32f10x_tim.c ****   *         parameters in the TIM_OCInitStruct.
 518:../lib/STM32F10x_StdPeriph_Driver/src/stm32f10x_tim.c ****   * @param  TIMx: where x can be  1, 2, 3, 4, 5 or 8 to select the TIM peripheral.
 519:../lib/STM32F10x_StdPeriph_Driver/src/stm32f10x_tim.c ****   * @param  TIM_OCInitStruct: pointer to a TIM_OCInitTypeDef structure
 520:../lib/STM32F10x_StdPeriph_Driver/src/stm32f10x_tim.c ****   *         that contains the configuration information for the specified TIM peripheral.
 521:../lib/STM32F10x_StdPeriph_Driver/src/stm32f10x_tim.c ****   * @retval None
 522:../lib/STM32F10x_StdPeriph_Driver/src/stm32f10x_tim.c ****   */
 523:../lib/STM32F10x_StdPeriph_Driver/src/stm32f10x_tim.c **** void TIM_OC4Init(TIM_TypeDef* TIMx, TIM_OCInitTypeDef* TIM_OCInitStruct)
 524:../lib/STM32F10x_StdPeriph_Driver/src/stm32f10x_tim.c **** {
 1018              		.loc 1 524 0
 1019              		.cfi_startproc
 1020              		@ args = 0, pretend = 0, frame = 16
 1021              		@ frame_needed = 1, uses_anonymous_args = 0
 1022              		@ link register save eliminated.
 1023 06e8 80B4     		push	{r7}
 1024              	.LCFI15:
 1025              		.cfi_def_cfa_offset 4
 1026              		.cfi_offset 7, -4
 1027 06ea 85B0     		sub	sp, sp, #20
 1028              	.LCFI16:
 1029              		.cfi_def_cfa_offset 24
 1030 06ec 00AF     		add	r7, sp, #0
 1031              	.LCFI17:
 1032              		.cfi_def_cfa_register 7
 1033 06ee 7860     		str	r0, [r7, #4]
 1034 06f0 3960     		str	r1, [r7, #0]
 525:../lib/STM32F10x_StdPeriph_Driver/src/stm32f10x_tim.c ****   uint16_t tmpccmrx = 0, tmpccer = 0, tmpcr2 = 0;
 1035              		.loc 1 525 0
 1036 06f2 4FF00003 		mov	r3, #0
 1037 06f6 BB81     		strh	r3, [r7, #12]	@ movhi
 1038 06f8 4FF00003 		mov	r3, #0
 1039 06fc 7B81     		strh	r3, [r7, #10]	@ movhi
 1040 06fe 4FF00003 		mov	r3, #0
 1041 0702 FB81     		strh	r3, [r7, #14]	@ movhi
 526:../lib/STM32F10x_StdPeriph_Driver/src/stm32f10x_tim.c ****    
 527:../lib/STM32F10x_StdPeriph_Driver/src/stm32f10x_tim.c ****   /* Check the parameters */
 528:../lib/STM32F10x_StdPeriph_Driver/src/stm32f10x_tim.c ****   assert_param(IS_TIM_LIST3_PERIPH(TIMx)); 
 529:../lib/STM32F10x_StdPeriph_Driver/src/stm32f10x_tim.c ****   assert_param(IS_TIM_OC_MODE(TIM_OCInitStruct->TIM_OCMode));
 530:../lib/STM32F10x_StdPeriph_Driver/src/stm32f10x_tim.c ****   assert_param(IS_TIM_OUTPUT_STATE(TIM_OCInitStruct->TIM_OutputState));
 531:../lib/STM32F10x_StdPeriph_Driver/src/stm32f10x_tim.c ****   assert_param(IS_TIM_OC_POLARITY(TIM_OCInitStruct->TIM_OCPolarity));   
 532:../lib/STM32F10x_StdPeriph_Driver/src/stm32f10x_tim.c ****   /* Disable the Channel 2: Reset the CC4E Bit */
 533:../lib/STM32F10x_StdPeriph_Driver/src/stm32f10x_tim.c ****   TIMx->CCER &= (uint16_t)(~((uint16_t)TIM_CCER_CC4E));
 1042              		.loc 1 533 0
 1043 0704 7B68     		ldr	r3, [r7, #4]
 1044 0706 1B8C     		ldrh	r3, [r3, #32]	@ movhi
 1045 0708 9BB2     		uxth	r3, r3
 1046 070a 23F48053 		bic	r3, r3, #4096
 1047 070e 9AB2     		uxth	r2, r3
 1048 0710 7B68     		ldr	r3, [r7, #4]
 1049 0712 1A84     		strh	r2, [r3, #32]	@ movhi
 534:../lib/STM32F10x_StdPeriph_Driver/src/stm32f10x_tim.c ****   
 535:../lib/STM32F10x_StdPeriph_Driver/src/stm32f10x_tim.c ****   /* Get the TIMx CCER register value */
 536:../lib/STM32F10x_StdPeriph_Driver/src/stm32f10x_tim.c ****   tmpccer = TIMx->CCER;
 1050              		.loc 1 536 0
 1051 0714 7B68     		ldr	r3, [r7, #4]
 1052 0716 1B8C     		ldrh	r3, [r3, #32]	@ movhi
 1053 0718 7B81     		strh	r3, [r7, #10]	@ movhi
 537:../lib/STM32F10x_StdPeriph_Driver/src/stm32f10x_tim.c ****   /* Get the TIMx CR2 register value */
 538:../lib/STM32F10x_StdPeriph_Driver/src/stm32f10x_tim.c ****   tmpcr2 =  TIMx->CR2;
 1054              		.loc 1 538 0
 1055 071a 7B68     		ldr	r3, [r7, #4]
 1056 071c 9B88     		ldrh	r3, [r3, #4]	@ movhi
 1057 071e FB81     		strh	r3, [r7, #14]	@ movhi
 539:../lib/STM32F10x_StdPeriph_Driver/src/stm32f10x_tim.c ****   
 540:../lib/STM32F10x_StdPeriph_Driver/src/stm32f10x_tim.c ****   /* Get the TIMx CCMR2 register value */
 541:../lib/STM32F10x_StdPeriph_Driver/src/stm32f10x_tim.c ****   tmpccmrx = TIMx->CCMR2;
 1058              		.loc 1 541 0
 1059 0720 7B68     		ldr	r3, [r7, #4]
 1060 0722 9B8B     		ldrh	r3, [r3, #28]	@ movhi
 1061 0724 BB81     		strh	r3, [r7, #12]	@ movhi
 542:../lib/STM32F10x_StdPeriph_Driver/src/stm32f10x_tim.c ****     
 543:../lib/STM32F10x_StdPeriph_Driver/src/stm32f10x_tim.c ****   /* Reset the Output Compare mode and Capture/Compare selection Bits */
 544:../lib/STM32F10x_StdPeriph_Driver/src/stm32f10x_tim.c ****   tmpccmrx &= (uint16_t)(~((uint16_t)TIM_CCMR2_OC4M));
 1062              		.loc 1 544 0
 1063 0726 BB89     		ldrh	r3, [r7, #12]	@ movhi
 1064 0728 23F4E043 		bic	r3, r3, #28672
 1065 072c BB81     		strh	r3, [r7, #12]	@ movhi
 545:../lib/STM32F10x_StdPeriph_Driver/src/stm32f10x_tim.c ****   tmpccmrx &= (uint16_t)(~((uint16_t)TIM_CCMR2_CC4S));
 1066              		.loc 1 545 0
 1067 072e BB89     		ldrh	r3, [r7, #12]	@ movhi
 1068 0730 23F44073 		bic	r3, r3, #768
 1069 0734 BB81     		strh	r3, [r7, #12]	@ movhi
 546:../lib/STM32F10x_StdPeriph_Driver/src/stm32f10x_tim.c ****   
 547:../lib/STM32F10x_StdPeriph_Driver/src/stm32f10x_tim.c ****   /* Select the Output Compare Mode */
 548:../lib/STM32F10x_StdPeriph_Driver/src/stm32f10x_tim.c ****   tmpccmrx |= (uint16_t)(TIM_OCInitStruct->TIM_OCMode << 8);
 1070              		.loc 1 548 0
 1071 0736 3B68     		ldr	r3, [r7, #0]
 1072 0738 1B88     		ldrh	r3, [r3, #0]
 1073 073a 4FEA0323 		lsl	r3, r3, #8
 1074 073e 9AB2     		uxth	r2, r3
 1075 0740 BB89     		ldrh	r3, [r7, #12]	@ movhi
 1076 0742 1343     		orrs	r3, r3, r2
 1077 0744 BB81     		strh	r3, [r7, #12]	@ movhi
 549:../lib/STM32F10x_StdPeriph_Driver/src/stm32f10x_tim.c ****   
 550:../lib/STM32F10x_StdPeriph_Driver/src/stm32f10x_tim.c ****   /* Reset the Output Polarity level */
 551:../lib/STM32F10x_StdPeriph_Driver/src/stm32f10x_tim.c ****   tmpccer &= (uint16_t)(~((uint16_t)TIM_CCER_CC4P));
 1078              		.loc 1 551 0
 1079 0746 7B89     		ldrh	r3, [r7, #10]	@ movhi
 1080 0748 23F40053 		bic	r3, r3, #8192
 1081 074c 7B81     		strh	r3, [r7, #10]	@ movhi
 552:../lib/STM32F10x_StdPeriph_Driver/src/stm32f10x_tim.c ****   /* Set the Output Compare Polarity */
 553:../lib/STM32F10x_StdPeriph_Driver/src/stm32f10x_tim.c ****   tmpccer |= (uint16_t)(TIM_OCInitStruct->TIM_OCPolarity << 12);
 1082              		.loc 1 553 0
 1083 074e 3B68     		ldr	r3, [r7, #0]
 1084 0750 1B89     		ldrh	r3, [r3, #8]
 1085 0752 4FEA0333 		lsl	r3, r3, #12
 1086 0756 9AB2     		uxth	r2, r3
 1087 0758 7B89     		ldrh	r3, [r7, #10]	@ movhi
 1088 075a 1343     		orrs	r3, r3, r2
 1089 075c 7B81     		strh	r3, [r7, #10]	@ movhi
 554:../lib/STM32F10x_StdPeriph_Driver/src/stm32f10x_tim.c ****   
 555:../lib/STM32F10x_StdPeriph_Driver/src/stm32f10x_tim.c ****   /* Set the Output State */
 556:../lib/STM32F10x_StdPeriph_Driver/src/stm32f10x_tim.c ****   tmpccer |= (uint16_t)(TIM_OCInitStruct->TIM_OutputState << 12);
 1090              		.loc 1 556 0
 1091 075e 3B68     		ldr	r3, [r7, #0]
 1092 0760 5B88     		ldrh	r3, [r3, #2]
 1093 0762 4FEA0333 		lsl	r3, r3, #12
 1094 0766 9AB2     		uxth	r2, r3
 1095 0768 7B89     		ldrh	r3, [r7, #10]	@ movhi
 1096 076a 1343     		orrs	r3, r3, r2
 1097 076c 7B81     		strh	r3, [r7, #10]	@ movhi
 557:../lib/STM32F10x_StdPeriph_Driver/src/stm32f10x_tim.c ****     
 558:../lib/STM32F10x_StdPeriph_Driver/src/stm32f10x_tim.c ****   if((TIMx == TIM1) || (TIMx == TIM8))
 1098              		.loc 1 558 0
 1099 076e 7A68     		ldr	r2, [r7, #4]
 1100 0770 124B     		ldr	r3, .L47
 1101 0772 9A42     		cmp	r2, r3
 1102 0774 03D0     		beq	.L45
 1103              		.loc 1 558 0 is_stmt 0 discriminator 1
 1104 0776 7A68     		ldr	r2, [r7, #4]
 1105 0778 114B     		ldr	r3, .L47+4
 1106 077a 9A42     		cmp	r2, r3
 1107 077c 0BD1     		bne	.L46
 1108              	.L45:
 559:../lib/STM32F10x_StdPeriph_Driver/src/stm32f10x_tim.c ****   {
 560:../lib/STM32F10x_StdPeriph_Driver/src/stm32f10x_tim.c ****     assert_param(IS_TIM_OCIDLE_STATE(TIM_OCInitStruct->TIM_OCIdleState));
 561:../lib/STM32F10x_StdPeriph_Driver/src/stm32f10x_tim.c ****     /* Reset the Output Compare IDLE State */
 562:../lib/STM32F10x_StdPeriph_Driver/src/stm32f10x_tim.c ****     tmpcr2 &= (uint16_t)(~((uint16_t)TIM_CR2_OIS4));
 1109              		.loc 1 562 0 is_stmt 1
 1110 077e FB89     		ldrh	r3, [r7, #14]	@ movhi
 1111 0780 23F48043 		bic	r3, r3, #16384
 1112 0784 FB81     		strh	r3, [r7, #14]	@ movhi
 563:../lib/STM32F10x_StdPeriph_Driver/src/stm32f10x_tim.c ****     /* Set the Output Idle state */
 564:../lib/STM32F10x_StdPeriph_Driver/src/stm32f10x_tim.c ****     tmpcr2 |= (uint16_t)(TIM_OCInitStruct->TIM_OCIdleState << 6);
 1113              		.loc 1 564 0
 1114 0786 3B68     		ldr	r3, [r7, #0]
 1115 0788 9B89     		ldrh	r3, [r3, #12]
 1116 078a 4FEA8313 		lsl	r3, r3, #6
 1117 078e 9AB2     		uxth	r2, r3
 1118 0790 FB89     		ldrh	r3, [r7, #14]	@ movhi
 1119 0792 1343     		orrs	r3, r3, r2
 1120 0794 FB81     		strh	r3, [r7, #14]	@ movhi
 1121              	.L46:
 565:../lib/STM32F10x_StdPeriph_Driver/src/stm32f10x_tim.c ****   }
 566:../lib/STM32F10x_StdPeriph_Driver/src/stm32f10x_tim.c ****   /* Write to TIMx CR2 */
 567:../lib/STM32F10x_StdPeriph_Driver/src/stm32f10x_tim.c ****   TIMx->CR2 = tmpcr2;
 1122              		.loc 1 567 0
 1123 0796 7B68     		ldr	r3, [r7, #4]
 1124 0798 FA89     		ldrh	r2, [r7, #14]	@ movhi
 1125 079a 9A80     		strh	r2, [r3, #4]	@ movhi
 568:../lib/STM32F10x_StdPeriph_Driver/src/stm32f10x_tim.c ****   
 569:../lib/STM32F10x_StdPeriph_Driver/src/stm32f10x_tim.c ****   /* Write to TIMx CCMR2 */  
 570:../lib/STM32F10x_StdPeriph_Driver/src/stm32f10x_tim.c ****   TIMx->CCMR2 = tmpccmrx;
 1126              		.loc 1 570 0
 1127 079c 7B68     		ldr	r3, [r7, #4]
 1128 079e BA89     		ldrh	r2, [r7, #12]	@ movhi
 1129 07a0 9A83     		strh	r2, [r3, #28]	@ movhi
 571:../lib/STM32F10x_StdPeriph_Driver/src/stm32f10x_tim.c **** 
 572:../lib/STM32F10x_StdPeriph_Driver/src/stm32f10x_tim.c ****   /* Set the Capture Compare Register value */
 573:../lib/STM32F10x_StdPeriph_Driver/src/stm32f10x_tim.c ****   TIMx->CCR4 = TIM_OCInitStruct->TIM_Pulse;
 1130              		.loc 1 573 0
 1131 07a2 3B68     		ldr	r3, [r7, #0]
 1132 07a4 DA88     		ldrh	r2, [r3, #6]
 1133 07a6 7B68     		ldr	r3, [r7, #4]
 1134 07a8 A3F84020 		strh	r2, [r3, #64]	@ movhi
 574:../lib/STM32F10x_StdPeriph_Driver/src/stm32f10x_tim.c ****   
 575:../lib/STM32F10x_StdPeriph_Driver/src/stm32f10x_tim.c ****   /* Write to TIMx CCER */
 576:../lib/STM32F10x_StdPeriph_Driver/src/stm32f10x_tim.c ****   TIMx->CCER = tmpccer;
 1135              		.loc 1 576 0
 1136 07ac 7B68     		ldr	r3, [r7, #4]
 1137 07ae 7A89     		ldrh	r2, [r7, #10]	@ movhi
 1138 07b0 1A84     		strh	r2, [r3, #32]	@ movhi
 577:../lib/STM32F10x_StdPeriph_Driver/src/stm32f10x_tim.c **** }
 1139              		.loc 1 577 0
 1140 07b2 07F11407 		add	r7, r7, #20
 1141 07b6 BD46     		mov	sp, r7
 1142 07b8 80BC     		pop	{r7}
 1143 07ba 7047     		bx	lr
 1144              	.L48:
 1145              		.align	2
 1146              	.L47:
 1147 07bc 002C0140 		.word	1073818624
 1148 07c0 00340140 		.word	1073820672
 1149              		.cfi_endproc
 1150              	.LFE34:
 1152              		.align	2
 1153              		.global	TIM_ICInit
 1154              		.thumb
 1155              		.thumb_func
 1157              	TIM_ICInit:
 1158              	.LFB35:
 578:../lib/STM32F10x_StdPeriph_Driver/src/stm32f10x_tim.c **** 
 579:../lib/STM32F10x_StdPeriph_Driver/src/stm32f10x_tim.c **** /**
 580:../lib/STM32F10x_StdPeriph_Driver/src/stm32f10x_tim.c ****   * @brief  Initializes the TIM peripheral according to the specified
 581:../lib/STM32F10x_StdPeriph_Driver/src/stm32f10x_tim.c ****   *         parameters in the TIM_ICInitStruct.
 582:../lib/STM32F10x_StdPeriph_Driver/src/stm32f10x_tim.c ****   * @param  TIMx: where x can be  1 to 17 except 6 and 7 to select the TIM peripheral.
 583:../lib/STM32F10x_StdPeriph_Driver/src/stm32f10x_tim.c ****   * @param  TIM_ICInitStruct: pointer to a TIM_ICInitTypeDef structure
 584:../lib/STM32F10x_StdPeriph_Driver/src/stm32f10x_tim.c ****   *         that contains the configuration information for the specified TIM peripheral.
 585:../lib/STM32F10x_StdPeriph_Driver/src/stm32f10x_tim.c ****   * @retval None
 586:../lib/STM32F10x_StdPeriph_Driver/src/stm32f10x_tim.c ****   */
 587:../lib/STM32F10x_StdPeriph_Driver/src/stm32f10x_tim.c **** void TIM_ICInit(TIM_TypeDef* TIMx, TIM_ICInitTypeDef* TIM_ICInitStruct)
 588:../lib/STM32F10x_StdPeriph_Driver/src/stm32f10x_tim.c **** {
 1159              		.loc 1 588 0
 1160              		.cfi_startproc
 1161              		@ args = 0, pretend = 0, frame = 8
 1162              		@ frame_needed = 1, uses_anonymous_args = 0
 1163 07c4 80B5     		push	{r7, lr}
 1164              	.LCFI18:
 1165              		.cfi_def_cfa_offset 8
 1166              		.cfi_offset 7, -8
 1167              		.cfi_offset 14, -4
 1168 07c6 82B0     		sub	sp, sp, #8
 1169              	.LCFI19:
 1170              		.cfi_def_cfa_offset 16
 1171 07c8 00AF     		add	r7, sp, #0
 1172              	.LCFI20:
 1173              		.cfi_def_cfa_register 7
 1174 07ca 7860     		str	r0, [r7, #4]
 1175 07cc 3960     		str	r1, [r7, #0]
 589:../lib/STM32F10x_StdPeriph_Driver/src/stm32f10x_tim.c ****   /* Check the parameters */
 590:../lib/STM32F10x_StdPeriph_Driver/src/stm32f10x_tim.c ****   assert_param(IS_TIM_CHANNEL(TIM_ICInitStruct->TIM_Channel));  
 591:../lib/STM32F10x_StdPeriph_Driver/src/stm32f10x_tim.c ****   assert_param(IS_TIM_IC_SELECTION(TIM_ICInitStruct->TIM_ICSelection));
 592:../lib/STM32F10x_StdPeriph_Driver/src/stm32f10x_tim.c ****   assert_param(IS_TIM_IC_PRESCALER(TIM_ICInitStruct->TIM_ICPrescaler));
 593:../lib/STM32F10x_StdPeriph_Driver/src/stm32f10x_tim.c ****   assert_param(IS_TIM_IC_FILTER(TIM_ICInitStruct->TIM_ICFilter));
 594:../lib/STM32F10x_StdPeriph_Driver/src/stm32f10x_tim.c ****   
 595:../lib/STM32F10x_StdPeriph_Driver/src/stm32f10x_tim.c ****   if((TIMx == TIM1) || (TIMx == TIM8) || (TIMx == TIM2) || (TIMx == TIM3) ||
 596:../lib/STM32F10x_StdPeriph_Driver/src/stm32f10x_tim.c ****      (TIMx == TIM4) ||(TIMx == TIM5))
 597:../lib/STM32F10x_StdPeriph_Driver/src/stm32f10x_tim.c ****   {
 598:../lib/STM32F10x_StdPeriph_Driver/src/stm32f10x_tim.c ****     assert_param(IS_TIM_IC_POLARITY(TIM_ICInitStruct->TIM_ICPolarity));
 599:../lib/STM32F10x_StdPeriph_Driver/src/stm32f10x_tim.c ****   }
 600:../lib/STM32F10x_StdPeriph_Driver/src/stm32f10x_tim.c ****   else
 601:../lib/STM32F10x_StdPeriph_Driver/src/stm32f10x_tim.c ****   {
 602:../lib/STM32F10x_StdPeriph_Driver/src/stm32f10x_tim.c ****     assert_param(IS_TIM_IC_POLARITY_LITE(TIM_ICInitStruct->TIM_ICPolarity));
 603:../lib/STM32F10x_StdPeriph_Driver/src/stm32f10x_tim.c ****   }
 604:../lib/STM32F10x_StdPeriph_Driver/src/stm32f10x_tim.c ****   if (TIM_ICInitStruct->TIM_Channel == TIM_Channel_1)
 1176              		.loc 1 604 0
 1177 07ce 3B68     		ldr	r3, [r7, #0]
 1178 07d0 1B88     		ldrh	r3, [r3, #0]
 1179 07d2 002B     		cmp	r3, #0
 1180 07d4 0FD1     		bne	.L50
 605:../lib/STM32F10x_StdPeriph_Driver/src/stm32f10x_tim.c ****   {
 606:../lib/STM32F10x_StdPeriph_Driver/src/stm32f10x_tim.c ****     assert_param(IS_TIM_LIST8_PERIPH(TIMx));
 607:../lib/STM32F10x_StdPeriph_Driver/src/stm32f10x_tim.c ****     /* TI1 Configuration */
 608:../lib/STM32F10x_StdPeriph_Driver/src/stm32f10x_tim.c ****     TI1_Config(TIMx, TIM_ICInitStruct->TIM_ICPolarity,
 1181              		.loc 1 608 0
 1182 07d6 3B68     		ldr	r3, [r7, #0]
 1183 07d8 5988     		ldrh	r1, [r3, #2]
 609:../lib/STM32F10x_StdPeriph_Driver/src/stm32f10x_tim.c ****                TIM_ICInitStruct->TIM_ICSelection,
 1184              		.loc 1 609 0
 1185 07da 3B68     		ldr	r3, [r7, #0]
 608:../lib/STM32F10x_StdPeriph_Driver/src/stm32f10x_tim.c ****     TI1_Config(TIMx, TIM_ICInitStruct->TIM_ICPolarity,
 1186              		.loc 1 608 0
 1187 07dc 9A88     		ldrh	r2, [r3, #4]
 610:../lib/STM32F10x_StdPeriph_Driver/src/stm32f10x_tim.c ****                TIM_ICInitStruct->TIM_ICFilter);
 1188              		.loc 1 610 0
 1189 07de 3B68     		ldr	r3, [r7, #0]
 608:../lib/STM32F10x_StdPeriph_Driver/src/stm32f10x_tim.c ****     TI1_Config(TIMx, TIM_ICInitStruct->TIM_ICPolarity,
 1190              		.loc 1 608 0
 1191 07e0 1B89     		ldrh	r3, [r3, #8]
 1192 07e2 7868     		ldr	r0, [r7, #4]
 1193 07e4 01F0D4F9 		bl	TI1_Config
 611:../lib/STM32F10x_StdPeriph_Driver/src/stm32f10x_tim.c ****     /* Set the Input Capture Prescaler value */
 612:../lib/STM32F10x_StdPeriph_Driver/src/stm32f10x_tim.c ****     TIM_SetIC1Prescaler(TIMx, TIM_ICInitStruct->TIM_ICPrescaler);
 1194              		.loc 1 612 0
 1195 07e8 3B68     		ldr	r3, [r7, #0]
 1196 07ea DB88     		ldrh	r3, [r3, #6]
 1197 07ec 7868     		ldr	r0, [r7, #4]
 1198 07ee 1946     		mov	r1, r3
 1199 07f0 FFF7FEFF 		bl	TIM_SetIC1Prescaler
 1200 07f4 36E0     		b	.L49
 1201              	.L50:
 613:../lib/STM32F10x_StdPeriph_Driver/src/stm32f10x_tim.c ****   }
 614:../lib/STM32F10x_StdPeriph_Driver/src/stm32f10x_tim.c ****   else if (TIM_ICInitStruct->TIM_Channel == TIM_Channel_2)
 1202              		.loc 1 614 0
 1203 07f6 3B68     		ldr	r3, [r7, #0]
 1204 07f8 1B88     		ldrh	r3, [r3, #0]
 1205 07fa 042B     		cmp	r3, #4
 1206 07fc 0FD1     		bne	.L52
 615:../lib/STM32F10x_StdPeriph_Driver/src/stm32f10x_tim.c ****   {
 616:../lib/STM32F10x_StdPeriph_Driver/src/stm32f10x_tim.c ****     assert_param(IS_TIM_LIST6_PERIPH(TIMx));
 617:../lib/STM32F10x_StdPeriph_Driver/src/stm32f10x_tim.c ****     /* TI2 Configuration */
 618:../lib/STM32F10x_StdPeriph_Driver/src/stm32f10x_tim.c ****     TI2_Config(TIMx, TIM_ICInitStruct->TIM_ICPolarity,
 1207              		.loc 1 618 0
 1208 07fe 3B68     		ldr	r3, [r7, #0]
 1209 0800 5988     		ldrh	r1, [r3, #2]
 619:../lib/STM32F10x_StdPeriph_Driver/src/stm32f10x_tim.c ****                TIM_ICInitStruct->TIM_ICSelection,
 1210              		.loc 1 619 0
 1211 0802 3B68     		ldr	r3, [r7, #0]
 618:../lib/STM32F10x_StdPeriph_Driver/src/stm32f10x_tim.c ****     TI2_Config(TIMx, TIM_ICInitStruct->TIM_ICPolarity,
 1212              		.loc 1 618 0
 1213 0804 9A88     		ldrh	r2, [r3, #4]
 620:../lib/STM32F10x_StdPeriph_Driver/src/stm32f10x_tim.c ****                TIM_ICInitStruct->TIM_ICFilter);
 1214              		.loc 1 620 0
 1215 0806 3B68     		ldr	r3, [r7, #0]
 618:../lib/STM32F10x_StdPeriph_Driver/src/stm32f10x_tim.c ****     TI2_Config(TIMx, TIM_ICInitStruct->TIM_ICPolarity,
 1216              		.loc 1 618 0
 1217 0808 1B89     		ldrh	r3, [r3, #8]
 1218 080a 7868     		ldr	r0, [r7, #4]
 1219 080c 01F02EFA 		bl	TI2_Config
 621:../lib/STM32F10x_StdPeriph_Driver/src/stm32f10x_tim.c ****     /* Set the Input Capture Prescaler value */
 622:../lib/STM32F10x_StdPeriph_Driver/src/stm32f10x_tim.c ****     TIM_SetIC2Prescaler(TIMx, TIM_ICInitStruct->TIM_ICPrescaler);
 1220              		.loc 1 622 0
 1221 0810 3B68     		ldr	r3, [r7, #0]
 1222 0812 DB88     		ldrh	r3, [r3, #6]
 1223 0814 7868     		ldr	r0, [r7, #4]
 1224 0816 1946     		mov	r1, r3
 1225 0818 FFF7FEFF 		bl	TIM_SetIC2Prescaler
 1226 081c 22E0     		b	.L49
 1227              	.L52:
 623:../lib/STM32F10x_StdPeriph_Driver/src/stm32f10x_tim.c ****   }
 624:../lib/STM32F10x_StdPeriph_Driver/src/stm32f10x_tim.c ****   else if (TIM_ICInitStruct->TIM_Channel == TIM_Channel_3)
 1228              		.loc 1 624 0
 1229 081e 3B68     		ldr	r3, [r7, #0]
 1230 0820 1B88     		ldrh	r3, [r3, #0]
 1231 0822 082B     		cmp	r3, #8
 1232 0824 0FD1     		bne	.L53
 625:../lib/STM32F10x_StdPeriph_Driver/src/stm32f10x_tim.c ****   {
 626:../lib/STM32F10x_StdPeriph_Driver/src/stm32f10x_tim.c ****     assert_param(IS_TIM_LIST3_PERIPH(TIMx));
 627:../lib/STM32F10x_StdPeriph_Driver/src/stm32f10x_tim.c ****     /* TI3 Configuration */
 628:../lib/STM32F10x_StdPeriph_Driver/src/stm32f10x_tim.c ****     TI3_Config(TIMx,  TIM_ICInitStruct->TIM_ICPolarity,
 1233              		.loc 1 628 0
 1234 0826 3B68     		ldr	r3, [r7, #0]
 1235 0828 5988     		ldrh	r1, [r3, #2]
 629:../lib/STM32F10x_StdPeriph_Driver/src/stm32f10x_tim.c ****                TIM_ICInitStruct->TIM_ICSelection,
 1236              		.loc 1 629 0
 1237 082a 3B68     		ldr	r3, [r7, #0]
 628:../lib/STM32F10x_StdPeriph_Driver/src/stm32f10x_tim.c ****     TI3_Config(TIMx,  TIM_ICInitStruct->TIM_ICPolarity,
 1238              		.loc 1 628 0
 1239 082c 9A88     		ldrh	r2, [r3, #4]
 630:../lib/STM32F10x_StdPeriph_Driver/src/stm32f10x_tim.c ****                TIM_ICInitStruct->TIM_ICFilter);
 1240              		.loc 1 630 0
 1241 082e 3B68     		ldr	r3, [r7, #0]
 628:../lib/STM32F10x_StdPeriph_Driver/src/stm32f10x_tim.c ****     TI3_Config(TIMx,  TIM_ICInitStruct->TIM_ICPolarity,
 1242              		.loc 1 628 0
 1243 0830 1B89     		ldrh	r3, [r3, #8]
 1244 0832 7868     		ldr	r0, [r7, #4]
 1245 0834 01F096FA 		bl	TI3_Config
 631:../lib/STM32F10x_StdPeriph_Driver/src/stm32f10x_tim.c ****     /* Set the Input Capture Prescaler value */
 632:../lib/STM32F10x_StdPeriph_Driver/src/stm32f10x_tim.c ****     TIM_SetIC3Prescaler(TIMx, TIM_ICInitStruct->TIM_ICPrescaler);
 1246              		.loc 1 632 0
 1247 0838 3B68     		ldr	r3, [r7, #0]
 1248 083a DB88     		ldrh	r3, [r3, #6]
 1249 083c 7868     		ldr	r0, [r7, #4]
 1250 083e 1946     		mov	r1, r3
 1251 0840 FFF7FEFF 		bl	TIM_SetIC3Prescaler
 1252 0844 0EE0     		b	.L49
 1253              	.L53:
 633:../lib/STM32F10x_StdPeriph_Driver/src/stm32f10x_tim.c ****   }
 634:../lib/STM32F10x_StdPeriph_Driver/src/stm32f10x_tim.c ****   else
 635:../lib/STM32F10x_StdPeriph_Driver/src/stm32f10x_tim.c ****   {
 636:../lib/STM32F10x_StdPeriph_Driver/src/stm32f10x_tim.c ****     assert_param(IS_TIM_LIST3_PERIPH(TIMx));
 637:../lib/STM32F10x_StdPeriph_Driver/src/stm32f10x_tim.c ****     /* TI4 Configuration */
 638:../lib/STM32F10x_StdPeriph_Driver/src/stm32f10x_tim.c ****     TI4_Config(TIMx, TIM_ICInitStruct->TIM_ICPolarity,
 1254              		.loc 1 638 0
 1255 0846 3B68     		ldr	r3, [r7, #0]
 1256 0848 5988     		ldrh	r1, [r3, #2]
 639:../lib/STM32F10x_StdPeriph_Driver/src/stm32f10x_tim.c ****                TIM_ICInitStruct->TIM_ICSelection,
 1257              		.loc 1 639 0
 1258 084a 3B68     		ldr	r3, [r7, #0]
 638:../lib/STM32F10x_StdPeriph_Driver/src/stm32f10x_tim.c ****     TI4_Config(TIMx, TIM_ICInitStruct->TIM_ICPolarity,
 1259              		.loc 1 638 0
 1260 084c 9A88     		ldrh	r2, [r3, #4]
 640:../lib/STM32F10x_StdPeriph_Driver/src/stm32f10x_tim.c ****                TIM_ICInitStruct->TIM_ICFilter);
 1261              		.loc 1 640 0
 1262 084e 3B68     		ldr	r3, [r7, #0]
 638:../lib/STM32F10x_StdPeriph_Driver/src/stm32f10x_tim.c ****     TI4_Config(TIMx, TIM_ICInitStruct->TIM_ICPolarity,
 1263              		.loc 1 638 0
 1264 0850 1B89     		ldrh	r3, [r3, #8]
 1265 0852 7868     		ldr	r0, [r7, #4]
 1266 0854 01F0FAFA 		bl	TI4_Config
 641:../lib/STM32F10x_StdPeriph_Driver/src/stm32f10x_tim.c ****     /* Set the Input Capture Prescaler value */
 642:../lib/STM32F10x_StdPeriph_Driver/src/stm32f10x_tim.c ****     TIM_SetIC4Prescaler(TIMx, TIM_ICInitStruct->TIM_ICPrescaler);
 1267              		.loc 1 642 0
 1268 0858 3B68     		ldr	r3, [r7, #0]
 1269 085a DB88     		ldrh	r3, [r3, #6]
 1270 085c 7868     		ldr	r0, [r7, #4]
 1271 085e 1946     		mov	r1, r3
 1272 0860 FFF7FEFF 		bl	TIM_SetIC4Prescaler
 1273              	.L49:
 643:../lib/STM32F10x_StdPeriph_Driver/src/stm32f10x_tim.c ****   }
 644:../lib/STM32F10x_StdPeriph_Driver/src/stm32f10x_tim.c **** }
 1274              		.loc 1 644 0
 1275 0864 07F10807 		add	r7, r7, #8
 1276 0868 BD46     		mov	sp, r7
 1277 086a 80BD     		pop	{r7, pc}
 1278              		.cfi_endproc
 1279              	.LFE35:
 1281              		.align	2
 1282              		.global	TIM_PWMIConfig
 1283              		.thumb
 1284              		.thumb_func
 1286              	TIM_PWMIConfig:
 1287              	.LFB36:
 645:../lib/STM32F10x_StdPeriph_Driver/src/stm32f10x_tim.c **** 
 646:../lib/STM32F10x_StdPeriph_Driver/src/stm32f10x_tim.c **** /**
 647:../lib/STM32F10x_StdPeriph_Driver/src/stm32f10x_tim.c ****   * @brief  Configures the TIM peripheral according to the specified
 648:../lib/STM32F10x_StdPeriph_Driver/src/stm32f10x_tim.c ****   *         parameters in the TIM_ICInitStruct to measure an external PWM signal.
 649:../lib/STM32F10x_StdPeriph_Driver/src/stm32f10x_tim.c ****   * @param  TIMx: where x can be  1, 2, 3, 4, 5, 8, 9, 12 or 15 to select the TIM peripheral.
 650:../lib/STM32F10x_StdPeriph_Driver/src/stm32f10x_tim.c ****   * @param  TIM_ICInitStruct: pointer to a TIM_ICInitTypeDef structure
 651:../lib/STM32F10x_StdPeriph_Driver/src/stm32f10x_tim.c ****   *         that contains the configuration information for the specified TIM peripheral.
 652:../lib/STM32F10x_StdPeriph_Driver/src/stm32f10x_tim.c ****   * @retval None
 653:../lib/STM32F10x_StdPeriph_Driver/src/stm32f10x_tim.c ****   */
 654:../lib/STM32F10x_StdPeriph_Driver/src/stm32f10x_tim.c **** void TIM_PWMIConfig(TIM_TypeDef* TIMx, TIM_ICInitTypeDef* TIM_ICInitStruct)
 655:../lib/STM32F10x_StdPeriph_Driver/src/stm32f10x_tim.c **** {
 1288              		.loc 1 655 0
 1289              		.cfi_startproc
 1290              		@ args = 0, pretend = 0, frame = 16
 1291              		@ frame_needed = 1, uses_anonymous_args = 0
 1292 086c 80B5     		push	{r7, lr}
 1293              	.LCFI21:
 1294              		.cfi_def_cfa_offset 8
 1295              		.cfi_offset 7, -8
 1296              		.cfi_offset 14, -4
 1297 086e 84B0     		sub	sp, sp, #16
 1298              	.LCFI22:
 1299              		.cfi_def_cfa_offset 24
 1300 0870 00AF     		add	r7, sp, #0
 1301              	.LCFI23:
 1302              		.cfi_def_cfa_register 7
 1303 0872 7860     		str	r0, [r7, #4]
 1304 0874 3960     		str	r1, [r7, #0]
 656:../lib/STM32F10x_StdPeriph_Driver/src/stm32f10x_tim.c ****   uint16_t icoppositepolarity = TIM_ICPolarity_Rising;
 1305              		.loc 1 656 0
 1306 0876 4FF00003 		mov	r3, #0
 1307 087a FB81     		strh	r3, [r7, #14]	@ movhi
 657:../lib/STM32F10x_StdPeriph_Driver/src/stm32f10x_tim.c ****   uint16_t icoppositeselection = TIM_ICSelection_DirectTI;
 1308              		.loc 1 657 0
 1309 087c 4FF00103 		mov	r3, #1
 1310 0880 BB81     		strh	r3, [r7, #12]	@ movhi
 658:../lib/STM32F10x_StdPeriph_Driver/src/stm32f10x_tim.c ****   /* Check the parameters */
 659:../lib/STM32F10x_StdPeriph_Driver/src/stm32f10x_tim.c ****   assert_param(IS_TIM_LIST6_PERIPH(TIMx));
 660:../lib/STM32F10x_StdPeriph_Driver/src/stm32f10x_tim.c ****   /* Select the Opposite Input Polarity */
 661:../lib/STM32F10x_StdPeriph_Driver/src/stm32f10x_tim.c ****   if (TIM_ICInitStruct->TIM_ICPolarity == TIM_ICPolarity_Rising)
 1311              		.loc 1 661 0
 1312 0882 3B68     		ldr	r3, [r7, #0]
 1313 0884 5B88     		ldrh	r3, [r3, #2]
 1314 0886 002B     		cmp	r3, #0
 1315 0888 03D1     		bne	.L55
 662:../lib/STM32F10x_StdPeriph_Driver/src/stm32f10x_tim.c ****   {
 663:../lib/STM32F10x_StdPeriph_Driver/src/stm32f10x_tim.c ****     icoppositepolarity = TIM_ICPolarity_Falling;
 1316              		.loc 1 663 0
 1317 088a 4FF00203 		mov	r3, #2
 1318 088e FB81     		strh	r3, [r7, #14]	@ movhi
 1319 0890 02E0     		b	.L56
 1320              	.L55:
 664:../lib/STM32F10x_StdPeriph_Driver/src/stm32f10x_tim.c ****   }
 665:../lib/STM32F10x_StdPeriph_Driver/src/stm32f10x_tim.c ****   else
 666:../lib/STM32F10x_StdPeriph_Driver/src/stm32f10x_tim.c ****   {
 667:../lib/STM32F10x_StdPeriph_Driver/src/stm32f10x_tim.c ****     icoppositepolarity = TIM_ICPolarity_Rising;
 1321              		.loc 1 667 0
 1322 0892 4FF00003 		mov	r3, #0
 1323 0896 FB81     		strh	r3, [r7, #14]	@ movhi
 1324              	.L56:
 668:../lib/STM32F10x_StdPeriph_Driver/src/stm32f10x_tim.c ****   }
 669:../lib/STM32F10x_StdPeriph_Driver/src/stm32f10x_tim.c ****   /* Select the Opposite Input */
 670:../lib/STM32F10x_StdPeriph_Driver/src/stm32f10x_tim.c ****   if (TIM_ICInitStruct->TIM_ICSelection == TIM_ICSelection_DirectTI)
 1325              		.loc 1 670 0
 1326 0898 3B68     		ldr	r3, [r7, #0]
 1327 089a 9B88     		ldrh	r3, [r3, #4]
 1328 089c 012B     		cmp	r3, #1
 1329 089e 03D1     		bne	.L57
 671:../lib/STM32F10x_StdPeriph_Driver/src/stm32f10x_tim.c ****   {
 672:../lib/STM32F10x_StdPeriph_Driver/src/stm32f10x_tim.c ****     icoppositeselection = TIM_ICSelection_IndirectTI;
 1330              		.loc 1 672 0
 1331 08a0 4FF00203 		mov	r3, #2
 1332 08a4 BB81     		strh	r3, [r7, #12]	@ movhi
 1333 08a6 02E0     		b	.L58
 1334              	.L57:
 673:../lib/STM32F10x_StdPeriph_Driver/src/stm32f10x_tim.c ****   }
 674:../lib/STM32F10x_StdPeriph_Driver/src/stm32f10x_tim.c ****   else
 675:../lib/STM32F10x_StdPeriph_Driver/src/stm32f10x_tim.c ****   {
 676:../lib/STM32F10x_StdPeriph_Driver/src/stm32f10x_tim.c ****     icoppositeselection = TIM_ICSelection_DirectTI;
 1335              		.loc 1 676 0
 1336 08a8 4FF00103 		mov	r3, #1
 1337 08ac BB81     		strh	r3, [r7, #12]	@ movhi
 1338              	.L58:
 677:../lib/STM32F10x_StdPeriph_Driver/src/stm32f10x_tim.c ****   }
 678:../lib/STM32F10x_StdPeriph_Driver/src/stm32f10x_tim.c ****   if (TIM_ICInitStruct->TIM_Channel == TIM_Channel_1)
 1339              		.loc 1 678 0
 1340 08ae 3B68     		ldr	r3, [r7, #0]
 1341 08b0 1B88     		ldrh	r3, [r3, #0]
 1342 08b2 002B     		cmp	r3, #0
 1343 08b4 1CD1     		bne	.L59
 679:../lib/STM32F10x_StdPeriph_Driver/src/stm32f10x_tim.c ****   {
 680:../lib/STM32F10x_StdPeriph_Driver/src/stm32f10x_tim.c ****     /* TI1 Configuration */
 681:../lib/STM32F10x_StdPeriph_Driver/src/stm32f10x_tim.c ****     TI1_Config(TIMx, TIM_ICInitStruct->TIM_ICPolarity, TIM_ICInitStruct->TIM_ICSelection,
 1344              		.loc 1 681 0
 1345 08b6 3B68     		ldr	r3, [r7, #0]
 1346 08b8 5988     		ldrh	r1, [r3, #2]
 1347 08ba 3B68     		ldr	r3, [r7, #0]
 1348 08bc 9A88     		ldrh	r2, [r3, #4]
 682:../lib/STM32F10x_StdPeriph_Driver/src/stm32f10x_tim.c ****                TIM_ICInitStruct->TIM_ICFilter);
 1349              		.loc 1 682 0
 1350 08be 3B68     		ldr	r3, [r7, #0]
 681:../lib/STM32F10x_StdPeriph_Driver/src/stm32f10x_tim.c ****     TI1_Config(TIMx, TIM_ICInitStruct->TIM_ICPolarity, TIM_ICInitStruct->TIM_ICSelection,
 1351              		.loc 1 681 0
 1352 08c0 1B89     		ldrh	r3, [r3, #8]
 1353 08c2 7868     		ldr	r0, [r7, #4]
 1354 08c4 01F064F9 		bl	TI1_Config
 683:../lib/STM32F10x_StdPeriph_Driver/src/stm32f10x_tim.c ****     /* Set the Input Capture Prescaler value */
 684:../lib/STM32F10x_StdPeriph_Driver/src/stm32f10x_tim.c ****     TIM_SetIC1Prescaler(TIMx, TIM_ICInitStruct->TIM_ICPrescaler);
 1355              		.loc 1 684 0
 1356 08c8 3B68     		ldr	r3, [r7, #0]
 1357 08ca DB88     		ldrh	r3, [r3, #6]
 1358 08cc 7868     		ldr	r0, [r7, #4]
 1359 08ce 1946     		mov	r1, r3
 1360 08d0 FFF7FEFF 		bl	TIM_SetIC1Prescaler
 685:../lib/STM32F10x_StdPeriph_Driver/src/stm32f10x_tim.c ****     /* TI2 Configuration */
 686:../lib/STM32F10x_StdPeriph_Driver/src/stm32f10x_tim.c ****     TI2_Config(TIMx, icoppositepolarity, icoppositeselection, TIM_ICInitStruct->TIM_ICFilter);
 1361              		.loc 1 686 0
 1362 08d4 3B68     		ldr	r3, [r7, #0]
 1363 08d6 1B89     		ldrh	r3, [r3, #8]
 1364 08d8 F989     		ldrh	r1, [r7, #14]
 1365 08da BA89     		ldrh	r2, [r7, #12]
 1366 08dc 7868     		ldr	r0, [r7, #4]
 1367 08de 01F0C5F9 		bl	TI2_Config
 687:../lib/STM32F10x_StdPeriph_Driver/src/stm32f10x_tim.c ****     /* Set the Input Capture Prescaler value */
 688:../lib/STM32F10x_StdPeriph_Driver/src/stm32f10x_tim.c ****     TIM_SetIC2Prescaler(TIMx, TIM_ICInitStruct->TIM_ICPrescaler);
 1368              		.loc 1 688 0
 1369 08e2 3B68     		ldr	r3, [r7, #0]
 1370 08e4 DB88     		ldrh	r3, [r3, #6]
 1371 08e6 7868     		ldr	r0, [r7, #4]
 1372 08e8 1946     		mov	r1, r3
 1373 08ea FFF7FEFF 		bl	TIM_SetIC2Prescaler
 1374 08ee 1BE0     		b	.L54
 1375              	.L59:
 689:../lib/STM32F10x_StdPeriph_Driver/src/stm32f10x_tim.c ****   }
 690:../lib/STM32F10x_StdPeriph_Driver/src/stm32f10x_tim.c ****   else
 691:../lib/STM32F10x_StdPeriph_Driver/src/stm32f10x_tim.c ****   { 
 692:../lib/STM32F10x_StdPeriph_Driver/src/stm32f10x_tim.c ****     /* TI2 Configuration */
 693:../lib/STM32F10x_StdPeriph_Driver/src/stm32f10x_tim.c ****     TI2_Config(TIMx, TIM_ICInitStruct->TIM_ICPolarity, TIM_ICInitStruct->TIM_ICSelection,
 1376              		.loc 1 693 0
 1377 08f0 3B68     		ldr	r3, [r7, #0]
 1378 08f2 5988     		ldrh	r1, [r3, #2]
 1379 08f4 3B68     		ldr	r3, [r7, #0]
 1380 08f6 9A88     		ldrh	r2, [r3, #4]
 694:../lib/STM32F10x_StdPeriph_Driver/src/stm32f10x_tim.c ****                TIM_ICInitStruct->TIM_ICFilter);
 1381              		.loc 1 694 0
 1382 08f8 3B68     		ldr	r3, [r7, #0]
 693:../lib/STM32F10x_StdPeriph_Driver/src/stm32f10x_tim.c ****     TI2_Config(TIMx, TIM_ICInitStruct->TIM_ICPolarity, TIM_ICInitStruct->TIM_ICSelection,
 1383              		.loc 1 693 0
 1384 08fa 1B89     		ldrh	r3, [r3, #8]
 1385 08fc 7868     		ldr	r0, [r7, #4]
 1386 08fe 01F0B5F9 		bl	TI2_Config
 695:../lib/STM32F10x_StdPeriph_Driver/src/stm32f10x_tim.c ****     /* Set the Input Capture Prescaler value */
 696:../lib/STM32F10x_StdPeriph_Driver/src/stm32f10x_tim.c ****     TIM_SetIC2Prescaler(TIMx, TIM_ICInitStruct->TIM_ICPrescaler);
 1387              		.loc 1 696 0
 1388 0902 3B68     		ldr	r3, [r7, #0]
 1389 0904 DB88     		ldrh	r3, [r3, #6]
 1390 0906 7868     		ldr	r0, [r7, #4]
 1391 0908 1946     		mov	r1, r3
 1392 090a FFF7FEFF 		bl	TIM_SetIC2Prescaler
 697:../lib/STM32F10x_StdPeriph_Driver/src/stm32f10x_tim.c ****     /* TI1 Configuration */
 698:../lib/STM32F10x_StdPeriph_Driver/src/stm32f10x_tim.c ****     TI1_Config(TIMx, icoppositepolarity, icoppositeselection, TIM_ICInitStruct->TIM_ICFilter);
 1393              		.loc 1 698 0
 1394 090e 3B68     		ldr	r3, [r7, #0]
 1395 0910 1B89     		ldrh	r3, [r3, #8]
 1396 0912 F989     		ldrh	r1, [r7, #14]
 1397 0914 BA89     		ldrh	r2, [r7, #12]
 1398 0916 7868     		ldr	r0, [r7, #4]
 1399 0918 01F03AF9 		bl	TI1_Config
 699:../lib/STM32F10x_StdPeriph_Driver/src/stm32f10x_tim.c ****     /* Set the Input Capture Prescaler value */
 700:../lib/STM32F10x_StdPeriph_Driver/src/stm32f10x_tim.c ****     TIM_SetIC1Prescaler(TIMx, TIM_ICInitStruct->TIM_ICPrescaler);
 1400              		.loc 1 700 0
 1401 091c 3B68     		ldr	r3, [r7, #0]
 1402 091e DB88     		ldrh	r3, [r3, #6]
 1403 0920 7868     		ldr	r0, [r7, #4]
 1404 0922 1946     		mov	r1, r3
 1405 0924 FFF7FEFF 		bl	TIM_SetIC1Prescaler
 1406              	.L54:
 701:../lib/STM32F10x_StdPeriph_Driver/src/stm32f10x_tim.c ****   }
 702:../lib/STM32F10x_StdPeriph_Driver/src/stm32f10x_tim.c **** }
 1407              		.loc 1 702 0
 1408 0928 07F11007 		add	r7, r7, #16
 1409 092c BD46     		mov	sp, r7
 1410 092e 80BD     		pop	{r7, pc}
 1411              		.cfi_endproc
 1412              	.LFE36:
 1414              		.align	2
 1415              		.global	TIM_BDTRConfig
 1416              		.thumb
 1417              		.thumb_func
 1419              	TIM_BDTRConfig:
 1420              	.LFB37:
 703:../lib/STM32F10x_StdPeriph_Driver/src/stm32f10x_tim.c **** 
 704:../lib/STM32F10x_StdPeriph_Driver/src/stm32f10x_tim.c **** /**
 705:../lib/STM32F10x_StdPeriph_Driver/src/stm32f10x_tim.c ****   * @brief  Configures the: Break feature, dead time, Lock level, the OSSI,
 706:../lib/STM32F10x_StdPeriph_Driver/src/stm32f10x_tim.c ****   *         the OSSR State and the AOE(automatic output enable).
 707:../lib/STM32F10x_StdPeriph_Driver/src/stm32f10x_tim.c ****   * @param  TIMx: where x can be  1 or 8 to select the TIM 
 708:../lib/STM32F10x_StdPeriph_Driver/src/stm32f10x_tim.c ****   * @param  TIM_BDTRInitStruct: pointer to a TIM_BDTRInitTypeDef structure that
 709:../lib/STM32F10x_StdPeriph_Driver/src/stm32f10x_tim.c ****   *         contains the BDTR Register configuration  information for the TIM peripheral.
 710:../lib/STM32F10x_StdPeriph_Driver/src/stm32f10x_tim.c ****   * @retval None
 711:../lib/STM32F10x_StdPeriph_Driver/src/stm32f10x_tim.c ****   */
 712:../lib/STM32F10x_StdPeriph_Driver/src/stm32f10x_tim.c **** void TIM_BDTRConfig(TIM_TypeDef* TIMx, TIM_BDTRInitTypeDef *TIM_BDTRInitStruct)
 713:../lib/STM32F10x_StdPeriph_Driver/src/stm32f10x_tim.c **** {
 1421              		.loc 1 713 0
 1422              		.cfi_startproc
 1423              		@ args = 0, pretend = 0, frame = 8
 1424              		@ frame_needed = 1, uses_anonymous_args = 0
 1425              		@ link register save eliminated.
 1426 0930 80B4     		push	{r7}
 1427              	.LCFI24:
 1428              		.cfi_def_cfa_offset 4
 1429              		.cfi_offset 7, -4
 1430 0932 83B0     		sub	sp, sp, #12
 1431              	.LCFI25:
 1432              		.cfi_def_cfa_offset 16
 1433 0934 00AF     		add	r7, sp, #0
 1434              	.LCFI26:
 1435              		.cfi_def_cfa_register 7
 1436 0936 7860     		str	r0, [r7, #4]
 1437 0938 3960     		str	r1, [r7, #0]
 714:../lib/STM32F10x_StdPeriph_Driver/src/stm32f10x_tim.c ****   /* Check the parameters */
 715:../lib/STM32F10x_StdPeriph_Driver/src/stm32f10x_tim.c ****   assert_param(IS_TIM_LIST2_PERIPH(TIMx));
 716:../lib/STM32F10x_StdPeriph_Driver/src/stm32f10x_tim.c ****   assert_param(IS_TIM_OSSR_STATE(TIM_BDTRInitStruct->TIM_OSSRState));
 717:../lib/STM32F10x_StdPeriph_Driver/src/stm32f10x_tim.c ****   assert_param(IS_TIM_OSSI_STATE(TIM_BDTRInitStruct->TIM_OSSIState));
 718:../lib/STM32F10x_StdPeriph_Driver/src/stm32f10x_tim.c ****   assert_param(IS_TIM_LOCK_LEVEL(TIM_BDTRInitStruct->TIM_LOCKLevel));
 719:../lib/STM32F10x_StdPeriph_Driver/src/stm32f10x_tim.c ****   assert_param(IS_TIM_BREAK_STATE(TIM_BDTRInitStruct->TIM_Break));
 720:../lib/STM32F10x_StdPeriph_Driver/src/stm32f10x_tim.c ****   assert_param(IS_TIM_BREAK_POLARITY(TIM_BDTRInitStruct->TIM_BreakPolarity));
 721:../lib/STM32F10x_StdPeriph_Driver/src/stm32f10x_tim.c ****   assert_param(IS_TIM_AUTOMATIC_OUTPUT_STATE(TIM_BDTRInitStruct->TIM_AutomaticOutput));
 722:../lib/STM32F10x_StdPeriph_Driver/src/stm32f10x_tim.c ****   /* Set the Lock level, the Break enable Bit and the Ploarity, the OSSR State,
 723:../lib/STM32F10x_StdPeriph_Driver/src/stm32f10x_tim.c ****      the OSSI State, the dead time value and the Automatic Output Enable Bit */
 724:../lib/STM32F10x_StdPeriph_Driver/src/stm32f10x_tim.c ****   TIMx->BDTR = (uint32_t)TIM_BDTRInitStruct->TIM_OSSRState | TIM_BDTRInitStruct->TIM_OSSIState |
 1438              		.loc 1 724 0
 1439 093a 3B68     		ldr	r3, [r7, #0]
 1440 093c 1A88     		ldrh	r2, [r3, #0]
 1441 093e 3B68     		ldr	r3, [r7, #0]
 1442 0940 5B88     		ldrh	r3, [r3, #2]
 1443 0942 1343     		orrs	r3, r3, r2
 1444 0944 9AB2     		uxth	r2, r3
 725:../lib/STM32F10x_StdPeriph_Driver/src/stm32f10x_tim.c ****              TIM_BDTRInitStruct->TIM_LOCKLevel | TIM_BDTRInitStruct->TIM_DeadTime |
 1445              		.loc 1 725 0
 1446 0946 3B68     		ldr	r3, [r7, #0]
 1447 0948 9B88     		ldrh	r3, [r3, #4]
 724:../lib/STM32F10x_StdPeriph_Driver/src/stm32f10x_tim.c ****   TIMx->BDTR = (uint32_t)TIM_BDTRInitStruct->TIM_OSSRState | TIM_BDTRInitStruct->TIM_OSSIState |
 1448              		.loc 1 724 0
 1449 094a 1343     		orrs	r3, r3, r2
 1450 094c 9AB2     		uxth	r2, r3
 1451              		.loc 1 725 0
 1452 094e 3B68     		ldr	r3, [r7, #0]
 1453 0950 DB88     		ldrh	r3, [r3, #6]
 724:../lib/STM32F10x_StdPeriph_Driver/src/stm32f10x_tim.c ****   TIMx->BDTR = (uint32_t)TIM_BDTRInitStruct->TIM_OSSRState | TIM_BDTRInitStruct->TIM_OSSIState |
 1454              		.loc 1 724 0
 1455 0952 1343     		orrs	r3, r3, r2
 1456 0954 9AB2     		uxth	r2, r3
 726:../lib/STM32F10x_StdPeriph_Driver/src/stm32f10x_tim.c ****              TIM_BDTRInitStruct->TIM_Break | TIM_BDTRInitStruct->TIM_BreakPolarity |
 1457              		.loc 1 726 0
 1458 0956 3B68     		ldr	r3, [r7, #0]
 1459 0958 1B89     		ldrh	r3, [r3, #8]
 724:../lib/STM32F10x_StdPeriph_Driver/src/stm32f10x_tim.c ****   TIMx->BDTR = (uint32_t)TIM_BDTRInitStruct->TIM_OSSRState | TIM_BDTRInitStruct->TIM_OSSIState |
 1460              		.loc 1 724 0
 1461 095a 1343     		orrs	r3, r3, r2
 1462 095c 9AB2     		uxth	r2, r3
 1463              		.loc 1 726 0
 1464 095e 3B68     		ldr	r3, [r7, #0]
 1465 0960 5B89     		ldrh	r3, [r3, #10]
 724:../lib/STM32F10x_StdPeriph_Driver/src/stm32f10x_tim.c ****   TIMx->BDTR = (uint32_t)TIM_BDTRInitStruct->TIM_OSSRState | TIM_BDTRInitStruct->TIM_OSSIState |
 1466              		.loc 1 724 0
 1467 0962 1343     		orrs	r3, r3, r2
 1468 0964 9AB2     		uxth	r2, r3
 727:../lib/STM32F10x_StdPeriph_Driver/src/stm32f10x_tim.c ****              TIM_BDTRInitStruct->TIM_AutomaticOutput;
 1469              		.loc 1 727 0
 1470 0966 3B68     		ldr	r3, [r7, #0]
 1471 0968 9B89     		ldrh	r3, [r3, #12]
 724:../lib/STM32F10x_StdPeriph_Driver/src/stm32f10x_tim.c ****   TIMx->BDTR = (uint32_t)TIM_BDTRInitStruct->TIM_OSSRState | TIM_BDTRInitStruct->TIM_OSSIState |
 1472              		.loc 1 724 0
 1473 096a 1343     		orrs	r3, r3, r2
 1474 096c 9AB2     		uxth	r2, r3
 1475 096e 7B68     		ldr	r3, [r7, #4]
 1476 0970 A3F84420 		strh	r2, [r3, #68]	@ movhi
 728:../lib/STM32F10x_StdPeriph_Driver/src/stm32f10x_tim.c **** }
 1477              		.loc 1 728 0
 1478 0974 07F10C07 		add	r7, r7, #12
 1479 0978 BD46     		mov	sp, r7
 1480 097a 80BC     		pop	{r7}
 1481 097c 7047     		bx	lr
 1482              		.cfi_endproc
 1483              	.LFE37:
 1485 097e 00BF     		.align	2
 1486              		.global	TIM_TimeBaseStructInit
 1487              		.thumb
 1488              		.thumb_func
 1490              	TIM_TimeBaseStructInit:
 1491              	.LFB38:
 729:../lib/STM32F10x_StdPeriph_Driver/src/stm32f10x_tim.c **** 
 730:../lib/STM32F10x_StdPeriph_Driver/src/stm32f10x_tim.c **** /**
 731:../lib/STM32F10x_StdPeriph_Driver/src/stm32f10x_tim.c ****   * @brief  Fills each TIM_TimeBaseInitStruct member with its default value.
 732:../lib/STM32F10x_StdPeriph_Driver/src/stm32f10x_tim.c ****   * @param  TIM_TimeBaseInitStruct : pointer to a TIM_TimeBaseInitTypeDef
 733:../lib/STM32F10x_StdPeriph_Driver/src/stm32f10x_tim.c ****   *         structure which will be initialized.
 734:../lib/STM32F10x_StdPeriph_Driver/src/stm32f10x_tim.c ****   * @retval None
 735:../lib/STM32F10x_StdPeriph_Driver/src/stm32f10x_tim.c ****   */
 736:../lib/STM32F10x_StdPeriph_Driver/src/stm32f10x_tim.c **** void TIM_TimeBaseStructInit(TIM_TimeBaseInitTypeDef* TIM_TimeBaseInitStruct)
 737:../lib/STM32F10x_StdPeriph_Driver/src/stm32f10x_tim.c **** {
 1492              		.loc 1 737 0
 1493              		.cfi_startproc
 1494              		@ args = 0, pretend = 0, frame = 8
 1495              		@ frame_needed = 1, uses_anonymous_args = 0
 1496              		@ link register save eliminated.
 1497 0980 80B4     		push	{r7}
 1498              	.LCFI27:
 1499              		.cfi_def_cfa_offset 4
 1500              		.cfi_offset 7, -4
 1501 0982 83B0     		sub	sp, sp, #12
 1502              	.LCFI28:
 1503              		.cfi_def_cfa_offset 16
 1504 0984 00AF     		add	r7, sp, #0
 1505              	.LCFI29:
 1506              		.cfi_def_cfa_register 7
 1507 0986 7860     		str	r0, [r7, #4]
 738:../lib/STM32F10x_StdPeriph_Driver/src/stm32f10x_tim.c ****   /* Set the default configuration */
 739:../lib/STM32F10x_StdPeriph_Driver/src/stm32f10x_tim.c ****   TIM_TimeBaseInitStruct->TIM_Period = 0xFFFF;
 1508              		.loc 1 739 0
 1509 0988 7B68     		ldr	r3, [r7, #4]
 1510 098a 4FF6FF72 		movw	r2, #65535
 1511 098e 9A80     		strh	r2, [r3, #4]	@ movhi
 740:../lib/STM32F10x_StdPeriph_Driver/src/stm32f10x_tim.c ****   TIM_TimeBaseInitStruct->TIM_Prescaler = 0x0000;
 1512              		.loc 1 740 0
 1513 0990 7B68     		ldr	r3, [r7, #4]
 1514 0992 4FF00002 		mov	r2, #0
 1515 0996 1A80     		strh	r2, [r3, #0]	@ movhi
 741:../lib/STM32F10x_StdPeriph_Driver/src/stm32f10x_tim.c ****   TIM_TimeBaseInitStruct->TIM_ClockDivision = TIM_CKD_DIV1;
 1516              		.loc 1 741 0
 1517 0998 7B68     		ldr	r3, [r7, #4]
 1518 099a 4FF00002 		mov	r2, #0
 1519 099e DA80     		strh	r2, [r3, #6]	@ movhi
 742:../lib/STM32F10x_StdPeriph_Driver/src/stm32f10x_tim.c ****   TIM_TimeBaseInitStruct->TIM_CounterMode = TIM_CounterMode_Up;
 1520              		.loc 1 742 0
 1521 09a0 7B68     		ldr	r3, [r7, #4]
 1522 09a2 4FF00002 		mov	r2, #0
 1523 09a6 5A80     		strh	r2, [r3, #2]	@ movhi
 743:../lib/STM32F10x_StdPeriph_Driver/src/stm32f10x_tim.c ****   TIM_TimeBaseInitStruct->TIM_RepetitionCounter = 0x0000;
 1524              		.loc 1 743 0
 1525 09a8 7B68     		ldr	r3, [r7, #4]
 1526 09aa 4FF00002 		mov	r2, #0
 1527 09ae 1A72     		strb	r2, [r3, #8]
 744:../lib/STM32F10x_StdPeriph_Driver/src/stm32f10x_tim.c **** }
 1528              		.loc 1 744 0
 1529 09b0 07F10C07 		add	r7, r7, #12
 1530 09b4 BD46     		mov	sp, r7
 1531 09b6 80BC     		pop	{r7}
 1532 09b8 7047     		bx	lr
 1533              		.cfi_endproc
 1534              	.LFE38:
 1536 09ba 00BF     		.align	2
 1537              		.global	TIM_OCStructInit
 1538              		.thumb
 1539              		.thumb_func
 1541              	TIM_OCStructInit:
 1542              	.LFB39:
 745:../lib/STM32F10x_StdPeriph_Driver/src/stm32f10x_tim.c **** 
 746:../lib/STM32F10x_StdPeriph_Driver/src/stm32f10x_tim.c **** /**
 747:../lib/STM32F10x_StdPeriph_Driver/src/stm32f10x_tim.c ****   * @brief  Fills each TIM_OCInitStruct member with its default value.
 748:../lib/STM32F10x_StdPeriph_Driver/src/stm32f10x_tim.c ****   * @param  TIM_OCInitStruct : pointer to a TIM_OCInitTypeDef structure which will
 749:../lib/STM32F10x_StdPeriph_Driver/src/stm32f10x_tim.c ****   *         be initialized.
 750:../lib/STM32F10x_StdPeriph_Driver/src/stm32f10x_tim.c ****   * @retval None
 751:../lib/STM32F10x_StdPeriph_Driver/src/stm32f10x_tim.c ****   */
 752:../lib/STM32F10x_StdPeriph_Driver/src/stm32f10x_tim.c **** void TIM_OCStructInit(TIM_OCInitTypeDef* TIM_OCInitStruct)
 753:../lib/STM32F10x_StdPeriph_Driver/src/stm32f10x_tim.c **** {
 1543              		.loc 1 753 0
 1544              		.cfi_startproc
 1545              		@ args = 0, pretend = 0, frame = 8
 1546              		@ frame_needed = 1, uses_anonymous_args = 0
 1547              		@ link register save eliminated.
 1548 09bc 80B4     		push	{r7}
 1549              	.LCFI30:
 1550              		.cfi_def_cfa_offset 4
 1551              		.cfi_offset 7, -4
 1552 09be 83B0     		sub	sp, sp, #12
 1553              	.LCFI31:
 1554              		.cfi_def_cfa_offset 16
 1555 09c0 00AF     		add	r7, sp, #0
 1556              	.LCFI32:
 1557              		.cfi_def_cfa_register 7
 1558 09c2 7860     		str	r0, [r7, #4]
 754:../lib/STM32F10x_StdPeriph_Driver/src/stm32f10x_tim.c ****   /* Set the default configuration */
 755:../lib/STM32F10x_StdPeriph_Driver/src/stm32f10x_tim.c ****   TIM_OCInitStruct->TIM_OCMode = TIM_OCMode_Timing;
 1559              		.loc 1 755 0
 1560 09c4 7B68     		ldr	r3, [r7, #4]
 1561 09c6 4FF00002 		mov	r2, #0
 1562 09ca 1A80     		strh	r2, [r3, #0]	@ movhi
 756:../lib/STM32F10x_StdPeriph_Driver/src/stm32f10x_tim.c ****   TIM_OCInitStruct->TIM_OutputState = TIM_OutputState_Disable;
 1563              		.loc 1 756 0
 1564 09cc 7B68     		ldr	r3, [r7, #4]
 1565 09ce 4FF00002 		mov	r2, #0
 1566 09d2 5A80     		strh	r2, [r3, #2]	@ movhi
 757:../lib/STM32F10x_StdPeriph_Driver/src/stm32f10x_tim.c ****   TIM_OCInitStruct->TIM_OutputNState = TIM_OutputNState_Disable;
 1567              		.loc 1 757 0
 1568 09d4 7B68     		ldr	r3, [r7, #4]
 1569 09d6 4FF00002 		mov	r2, #0
 1570 09da 9A80     		strh	r2, [r3, #4]	@ movhi
 758:../lib/STM32F10x_StdPeriph_Driver/src/stm32f10x_tim.c ****   TIM_OCInitStruct->TIM_Pulse = 0x0000;
 1571              		.loc 1 758 0
 1572 09dc 7B68     		ldr	r3, [r7, #4]
 1573 09de 4FF00002 		mov	r2, #0
 1574 09e2 DA80     		strh	r2, [r3, #6]	@ movhi
 759:../lib/STM32F10x_StdPeriph_Driver/src/stm32f10x_tim.c ****   TIM_OCInitStruct->TIM_OCPolarity = TIM_OCPolarity_High;
 1575              		.loc 1 759 0
 1576 09e4 7B68     		ldr	r3, [r7, #4]
 1577 09e6 4FF00002 		mov	r2, #0
 1578 09ea 1A81     		strh	r2, [r3, #8]	@ movhi
 760:../lib/STM32F10x_StdPeriph_Driver/src/stm32f10x_tim.c ****   TIM_OCInitStruct->TIM_OCNPolarity = TIM_OCPolarity_High;
 1579              		.loc 1 760 0
 1580 09ec 7B68     		ldr	r3, [r7, #4]
 1581 09ee 4FF00002 		mov	r2, #0
 1582 09f2 5A81     		strh	r2, [r3, #10]	@ movhi
 761:../lib/STM32F10x_StdPeriph_Driver/src/stm32f10x_tim.c ****   TIM_OCInitStruct->TIM_OCIdleState = TIM_OCIdleState_Reset;
 1583              		.loc 1 761 0
 1584 09f4 7B68     		ldr	r3, [r7, #4]
 1585 09f6 4FF00002 		mov	r2, #0
 1586 09fa 9A81     		strh	r2, [r3, #12]	@ movhi
 762:../lib/STM32F10x_StdPeriph_Driver/src/stm32f10x_tim.c ****   TIM_OCInitStruct->TIM_OCNIdleState = TIM_OCNIdleState_Reset;
 1587              		.loc 1 762 0
 1588 09fc 7B68     		ldr	r3, [r7, #4]
 1589 09fe 4FF00002 		mov	r2, #0
 1590 0a02 DA81     		strh	r2, [r3, #14]	@ movhi
 763:../lib/STM32F10x_StdPeriph_Driver/src/stm32f10x_tim.c **** }
 1591              		.loc 1 763 0
 1592 0a04 07F10C07 		add	r7, r7, #12
 1593 0a08 BD46     		mov	sp, r7
 1594 0a0a 80BC     		pop	{r7}
 1595 0a0c 7047     		bx	lr
 1596              		.cfi_endproc
 1597              	.LFE39:
 1599 0a0e 00BF     		.align	2
 1600              		.global	TIM_ICStructInit
 1601              		.thumb
 1602              		.thumb_func
 1604              	TIM_ICStructInit:
 1605              	.LFB40:
 764:../lib/STM32F10x_StdPeriph_Driver/src/stm32f10x_tim.c **** 
 765:../lib/STM32F10x_StdPeriph_Driver/src/stm32f10x_tim.c **** /**
 766:../lib/STM32F10x_StdPeriph_Driver/src/stm32f10x_tim.c ****   * @brief  Fills each TIM_ICInitStruct member with its default value.
 767:../lib/STM32F10x_StdPeriph_Driver/src/stm32f10x_tim.c ****   * @param  TIM_ICInitStruct: pointer to a TIM_ICInitTypeDef structure which will
 768:../lib/STM32F10x_StdPeriph_Driver/src/stm32f10x_tim.c ****   *         be initialized.
 769:../lib/STM32F10x_StdPeriph_Driver/src/stm32f10x_tim.c ****   * @retval None
 770:../lib/STM32F10x_StdPeriph_Driver/src/stm32f10x_tim.c ****   */
 771:../lib/STM32F10x_StdPeriph_Driver/src/stm32f10x_tim.c **** void TIM_ICStructInit(TIM_ICInitTypeDef* TIM_ICInitStruct)
 772:../lib/STM32F10x_StdPeriph_Driver/src/stm32f10x_tim.c **** {
 1606              		.loc 1 772 0
 1607              		.cfi_startproc
 1608              		@ args = 0, pretend = 0, frame = 8
 1609              		@ frame_needed = 1, uses_anonymous_args = 0
 1610              		@ link register save eliminated.
 1611 0a10 80B4     		push	{r7}
 1612              	.LCFI33:
 1613              		.cfi_def_cfa_offset 4
 1614              		.cfi_offset 7, -4
 1615 0a12 83B0     		sub	sp, sp, #12
 1616              	.LCFI34:
 1617              		.cfi_def_cfa_offset 16
 1618 0a14 00AF     		add	r7, sp, #0
 1619              	.LCFI35:
 1620              		.cfi_def_cfa_register 7
 1621 0a16 7860     		str	r0, [r7, #4]
 773:../lib/STM32F10x_StdPeriph_Driver/src/stm32f10x_tim.c ****   /* Set the default configuration */
 774:../lib/STM32F10x_StdPeriph_Driver/src/stm32f10x_tim.c ****   TIM_ICInitStruct->TIM_Channel = TIM_Channel_1;
 1622              		.loc 1 774 0
 1623 0a18 7B68     		ldr	r3, [r7, #4]
 1624 0a1a 4FF00002 		mov	r2, #0
 1625 0a1e 1A80     		strh	r2, [r3, #0]	@ movhi
 775:../lib/STM32F10x_StdPeriph_Driver/src/stm32f10x_tim.c ****   TIM_ICInitStruct->TIM_ICPolarity = TIM_ICPolarity_Rising;
 1626              		.loc 1 775 0
 1627 0a20 7B68     		ldr	r3, [r7, #4]
 1628 0a22 4FF00002 		mov	r2, #0
 1629 0a26 5A80     		strh	r2, [r3, #2]	@ movhi
 776:../lib/STM32F10x_StdPeriph_Driver/src/stm32f10x_tim.c ****   TIM_ICInitStruct->TIM_ICSelection = TIM_ICSelection_DirectTI;
 1630              		.loc 1 776 0
 1631 0a28 7B68     		ldr	r3, [r7, #4]
 1632 0a2a 4FF00102 		mov	r2, #1
 1633 0a2e 9A80     		strh	r2, [r3, #4]	@ movhi
 777:../lib/STM32F10x_StdPeriph_Driver/src/stm32f10x_tim.c ****   TIM_ICInitStruct->TIM_ICPrescaler = TIM_ICPSC_DIV1;
 1634              		.loc 1 777 0
 1635 0a30 7B68     		ldr	r3, [r7, #4]
 1636 0a32 4FF00002 		mov	r2, #0
 1637 0a36 DA80     		strh	r2, [r3, #6]	@ movhi
 778:../lib/STM32F10x_StdPeriph_Driver/src/stm32f10x_tim.c ****   TIM_ICInitStruct->TIM_ICFilter = 0x00;
 1638              		.loc 1 778 0
 1639 0a38 7B68     		ldr	r3, [r7, #4]
 1640 0a3a 4FF00002 		mov	r2, #0
 1641 0a3e 1A81     		strh	r2, [r3, #8]	@ movhi
 779:../lib/STM32F10x_StdPeriph_Driver/src/stm32f10x_tim.c **** }
 1642              		.loc 1 779 0
 1643 0a40 07F10C07 		add	r7, r7, #12
 1644 0a44 BD46     		mov	sp, r7
 1645 0a46 80BC     		pop	{r7}
 1646 0a48 7047     		bx	lr
 1647              		.cfi_endproc
 1648              	.LFE40:
 1650 0a4a 00BF     		.align	2
 1651              		.global	TIM_BDTRStructInit
 1652              		.thumb
 1653              		.thumb_func
 1655              	TIM_BDTRStructInit:
 1656              	.LFB41:
 780:../lib/STM32F10x_StdPeriph_Driver/src/stm32f10x_tim.c **** 
 781:../lib/STM32F10x_StdPeriph_Driver/src/stm32f10x_tim.c **** /**
 782:../lib/STM32F10x_StdPeriph_Driver/src/stm32f10x_tim.c ****   * @brief  Fills each TIM_BDTRInitStruct member with its default value.
 783:../lib/STM32F10x_StdPeriph_Driver/src/stm32f10x_tim.c ****   * @param  TIM_BDTRInitStruct: pointer to a TIM_BDTRInitTypeDef structure which
 784:../lib/STM32F10x_StdPeriph_Driver/src/stm32f10x_tim.c ****   *         will be initialized.
 785:../lib/STM32F10x_StdPeriph_Driver/src/stm32f10x_tim.c ****   * @retval None
 786:../lib/STM32F10x_StdPeriph_Driver/src/stm32f10x_tim.c ****   */
 787:../lib/STM32F10x_StdPeriph_Driver/src/stm32f10x_tim.c **** void TIM_BDTRStructInit(TIM_BDTRInitTypeDef* TIM_BDTRInitStruct)
 788:../lib/STM32F10x_StdPeriph_Driver/src/stm32f10x_tim.c **** {
 1657              		.loc 1 788 0
 1658              		.cfi_startproc
 1659              		@ args = 0, pretend = 0, frame = 8
 1660              		@ frame_needed = 1, uses_anonymous_args = 0
 1661              		@ link register save eliminated.
 1662 0a4c 80B4     		push	{r7}
 1663              	.LCFI36:
 1664              		.cfi_def_cfa_offset 4
 1665              		.cfi_offset 7, -4
 1666 0a4e 83B0     		sub	sp, sp, #12
 1667              	.LCFI37:
 1668              		.cfi_def_cfa_offset 16
 1669 0a50 00AF     		add	r7, sp, #0
 1670              	.LCFI38:
 1671              		.cfi_def_cfa_register 7
 1672 0a52 7860     		str	r0, [r7, #4]
 789:../lib/STM32F10x_StdPeriph_Driver/src/stm32f10x_tim.c ****   /* Set the default configuration */
 790:../lib/STM32F10x_StdPeriph_Driver/src/stm32f10x_tim.c ****   TIM_BDTRInitStruct->TIM_OSSRState = TIM_OSSRState_Disable;
 1673              		.loc 1 790 0
 1674 0a54 7B68     		ldr	r3, [r7, #4]
 1675 0a56 4FF00002 		mov	r2, #0
 1676 0a5a 1A80     		strh	r2, [r3, #0]	@ movhi
 791:../lib/STM32F10x_StdPeriph_Driver/src/stm32f10x_tim.c ****   TIM_BDTRInitStruct->TIM_OSSIState = TIM_OSSIState_Disable;
 1677              		.loc 1 791 0
 1678 0a5c 7B68     		ldr	r3, [r7, #4]
 1679 0a5e 4FF00002 		mov	r2, #0
 1680 0a62 5A80     		strh	r2, [r3, #2]	@ movhi
 792:../lib/STM32F10x_StdPeriph_Driver/src/stm32f10x_tim.c ****   TIM_BDTRInitStruct->TIM_LOCKLevel = TIM_LOCKLevel_OFF;
 1681              		.loc 1 792 0
 1682 0a64 7B68     		ldr	r3, [r7, #4]
 1683 0a66 4FF00002 		mov	r2, #0
 1684 0a6a 9A80     		strh	r2, [r3, #4]	@ movhi
 793:../lib/STM32F10x_StdPeriph_Driver/src/stm32f10x_tim.c ****   TIM_BDTRInitStruct->TIM_DeadTime = 0x00;
 1685              		.loc 1 793 0
 1686 0a6c 7B68     		ldr	r3, [r7, #4]
 1687 0a6e 4FF00002 		mov	r2, #0
 1688 0a72 DA80     		strh	r2, [r3, #6]	@ movhi
 794:../lib/STM32F10x_StdPeriph_Driver/src/stm32f10x_tim.c ****   TIM_BDTRInitStruct->TIM_Break = TIM_Break_Disable;
 1689              		.loc 1 794 0
 1690 0a74 7B68     		ldr	r3, [r7, #4]
 1691 0a76 4FF00002 		mov	r2, #0
 1692 0a7a 1A81     		strh	r2, [r3, #8]	@ movhi
 795:../lib/STM32F10x_StdPeriph_Driver/src/stm32f10x_tim.c ****   TIM_BDTRInitStruct->TIM_BreakPolarity = TIM_BreakPolarity_Low;
 1693              		.loc 1 795 0
 1694 0a7c 7B68     		ldr	r3, [r7, #4]
 1695 0a7e 4FF00002 		mov	r2, #0
 1696 0a82 5A81     		strh	r2, [r3, #10]	@ movhi
 796:../lib/STM32F10x_StdPeriph_Driver/src/stm32f10x_tim.c ****   TIM_BDTRInitStruct->TIM_AutomaticOutput = TIM_AutomaticOutput_Disable;
 1697              		.loc 1 796 0
 1698 0a84 7B68     		ldr	r3, [r7, #4]
 1699 0a86 4FF00002 		mov	r2, #0
 1700 0a8a 9A81     		strh	r2, [r3, #12]	@ movhi
 797:../lib/STM32F10x_StdPeriph_Driver/src/stm32f10x_tim.c **** }
 1701              		.loc 1 797 0
 1702 0a8c 07F10C07 		add	r7, r7, #12
 1703 0a90 BD46     		mov	sp, r7
 1704 0a92 80BC     		pop	{r7}
 1705 0a94 7047     		bx	lr
 1706              		.cfi_endproc
 1707              	.LFE41:
 1709 0a96 00BF     		.align	2
 1710              		.global	TIM_Cmd
 1711              		.thumb
 1712              		.thumb_func
 1714              	TIM_Cmd:
 1715              	.LFB42:
 798:../lib/STM32F10x_StdPeriph_Driver/src/stm32f10x_tim.c **** 
 799:../lib/STM32F10x_StdPeriph_Driver/src/stm32f10x_tim.c **** /**
 800:../lib/STM32F10x_StdPeriph_Driver/src/stm32f10x_tim.c ****   * @brief  Enables or disables the specified TIM peripheral.
 801:../lib/STM32F10x_StdPeriph_Driver/src/stm32f10x_tim.c ****   * @param  TIMx: where x can be 1 to 17 to select the TIMx peripheral.
 802:../lib/STM32F10x_StdPeriph_Driver/src/stm32f10x_tim.c ****   * @param  NewState: new state of the TIMx peripheral.
 803:../lib/STM32F10x_StdPeriph_Driver/src/stm32f10x_tim.c ****   *   This parameter can be: ENABLE or DISABLE.
 804:../lib/STM32F10x_StdPeriph_Driver/src/stm32f10x_tim.c ****   * @retval None
 805:../lib/STM32F10x_StdPeriph_Driver/src/stm32f10x_tim.c ****   */
 806:../lib/STM32F10x_StdPeriph_Driver/src/stm32f10x_tim.c **** void TIM_Cmd(TIM_TypeDef* TIMx, FunctionalState NewState)
 807:../lib/STM32F10x_StdPeriph_Driver/src/stm32f10x_tim.c **** {
 1716              		.loc 1 807 0
 1717              		.cfi_startproc
 1718              		@ args = 0, pretend = 0, frame = 8
 1719              		@ frame_needed = 1, uses_anonymous_args = 0
 1720              		@ link register save eliminated.
 1721 0a98 80B4     		push	{r7}
 1722              	.LCFI39:
 1723              		.cfi_def_cfa_offset 4
 1724              		.cfi_offset 7, -4
 1725 0a9a 83B0     		sub	sp, sp, #12
 1726              	.LCFI40:
 1727              		.cfi_def_cfa_offset 16
 1728 0a9c 00AF     		add	r7, sp, #0
 1729              	.LCFI41:
 1730              		.cfi_def_cfa_register 7
 1731 0a9e 7860     		str	r0, [r7, #4]
 1732 0aa0 0B46     		mov	r3, r1
 1733 0aa2 FB70     		strb	r3, [r7, #3]
 808:../lib/STM32F10x_StdPeriph_Driver/src/stm32f10x_tim.c ****   /* Check the parameters */
 809:../lib/STM32F10x_StdPeriph_Driver/src/stm32f10x_tim.c ****   assert_param(IS_TIM_ALL_PERIPH(TIMx));
 810:../lib/STM32F10x_StdPeriph_Driver/src/stm32f10x_tim.c ****   assert_param(IS_FUNCTIONAL_STATE(NewState));
 811:../lib/STM32F10x_StdPeriph_Driver/src/stm32f10x_tim.c ****   
 812:../lib/STM32F10x_StdPeriph_Driver/src/stm32f10x_tim.c ****   if (NewState != DISABLE)
 1734              		.loc 1 812 0
 1735 0aa4 FB78     		ldrb	r3, [r7, #3]	@ zero_extendqisi2
 1736 0aa6 002B     		cmp	r3, #0
 1737 0aa8 08D0     		beq	.L67
 813:../lib/STM32F10x_StdPeriph_Driver/src/stm32f10x_tim.c ****   {
 814:../lib/STM32F10x_StdPeriph_Driver/src/stm32f10x_tim.c ****     /* Enable the TIM Counter */
 815:../lib/STM32F10x_StdPeriph_Driver/src/stm32f10x_tim.c ****     TIMx->CR1 |= TIM_CR1_CEN;
 1738              		.loc 1 815 0
 1739 0aaa 7B68     		ldr	r3, [r7, #4]
 1740 0aac 1B88     		ldrh	r3, [r3, #0]	@ movhi
 1741 0aae 9BB2     		uxth	r3, r3
 1742 0ab0 43F00103 		orr	r3, r3, #1
 1743 0ab4 9AB2     		uxth	r2, r3
 1744 0ab6 7B68     		ldr	r3, [r7, #4]
 1745 0ab8 1A80     		strh	r2, [r3, #0]	@ movhi
 1746 0aba 07E0     		b	.L66
 1747              	.L67:
 816:../lib/STM32F10x_StdPeriph_Driver/src/stm32f10x_tim.c ****   }
 817:../lib/STM32F10x_StdPeriph_Driver/src/stm32f10x_tim.c ****   else
 818:../lib/STM32F10x_StdPeriph_Driver/src/stm32f10x_tim.c ****   {
 819:../lib/STM32F10x_StdPeriph_Driver/src/stm32f10x_tim.c ****     /* Disable the TIM Counter */
 820:../lib/STM32F10x_StdPeriph_Driver/src/stm32f10x_tim.c ****     TIMx->CR1 &= (uint16_t)(~((uint16_t)TIM_CR1_CEN));
 1748              		.loc 1 820 0
 1749 0abc 7B68     		ldr	r3, [r7, #4]
 1750 0abe 1B88     		ldrh	r3, [r3, #0]	@ movhi
 1751 0ac0 9BB2     		uxth	r3, r3
 1752 0ac2 23F00103 		bic	r3, r3, #1
 1753 0ac6 9AB2     		uxth	r2, r3
 1754 0ac8 7B68     		ldr	r3, [r7, #4]
 1755 0aca 1A80     		strh	r2, [r3, #0]	@ movhi
 1756              	.L66:
 821:../lib/STM32F10x_StdPeriph_Driver/src/stm32f10x_tim.c ****   }
 822:../lib/STM32F10x_StdPeriph_Driver/src/stm32f10x_tim.c **** }
 1757              		.loc 1 822 0
 1758 0acc 07F10C07 		add	r7, r7, #12
 1759 0ad0 BD46     		mov	sp, r7
 1760 0ad2 80BC     		pop	{r7}
 1761 0ad4 7047     		bx	lr
 1762              		.cfi_endproc
 1763              	.LFE42:
 1765 0ad6 00BF     		.align	2
 1766              		.global	TIM_CtrlPWMOutputs
 1767              		.thumb
 1768              		.thumb_func
 1770              	TIM_CtrlPWMOutputs:
 1771              	.LFB43:
 823:../lib/STM32F10x_StdPeriph_Driver/src/stm32f10x_tim.c **** 
 824:../lib/STM32F10x_StdPeriph_Driver/src/stm32f10x_tim.c **** /**
 825:../lib/STM32F10x_StdPeriph_Driver/src/stm32f10x_tim.c ****   * @brief  Enables or disables the TIM peripheral Main Outputs.
 826:../lib/STM32F10x_StdPeriph_Driver/src/stm32f10x_tim.c ****   * @param  TIMx: where x can be 1, 8, 15, 16 or 17 to select the TIMx peripheral.
 827:../lib/STM32F10x_StdPeriph_Driver/src/stm32f10x_tim.c ****   * @param  NewState: new state of the TIM peripheral Main Outputs.
 828:../lib/STM32F10x_StdPeriph_Driver/src/stm32f10x_tim.c ****   *   This parameter can be: ENABLE or DISABLE.
 829:../lib/STM32F10x_StdPeriph_Driver/src/stm32f10x_tim.c ****   * @retval None
 830:../lib/STM32F10x_StdPeriph_Driver/src/stm32f10x_tim.c ****   */
 831:../lib/STM32F10x_StdPeriph_Driver/src/stm32f10x_tim.c **** void TIM_CtrlPWMOutputs(TIM_TypeDef* TIMx, FunctionalState NewState)
 832:../lib/STM32F10x_StdPeriph_Driver/src/stm32f10x_tim.c **** {
 1772              		.loc 1 832 0
 1773              		.cfi_startproc
 1774              		@ args = 0, pretend = 0, frame = 8
 1775              		@ frame_needed = 1, uses_anonymous_args = 0
 1776              		@ link register save eliminated.
 1777 0ad8 80B4     		push	{r7}
 1778              	.LCFI42:
 1779              		.cfi_def_cfa_offset 4
 1780              		.cfi_offset 7, -4
 1781 0ada 83B0     		sub	sp, sp, #12
 1782              	.LCFI43:
 1783              		.cfi_def_cfa_offset 16
 1784 0adc 00AF     		add	r7, sp, #0
 1785              	.LCFI44:
 1786              		.cfi_def_cfa_register 7
 1787 0ade 7860     		str	r0, [r7, #4]
 1788 0ae0 0B46     		mov	r3, r1
 1789 0ae2 FB70     		strb	r3, [r7, #3]
 833:../lib/STM32F10x_StdPeriph_Driver/src/stm32f10x_tim.c ****   /* Check the parameters */
 834:../lib/STM32F10x_StdPeriph_Driver/src/stm32f10x_tim.c ****   assert_param(IS_TIM_LIST2_PERIPH(TIMx));
 835:../lib/STM32F10x_StdPeriph_Driver/src/stm32f10x_tim.c ****   assert_param(IS_FUNCTIONAL_STATE(NewState));
 836:../lib/STM32F10x_StdPeriph_Driver/src/stm32f10x_tim.c ****   if (NewState != DISABLE)
 1790              		.loc 1 836 0
 1791 0ae4 FB78     		ldrb	r3, [r7, #3]	@ zero_extendqisi2
 1792 0ae6 002B     		cmp	r3, #0
 1793 0ae8 0CD0     		beq	.L70
 837:../lib/STM32F10x_StdPeriph_Driver/src/stm32f10x_tim.c ****   {
 838:../lib/STM32F10x_StdPeriph_Driver/src/stm32f10x_tim.c ****     /* Enable the TIM Main Output */
 839:../lib/STM32F10x_StdPeriph_Driver/src/stm32f10x_tim.c ****     TIMx->BDTR |= TIM_BDTR_MOE;
 1794              		.loc 1 839 0
 1795 0aea 7B68     		ldr	r3, [r7, #4]
 1796 0aec B3F84430 		ldrh	r3, [r3, #68]	@ movhi
 1797 0af0 9BB2     		uxth	r3, r3
 1798 0af2 6FEA4343 		mvn	r3, r3, lsl #17
 1799 0af6 6FEA5343 		mvn	r3, r3, lsr #17
 1800 0afa 9AB2     		uxth	r2, r3
 1801 0afc 7B68     		ldr	r3, [r7, #4]
 1802 0afe A3F84420 		strh	r2, [r3, #68]	@ movhi
 1803 0b02 0BE0     		b	.L69
 1804              	.L70:
 840:../lib/STM32F10x_StdPeriph_Driver/src/stm32f10x_tim.c ****   }
 841:../lib/STM32F10x_StdPeriph_Driver/src/stm32f10x_tim.c ****   else
 842:../lib/STM32F10x_StdPeriph_Driver/src/stm32f10x_tim.c ****   {
 843:../lib/STM32F10x_StdPeriph_Driver/src/stm32f10x_tim.c ****     /* Disable the TIM Main Output */
 844:../lib/STM32F10x_StdPeriph_Driver/src/stm32f10x_tim.c ****     TIMx->BDTR &= (uint16_t)(~((uint16_t)TIM_BDTR_MOE));
 1805              		.loc 1 844 0
 1806 0b04 7B68     		ldr	r3, [r7, #4]
 1807 0b06 B3F84430 		ldrh	r3, [r3, #68]	@ movhi
 1808 0b0a 9BB2     		uxth	r3, r3
 1809 0b0c 4FEA4343 		lsl	r3, r3, #17
 1810 0b10 4FEA5343 		lsr	r3, r3, #17
 1811 0b14 9AB2     		uxth	r2, r3
 1812 0b16 7B68     		ldr	r3, [r7, #4]
 1813 0b18 A3F84420 		strh	r2, [r3, #68]	@ movhi
 1814              	.L69:
 845:../lib/STM32F10x_StdPeriph_Driver/src/stm32f10x_tim.c ****   }  
 846:../lib/STM32F10x_StdPeriph_Driver/src/stm32f10x_tim.c **** }
 1815              		.loc 1 846 0
 1816 0b1c 07F10C07 		add	r7, r7, #12
 1817 0b20 BD46     		mov	sp, r7
 1818 0b22 80BC     		pop	{r7}
 1819 0b24 7047     		bx	lr
 1820              		.cfi_endproc
 1821              	.LFE43:
 1823 0b26 00BF     		.align	2
 1824              		.global	TIM_ITConfig
 1825              		.thumb
 1826              		.thumb_func
 1828              	TIM_ITConfig:
 1829              	.LFB44:
 847:../lib/STM32F10x_StdPeriph_Driver/src/stm32f10x_tim.c **** 
 848:../lib/STM32F10x_StdPeriph_Driver/src/stm32f10x_tim.c **** /**
 849:../lib/STM32F10x_StdPeriph_Driver/src/stm32f10x_tim.c ****   * @brief  Enables or disables the specified TIM interrupts.
 850:../lib/STM32F10x_StdPeriph_Driver/src/stm32f10x_tim.c ****   * @param  TIMx: where x can be 1 to 17 to select the TIMx peripheral.
 851:../lib/STM32F10x_StdPeriph_Driver/src/stm32f10x_tim.c ****   * @param  TIM_IT: specifies the TIM interrupts sources to be enabled or disabled.
 852:../lib/STM32F10x_StdPeriph_Driver/src/stm32f10x_tim.c ****   *   This parameter can be any combination of the following values:
 853:../lib/STM32F10x_StdPeriph_Driver/src/stm32f10x_tim.c ****   *     @arg TIM_IT_Update: TIM update Interrupt source
 854:../lib/STM32F10x_StdPeriph_Driver/src/stm32f10x_tim.c ****   *     @arg TIM_IT_CC1: TIM Capture Compare 1 Interrupt source
 855:../lib/STM32F10x_StdPeriph_Driver/src/stm32f10x_tim.c ****   *     @arg TIM_IT_CC2: TIM Capture Compare 2 Interrupt source
 856:../lib/STM32F10x_StdPeriph_Driver/src/stm32f10x_tim.c ****   *     @arg TIM_IT_CC3: TIM Capture Compare 3 Interrupt source
 857:../lib/STM32F10x_StdPeriph_Driver/src/stm32f10x_tim.c ****   *     @arg TIM_IT_CC4: TIM Capture Compare 4 Interrupt source
 858:../lib/STM32F10x_StdPeriph_Driver/src/stm32f10x_tim.c ****   *     @arg TIM_IT_COM: TIM Commutation Interrupt source
 859:../lib/STM32F10x_StdPeriph_Driver/src/stm32f10x_tim.c ****   *     @arg TIM_IT_Trigger: TIM Trigger Interrupt source
 860:../lib/STM32F10x_StdPeriph_Driver/src/stm32f10x_tim.c ****   *     @arg TIM_IT_Break: TIM Break Interrupt source
 861:../lib/STM32F10x_StdPeriph_Driver/src/stm32f10x_tim.c ****   * @note 
 862:../lib/STM32F10x_StdPeriph_Driver/src/stm32f10x_tim.c ****   *   - TIM6 and TIM7 can only generate an update interrupt.
 863:../lib/STM32F10x_StdPeriph_Driver/src/stm32f10x_tim.c ****   *   - TIM9, TIM12 and TIM15 can have only TIM_IT_Update, TIM_IT_CC1,
 864:../lib/STM32F10x_StdPeriph_Driver/src/stm32f10x_tim.c ****   *      TIM_IT_CC2 or TIM_IT_Trigger. 
 865:../lib/STM32F10x_StdPeriph_Driver/src/stm32f10x_tim.c ****   *   - TIM10, TIM11, TIM13, TIM14, TIM16 and TIM17 can have TIM_IT_Update or TIM_IT_CC1.   
 866:../lib/STM32F10x_StdPeriph_Driver/src/stm32f10x_tim.c ****   *   - TIM_IT_Break is used only with TIM1, TIM8 and TIM15. 
 867:../lib/STM32F10x_StdPeriph_Driver/src/stm32f10x_tim.c ****   *   - TIM_IT_COM is used only with TIM1, TIM8, TIM15, TIM16 and TIM17.    
 868:../lib/STM32F10x_StdPeriph_Driver/src/stm32f10x_tim.c ****   * @param  NewState: new state of the TIM interrupts.
 869:../lib/STM32F10x_StdPeriph_Driver/src/stm32f10x_tim.c ****   *   This parameter can be: ENABLE or DISABLE.
 870:../lib/STM32F10x_StdPeriph_Driver/src/stm32f10x_tim.c ****   * @retval None
 871:../lib/STM32F10x_StdPeriph_Driver/src/stm32f10x_tim.c ****   */
 872:../lib/STM32F10x_StdPeriph_Driver/src/stm32f10x_tim.c **** void TIM_ITConfig(TIM_TypeDef* TIMx, uint16_t TIM_IT, FunctionalState NewState)
 873:../lib/STM32F10x_StdPeriph_Driver/src/stm32f10x_tim.c **** {  
 1830              		.loc 1 873 0
 1831              		.cfi_startproc
 1832              		@ args = 0, pretend = 0, frame = 8
 1833              		@ frame_needed = 1, uses_anonymous_args = 0
 1834              		@ link register save eliminated.
 1835 0b28 80B4     		push	{r7}
 1836              	.LCFI45:
 1837              		.cfi_def_cfa_offset 4
 1838              		.cfi_offset 7, -4
 1839 0b2a 83B0     		sub	sp, sp, #12
 1840              	.LCFI46:
 1841              		.cfi_def_cfa_offset 16
 1842 0b2c 00AF     		add	r7, sp, #0
 1843              	.LCFI47:
 1844              		.cfi_def_cfa_register 7
 1845 0b2e 7860     		str	r0, [r7, #4]
 1846 0b30 1346     		mov	r3, r2
 1847 0b32 0A46     		mov	r2, r1	@ movhi
 1848 0b34 7A80     		strh	r2, [r7, #2]	@ movhi
 1849 0b36 7B70     		strb	r3, [r7, #1]
 874:../lib/STM32F10x_StdPeriph_Driver/src/stm32f10x_tim.c ****   /* Check the parameters */
 875:../lib/STM32F10x_StdPeriph_Driver/src/stm32f10x_tim.c ****   assert_param(IS_TIM_ALL_PERIPH(TIMx));
 876:../lib/STM32F10x_StdPeriph_Driver/src/stm32f10x_tim.c ****   assert_param(IS_TIM_IT(TIM_IT));
 877:../lib/STM32F10x_StdPeriph_Driver/src/stm32f10x_tim.c ****   assert_param(IS_FUNCTIONAL_STATE(NewState));
 878:../lib/STM32F10x_StdPeriph_Driver/src/stm32f10x_tim.c ****   
 879:../lib/STM32F10x_StdPeriph_Driver/src/stm32f10x_tim.c ****   if (NewState != DISABLE)
 1850              		.loc 1 879 0
 1851 0b38 7B78     		ldrb	r3, [r7, #1]	@ zero_extendqisi2
 1852 0b3a 002B     		cmp	r3, #0
 1853 0b3c 08D0     		beq	.L73
 880:../lib/STM32F10x_StdPeriph_Driver/src/stm32f10x_tim.c ****   {
 881:../lib/STM32F10x_StdPeriph_Driver/src/stm32f10x_tim.c ****     /* Enable the Interrupt sources */
 882:../lib/STM32F10x_StdPeriph_Driver/src/stm32f10x_tim.c ****     TIMx->DIER |= TIM_IT;
 1854              		.loc 1 882 0
 1855 0b3e 7B68     		ldr	r3, [r7, #4]
 1856 0b40 9B89     		ldrh	r3, [r3, #12]	@ movhi
 1857 0b42 9AB2     		uxth	r2, r3
 1858 0b44 7B88     		ldrh	r3, [r7, #2]	@ movhi
 1859 0b46 1343     		orrs	r3, r3, r2
 1860 0b48 9AB2     		uxth	r2, r3
 1861 0b4a 7B68     		ldr	r3, [r7, #4]
 1862 0b4c 9A81     		strh	r2, [r3, #12]	@ movhi
 1863 0b4e 0AE0     		b	.L72
 1864              	.L73:
 883:../lib/STM32F10x_StdPeriph_Driver/src/stm32f10x_tim.c ****   }
 884:../lib/STM32F10x_StdPeriph_Driver/src/stm32f10x_tim.c ****   else
 885:../lib/STM32F10x_StdPeriph_Driver/src/stm32f10x_tim.c ****   {
 886:../lib/STM32F10x_StdPeriph_Driver/src/stm32f10x_tim.c ****     /* Disable the Interrupt sources */
 887:../lib/STM32F10x_StdPeriph_Driver/src/stm32f10x_tim.c ****     TIMx->DIER &= (uint16_t)~TIM_IT;
 1865              		.loc 1 887 0
 1866 0b50 7B68     		ldr	r3, [r7, #4]
 1867 0b52 9B89     		ldrh	r3, [r3, #12]	@ movhi
 1868 0b54 9AB2     		uxth	r2, r3
 1869 0b56 7B88     		ldrh	r3, [r7, #2]	@ movhi
 1870 0b58 6FEA0303 		mvn	r3, r3
 1871 0b5c 9BB2     		uxth	r3, r3
 1872 0b5e 1340     		ands	r3, r3, r2
 1873 0b60 9AB2     		uxth	r2, r3
 1874 0b62 7B68     		ldr	r3, [r7, #4]
 1875 0b64 9A81     		strh	r2, [r3, #12]	@ movhi
 1876              	.L72:
 888:../lib/STM32F10x_StdPeriph_Driver/src/stm32f10x_tim.c ****   }
 889:../lib/STM32F10x_StdPeriph_Driver/src/stm32f10x_tim.c **** }
 1877              		.loc 1 889 0
 1878 0b66 07F10C07 		add	r7, r7, #12
 1879 0b6a BD46     		mov	sp, r7
 1880 0b6c 80BC     		pop	{r7}
 1881 0b6e 7047     		bx	lr
 1882              		.cfi_endproc
 1883              	.LFE44:
 1885              		.align	2
 1886              		.global	TIM_GenerateEvent
 1887              		.thumb
 1888              		.thumb_func
 1890              	TIM_GenerateEvent:
 1891              	.LFB45:
 890:../lib/STM32F10x_StdPeriph_Driver/src/stm32f10x_tim.c **** 
 891:../lib/STM32F10x_StdPeriph_Driver/src/stm32f10x_tim.c **** /**
 892:../lib/STM32F10x_StdPeriph_Driver/src/stm32f10x_tim.c ****   * @brief  Configures the TIMx event to be generate by software.
 893:../lib/STM32F10x_StdPeriph_Driver/src/stm32f10x_tim.c ****   * @param  TIMx: where x can be 1 to 17 to select the TIM peripheral.
 894:../lib/STM32F10x_StdPeriph_Driver/src/stm32f10x_tim.c ****   * @param  TIM_EventSource: specifies the event source.
 895:../lib/STM32F10x_StdPeriph_Driver/src/stm32f10x_tim.c ****   *   This parameter can be one or more of the following values:	   
 896:../lib/STM32F10x_StdPeriph_Driver/src/stm32f10x_tim.c ****   *     @arg TIM_EventSource_Update: Timer update Event source
 897:../lib/STM32F10x_StdPeriph_Driver/src/stm32f10x_tim.c ****   *     @arg TIM_EventSource_CC1: Timer Capture Compare 1 Event source
 898:../lib/STM32F10x_StdPeriph_Driver/src/stm32f10x_tim.c ****   *     @arg TIM_EventSource_CC2: Timer Capture Compare 2 Event source
 899:../lib/STM32F10x_StdPeriph_Driver/src/stm32f10x_tim.c ****   *     @arg TIM_EventSource_CC3: Timer Capture Compare 3 Event source
 900:../lib/STM32F10x_StdPeriph_Driver/src/stm32f10x_tim.c ****   *     @arg TIM_EventSource_CC4: Timer Capture Compare 4 Event source
 901:../lib/STM32F10x_StdPeriph_Driver/src/stm32f10x_tim.c ****   *     @arg TIM_EventSource_COM: Timer COM event source  
 902:../lib/STM32F10x_StdPeriph_Driver/src/stm32f10x_tim.c ****   *     @arg TIM_EventSource_Trigger: Timer Trigger Event source
 903:../lib/STM32F10x_StdPeriph_Driver/src/stm32f10x_tim.c ****   *     @arg TIM_EventSource_Break: Timer Break event source
 904:../lib/STM32F10x_StdPeriph_Driver/src/stm32f10x_tim.c ****   * @note 
 905:../lib/STM32F10x_StdPeriph_Driver/src/stm32f10x_tim.c ****   *   - TIM6 and TIM7 can only generate an update event. 
 906:../lib/STM32F10x_StdPeriph_Driver/src/stm32f10x_tim.c ****   *   - TIM_EventSource_COM and TIM_EventSource_Break are used only with TIM1 and TIM8.      
 907:../lib/STM32F10x_StdPeriph_Driver/src/stm32f10x_tim.c ****   * @retval None
 908:../lib/STM32F10x_StdPeriph_Driver/src/stm32f10x_tim.c ****   */
 909:../lib/STM32F10x_StdPeriph_Driver/src/stm32f10x_tim.c **** void TIM_GenerateEvent(TIM_TypeDef* TIMx, uint16_t TIM_EventSource)
 910:../lib/STM32F10x_StdPeriph_Driver/src/stm32f10x_tim.c **** { 
 1892              		.loc 1 910 0
 1893              		.cfi_startproc
 1894              		@ args = 0, pretend = 0, frame = 8
 1895              		@ frame_needed = 1, uses_anonymous_args = 0
 1896              		@ link register save eliminated.
 1897 0b70 80B4     		push	{r7}
 1898              	.LCFI48:
 1899              		.cfi_def_cfa_offset 4
 1900              		.cfi_offset 7, -4
 1901 0b72 83B0     		sub	sp, sp, #12
 1902              	.LCFI49:
 1903              		.cfi_def_cfa_offset 16
 1904 0b74 00AF     		add	r7, sp, #0
 1905              	.LCFI50:
 1906              		.cfi_def_cfa_register 7
 1907 0b76 7860     		str	r0, [r7, #4]
 1908 0b78 0B46     		mov	r3, r1
 1909 0b7a 7B80     		strh	r3, [r7, #2]	@ movhi
 911:../lib/STM32F10x_StdPeriph_Driver/src/stm32f10x_tim.c ****   /* Check the parameters */
 912:../lib/STM32F10x_StdPeriph_Driver/src/stm32f10x_tim.c ****   assert_param(IS_TIM_ALL_PERIPH(TIMx));
 913:../lib/STM32F10x_StdPeriph_Driver/src/stm32f10x_tim.c ****   assert_param(IS_TIM_EVENT_SOURCE(TIM_EventSource));
 914:../lib/STM32F10x_StdPeriph_Driver/src/stm32f10x_tim.c ****   
 915:../lib/STM32F10x_StdPeriph_Driver/src/stm32f10x_tim.c ****   /* Set the event sources */
 916:../lib/STM32F10x_StdPeriph_Driver/src/stm32f10x_tim.c ****   TIMx->EGR = TIM_EventSource;
 1910              		.loc 1 916 0
 1911 0b7c 7B68     		ldr	r3, [r7, #4]
 1912 0b7e 7A88     		ldrh	r2, [r7, #2]	@ movhi
 1913 0b80 9A82     		strh	r2, [r3, #20]	@ movhi
 917:../lib/STM32F10x_StdPeriph_Driver/src/stm32f10x_tim.c **** }
 1914              		.loc 1 917 0
 1915 0b82 07F10C07 		add	r7, r7, #12
 1916 0b86 BD46     		mov	sp, r7
 1917 0b88 80BC     		pop	{r7}
 1918 0b8a 7047     		bx	lr
 1919              		.cfi_endproc
 1920              	.LFE45:
 1922              		.align	2
 1923              		.global	TIM_DMAConfig
 1924              		.thumb
 1925              		.thumb_func
 1927              	TIM_DMAConfig:
 1928              	.LFB46:
 918:../lib/STM32F10x_StdPeriph_Driver/src/stm32f10x_tim.c **** 
 919:../lib/STM32F10x_StdPeriph_Driver/src/stm32f10x_tim.c **** /**
 920:../lib/STM32F10x_StdPeriph_Driver/src/stm32f10x_tim.c ****   * @brief  Configures the TIMx's DMA interface.
 921:../lib/STM32F10x_StdPeriph_Driver/src/stm32f10x_tim.c ****   * @param  TIMx: where x can be  1, 2, 3, 4, 5, 8, 15, 16 or 17 to select 
 922:../lib/STM32F10x_StdPeriph_Driver/src/stm32f10x_tim.c ****   *   the TIM peripheral.
 923:../lib/STM32F10x_StdPeriph_Driver/src/stm32f10x_tim.c ****   * @param  TIM_DMABase: DMA Base address.
 924:../lib/STM32F10x_StdPeriph_Driver/src/stm32f10x_tim.c ****   *   This parameter can be one of the following values:
 925:../lib/STM32F10x_StdPeriph_Driver/src/stm32f10x_tim.c ****   *     @arg TIM_DMABase_CR, TIM_DMABase_CR2, TIM_DMABase_SMCR,
 926:../lib/STM32F10x_StdPeriph_Driver/src/stm32f10x_tim.c ****   *          TIM_DMABase_DIER, TIM1_DMABase_SR, TIM_DMABase_EGR,
 927:../lib/STM32F10x_StdPeriph_Driver/src/stm32f10x_tim.c ****   *          TIM_DMABase_CCMR1, TIM_DMABase_CCMR2, TIM_DMABase_CCER,
 928:../lib/STM32F10x_StdPeriph_Driver/src/stm32f10x_tim.c ****   *          TIM_DMABase_CNT, TIM_DMABase_PSC, TIM_DMABase_ARR,
 929:../lib/STM32F10x_StdPeriph_Driver/src/stm32f10x_tim.c ****   *          TIM_DMABase_RCR, TIM_DMABase_CCR1, TIM_DMABase_CCR2,
 930:../lib/STM32F10x_StdPeriph_Driver/src/stm32f10x_tim.c ****   *          TIM_DMABase_CCR3, TIM_DMABase_CCR4, TIM_DMABase_BDTR,
 931:../lib/STM32F10x_StdPeriph_Driver/src/stm32f10x_tim.c ****   *          TIM_DMABase_DCR.
 932:../lib/STM32F10x_StdPeriph_Driver/src/stm32f10x_tim.c ****   * @param  TIM_DMABurstLength: DMA Burst length.
 933:../lib/STM32F10x_StdPeriph_Driver/src/stm32f10x_tim.c ****   *   This parameter can be one value between:
 934:../lib/STM32F10x_StdPeriph_Driver/src/stm32f10x_tim.c ****   *   TIM_DMABurstLength_1Transfer and TIM_DMABurstLength_18Transfers.
 935:../lib/STM32F10x_StdPeriph_Driver/src/stm32f10x_tim.c ****   * @retval None
 936:../lib/STM32F10x_StdPeriph_Driver/src/stm32f10x_tim.c ****   */
 937:../lib/STM32F10x_StdPeriph_Driver/src/stm32f10x_tim.c **** void TIM_DMAConfig(TIM_TypeDef* TIMx, uint16_t TIM_DMABase, uint16_t TIM_DMABurstLength)
 938:../lib/STM32F10x_StdPeriph_Driver/src/stm32f10x_tim.c **** {
 1929              		.loc 1 938 0
 1930              		.cfi_startproc
 1931              		@ args = 0, pretend = 0, frame = 8
 1932              		@ frame_needed = 1, uses_anonymous_args = 0
 1933              		@ link register save eliminated.
 1934 0b8c 80B4     		push	{r7}
 1935              	.LCFI51:
 1936              		.cfi_def_cfa_offset 4
 1937              		.cfi_offset 7, -4
 1938 0b8e 83B0     		sub	sp, sp, #12
 1939              	.LCFI52:
 1940              		.cfi_def_cfa_offset 16
 1941 0b90 00AF     		add	r7, sp, #0
 1942              	.LCFI53:
 1943              		.cfi_def_cfa_register 7
 1944 0b92 7860     		str	r0, [r7, #4]
 1945 0b94 1346     		mov	r3, r2
 1946 0b96 0A46     		mov	r2, r1	@ movhi
 1947 0b98 7A80     		strh	r2, [r7, #2]	@ movhi
 1948 0b9a 3B80     		strh	r3, [r7, #0]	@ movhi
 939:../lib/STM32F10x_StdPeriph_Driver/src/stm32f10x_tim.c ****   /* Check the parameters */
 940:../lib/STM32F10x_StdPeriph_Driver/src/stm32f10x_tim.c ****   assert_param(IS_TIM_LIST4_PERIPH(TIMx));
 941:../lib/STM32F10x_StdPeriph_Driver/src/stm32f10x_tim.c ****   assert_param(IS_TIM_DMA_BASE(TIM_DMABase));
 942:../lib/STM32F10x_StdPeriph_Driver/src/stm32f10x_tim.c ****   assert_param(IS_TIM_DMA_LENGTH(TIM_DMABurstLength));
 943:../lib/STM32F10x_StdPeriph_Driver/src/stm32f10x_tim.c ****   /* Set the DMA Base and the DMA Burst Length */
 944:../lib/STM32F10x_StdPeriph_Driver/src/stm32f10x_tim.c ****   TIMx->DCR = TIM_DMABase | TIM_DMABurstLength;
 1949              		.loc 1 944 0
 1950 0b9c 7A88     		ldrh	r2, [r7, #2]	@ movhi
 1951 0b9e 3B88     		ldrh	r3, [r7, #0]	@ movhi
 1952 0ba0 1343     		orrs	r3, r3, r2
 1953 0ba2 9AB2     		uxth	r2, r3
 1954 0ba4 7B68     		ldr	r3, [r7, #4]
 1955 0ba6 A3F84820 		strh	r2, [r3, #72]	@ movhi
 945:../lib/STM32F10x_StdPeriph_Driver/src/stm32f10x_tim.c **** }
 1956              		.loc 1 945 0
 1957 0baa 07F10C07 		add	r7, r7, #12
 1958 0bae BD46     		mov	sp, r7
 1959 0bb0 80BC     		pop	{r7}
 1960 0bb2 7047     		bx	lr
 1961              		.cfi_endproc
 1962              	.LFE46:
 1964              		.align	2
 1965              		.global	TIM_DMACmd
 1966              		.thumb
 1967              		.thumb_func
 1969              	TIM_DMACmd:
 1970              	.LFB47:
 946:../lib/STM32F10x_StdPeriph_Driver/src/stm32f10x_tim.c **** 
 947:../lib/STM32F10x_StdPeriph_Driver/src/stm32f10x_tim.c **** /**
 948:../lib/STM32F10x_StdPeriph_Driver/src/stm32f10x_tim.c ****   * @brief  Enables or disables the TIMx's DMA Requests.
 949:../lib/STM32F10x_StdPeriph_Driver/src/stm32f10x_tim.c ****   * @param  TIMx: where x can be  1, 2, 3, 4, 5, 6, 7, 8, 15, 16 or 17 
 950:../lib/STM32F10x_StdPeriph_Driver/src/stm32f10x_tim.c ****   *   to select the TIM peripheral. 
 951:../lib/STM32F10x_StdPeriph_Driver/src/stm32f10x_tim.c ****   * @param  TIM_DMASource: specifies the DMA Request sources.
 952:../lib/STM32F10x_StdPeriph_Driver/src/stm32f10x_tim.c ****   *   This parameter can be any combination of the following values:
 953:../lib/STM32F10x_StdPeriph_Driver/src/stm32f10x_tim.c ****   *     @arg TIM_DMA_Update: TIM update Interrupt source
 954:../lib/STM32F10x_StdPeriph_Driver/src/stm32f10x_tim.c ****   *     @arg TIM_DMA_CC1: TIM Capture Compare 1 DMA source
 955:../lib/STM32F10x_StdPeriph_Driver/src/stm32f10x_tim.c ****   *     @arg TIM_DMA_CC2: TIM Capture Compare 2 DMA source
 956:../lib/STM32F10x_StdPeriph_Driver/src/stm32f10x_tim.c ****   *     @arg TIM_DMA_CC3: TIM Capture Compare 3 DMA source
 957:../lib/STM32F10x_StdPeriph_Driver/src/stm32f10x_tim.c ****   *     @arg TIM_DMA_CC4: TIM Capture Compare 4 DMA source
 958:../lib/STM32F10x_StdPeriph_Driver/src/stm32f10x_tim.c ****   *     @arg TIM_DMA_COM: TIM Commutation DMA source
 959:../lib/STM32F10x_StdPeriph_Driver/src/stm32f10x_tim.c ****   *     @arg TIM_DMA_Trigger: TIM Trigger DMA source
 960:../lib/STM32F10x_StdPeriph_Driver/src/stm32f10x_tim.c ****   * @param  NewState: new state of the DMA Request sources.
 961:../lib/STM32F10x_StdPeriph_Driver/src/stm32f10x_tim.c ****   *   This parameter can be: ENABLE or DISABLE.
 962:../lib/STM32F10x_StdPeriph_Driver/src/stm32f10x_tim.c ****   * @retval None
 963:../lib/STM32F10x_StdPeriph_Driver/src/stm32f10x_tim.c ****   */
 964:../lib/STM32F10x_StdPeriph_Driver/src/stm32f10x_tim.c **** void TIM_DMACmd(TIM_TypeDef* TIMx, uint16_t TIM_DMASource, FunctionalState NewState)
 965:../lib/STM32F10x_StdPeriph_Driver/src/stm32f10x_tim.c **** { 
 1971              		.loc 1 965 0
 1972              		.cfi_startproc
 1973              		@ args = 0, pretend = 0, frame = 8
 1974              		@ frame_needed = 1, uses_anonymous_args = 0
 1975              		@ link register save eliminated.
 1976 0bb4 80B4     		push	{r7}
 1977              	.LCFI54:
 1978              		.cfi_def_cfa_offset 4
 1979              		.cfi_offset 7, -4
 1980 0bb6 83B0     		sub	sp, sp, #12
 1981              	.LCFI55:
 1982              		.cfi_def_cfa_offset 16
 1983 0bb8 00AF     		add	r7, sp, #0
 1984              	.LCFI56:
 1985              		.cfi_def_cfa_register 7
 1986 0bba 7860     		str	r0, [r7, #4]
 1987 0bbc 1346     		mov	r3, r2
 1988 0bbe 0A46     		mov	r2, r1	@ movhi
 1989 0bc0 7A80     		strh	r2, [r7, #2]	@ movhi
 1990 0bc2 7B70     		strb	r3, [r7, #1]
 966:../lib/STM32F10x_StdPeriph_Driver/src/stm32f10x_tim.c ****   /* Check the parameters */
 967:../lib/STM32F10x_StdPeriph_Driver/src/stm32f10x_tim.c ****   assert_param(IS_TIM_LIST9_PERIPH(TIMx));
 968:../lib/STM32F10x_StdPeriph_Driver/src/stm32f10x_tim.c ****   assert_param(IS_TIM_DMA_SOURCE(TIM_DMASource));
 969:../lib/STM32F10x_StdPeriph_Driver/src/stm32f10x_tim.c ****   assert_param(IS_FUNCTIONAL_STATE(NewState));
 970:../lib/STM32F10x_StdPeriph_Driver/src/stm32f10x_tim.c ****   
 971:../lib/STM32F10x_StdPeriph_Driver/src/stm32f10x_tim.c ****   if (NewState != DISABLE)
 1991              		.loc 1 971 0
 1992 0bc4 7B78     		ldrb	r3, [r7, #1]	@ zero_extendqisi2
 1993 0bc6 002B     		cmp	r3, #0
 1994 0bc8 08D0     		beq	.L78
 972:../lib/STM32F10x_StdPeriph_Driver/src/stm32f10x_tim.c ****   {
 973:../lib/STM32F10x_StdPeriph_Driver/src/stm32f10x_tim.c ****     /* Enable the DMA sources */
 974:../lib/STM32F10x_StdPeriph_Driver/src/stm32f10x_tim.c ****     TIMx->DIER |= TIM_DMASource; 
 1995              		.loc 1 974 0
 1996 0bca 7B68     		ldr	r3, [r7, #4]
 1997 0bcc 9B89     		ldrh	r3, [r3, #12]	@ movhi
 1998 0bce 9AB2     		uxth	r2, r3
 1999 0bd0 7B88     		ldrh	r3, [r7, #2]	@ movhi
 2000 0bd2 1343     		orrs	r3, r3, r2
 2001 0bd4 9AB2     		uxth	r2, r3
 2002 0bd6 7B68     		ldr	r3, [r7, #4]
 2003 0bd8 9A81     		strh	r2, [r3, #12]	@ movhi
 2004 0bda 0AE0     		b	.L77
 2005              	.L78:
 975:../lib/STM32F10x_StdPeriph_Driver/src/stm32f10x_tim.c ****   }
 976:../lib/STM32F10x_StdPeriph_Driver/src/stm32f10x_tim.c ****   else
 977:../lib/STM32F10x_StdPeriph_Driver/src/stm32f10x_tim.c ****   {
 978:../lib/STM32F10x_StdPeriph_Driver/src/stm32f10x_tim.c ****     /* Disable the DMA sources */
 979:../lib/STM32F10x_StdPeriph_Driver/src/stm32f10x_tim.c ****     TIMx->DIER &= (uint16_t)~TIM_DMASource;
 2006              		.loc 1 979 0
 2007 0bdc 7B68     		ldr	r3, [r7, #4]
 2008 0bde 9B89     		ldrh	r3, [r3, #12]	@ movhi
 2009 0be0 9AB2     		uxth	r2, r3
 2010 0be2 7B88     		ldrh	r3, [r7, #2]	@ movhi
 2011 0be4 6FEA0303 		mvn	r3, r3
 2012 0be8 9BB2     		uxth	r3, r3
 2013 0bea 1340     		ands	r3, r3, r2
 2014 0bec 9AB2     		uxth	r2, r3
 2015 0bee 7B68     		ldr	r3, [r7, #4]
 2016 0bf0 9A81     		strh	r2, [r3, #12]	@ movhi
 2017              	.L77:
 980:../lib/STM32F10x_StdPeriph_Driver/src/stm32f10x_tim.c ****   }
 981:../lib/STM32F10x_StdPeriph_Driver/src/stm32f10x_tim.c **** }
 2018              		.loc 1 981 0
 2019 0bf2 07F10C07 		add	r7, r7, #12
 2020 0bf6 BD46     		mov	sp, r7
 2021 0bf8 80BC     		pop	{r7}
 2022 0bfa 7047     		bx	lr
 2023              		.cfi_endproc
 2024              	.LFE47:
 2026              		.align	2
 2027              		.global	TIM_InternalClockConfig
 2028              		.thumb
 2029              		.thumb_func
 2031              	TIM_InternalClockConfig:
 2032              	.LFB48:
 982:../lib/STM32F10x_StdPeriph_Driver/src/stm32f10x_tim.c **** 
 983:../lib/STM32F10x_StdPeriph_Driver/src/stm32f10x_tim.c **** /**
 984:../lib/STM32F10x_StdPeriph_Driver/src/stm32f10x_tim.c ****   * @brief  Configures the TIMx internal Clock
 985:../lib/STM32F10x_StdPeriph_Driver/src/stm32f10x_tim.c ****   * @param  TIMx: where x can be  1, 2, 3, 4, 5, 8, 9, 12 or 15
 986:../lib/STM32F10x_StdPeriph_Driver/src/stm32f10x_tim.c ****   *         to select the TIM peripheral.
 987:../lib/STM32F10x_StdPeriph_Driver/src/stm32f10x_tim.c ****   * @retval None
 988:../lib/STM32F10x_StdPeriph_Driver/src/stm32f10x_tim.c ****   */
 989:../lib/STM32F10x_StdPeriph_Driver/src/stm32f10x_tim.c **** void TIM_InternalClockConfig(TIM_TypeDef* TIMx)
 990:../lib/STM32F10x_StdPeriph_Driver/src/stm32f10x_tim.c **** {
 2033              		.loc 1 990 0
 2034              		.cfi_startproc
 2035              		@ args = 0, pretend = 0, frame = 8
 2036              		@ frame_needed = 1, uses_anonymous_args = 0
 2037              		@ link register save eliminated.
 2038 0bfc 80B4     		push	{r7}
 2039              	.LCFI57:
 2040              		.cfi_def_cfa_offset 4
 2041              		.cfi_offset 7, -4
 2042 0bfe 83B0     		sub	sp, sp, #12
 2043              	.LCFI58:
 2044              		.cfi_def_cfa_offset 16
 2045 0c00 00AF     		add	r7, sp, #0
 2046              	.LCFI59:
 2047              		.cfi_def_cfa_register 7
 2048 0c02 7860     		str	r0, [r7, #4]
 991:../lib/STM32F10x_StdPeriph_Driver/src/stm32f10x_tim.c ****   /* Check the parameters */
 992:../lib/STM32F10x_StdPeriph_Driver/src/stm32f10x_tim.c ****   assert_param(IS_TIM_LIST6_PERIPH(TIMx));
 993:../lib/STM32F10x_StdPeriph_Driver/src/stm32f10x_tim.c ****   /* Disable slave mode to clock the prescaler directly with the internal clock */
 994:../lib/STM32F10x_StdPeriph_Driver/src/stm32f10x_tim.c ****   TIMx->SMCR &=  (uint16_t)(~((uint16_t)TIM_SMCR_SMS));
 2049              		.loc 1 994 0
 2050 0c04 7B68     		ldr	r3, [r7, #4]
 2051 0c06 1B89     		ldrh	r3, [r3, #8]	@ movhi
 2052 0c08 9BB2     		uxth	r3, r3
 2053 0c0a 23F00703 		bic	r3, r3, #7
 2054 0c0e 9AB2     		uxth	r2, r3
 2055 0c10 7B68     		ldr	r3, [r7, #4]
 2056 0c12 1A81     		strh	r2, [r3, #8]	@ movhi
 995:../lib/STM32F10x_StdPeriph_Driver/src/stm32f10x_tim.c **** }
 2057              		.loc 1 995 0
 2058 0c14 07F10C07 		add	r7, r7, #12
 2059 0c18 BD46     		mov	sp, r7
 2060 0c1a 80BC     		pop	{r7}
 2061 0c1c 7047     		bx	lr
 2062              		.cfi_endproc
 2063              	.LFE48:
 2065 0c1e 00BF     		.align	2
 2066              		.global	TIM_ITRxExternalClockConfig
 2067              		.thumb
 2068              		.thumb_func
 2070              	TIM_ITRxExternalClockConfig:
 2071              	.LFB49:
 996:../lib/STM32F10x_StdPeriph_Driver/src/stm32f10x_tim.c **** 
 997:../lib/STM32F10x_StdPeriph_Driver/src/stm32f10x_tim.c **** /**
 998:../lib/STM32F10x_StdPeriph_Driver/src/stm32f10x_tim.c ****   * @brief  Configures the TIMx Internal Trigger as External Clock
 999:../lib/STM32F10x_StdPeriph_Driver/src/stm32f10x_tim.c ****   * @param  TIMx: where x can be  1, 2, 3, 4, 5, 9, 12 or 15 to select the TIM peripheral.
1000:../lib/STM32F10x_StdPeriph_Driver/src/stm32f10x_tim.c ****   * @param  TIM_ITRSource: Trigger source.
1001:../lib/STM32F10x_StdPeriph_Driver/src/stm32f10x_tim.c ****   *   This parameter can be one of the following values:
1002:../lib/STM32F10x_StdPeriph_Driver/src/stm32f10x_tim.c ****   * @param  TIM_TS_ITR0: Internal Trigger 0
1003:../lib/STM32F10x_StdPeriph_Driver/src/stm32f10x_tim.c ****   * @param  TIM_TS_ITR1: Internal Trigger 1
1004:../lib/STM32F10x_StdPeriph_Driver/src/stm32f10x_tim.c ****   * @param  TIM_TS_ITR2: Internal Trigger 2
1005:../lib/STM32F10x_StdPeriph_Driver/src/stm32f10x_tim.c ****   * @param  TIM_TS_ITR3: Internal Trigger 3
1006:../lib/STM32F10x_StdPeriph_Driver/src/stm32f10x_tim.c ****   * @retval None
1007:../lib/STM32F10x_StdPeriph_Driver/src/stm32f10x_tim.c ****   */
1008:../lib/STM32F10x_StdPeriph_Driver/src/stm32f10x_tim.c **** void TIM_ITRxExternalClockConfig(TIM_TypeDef* TIMx, uint16_t TIM_InputTriggerSource)
1009:../lib/STM32F10x_StdPeriph_Driver/src/stm32f10x_tim.c **** {
 2072              		.loc 1 1009 0
 2073              		.cfi_startproc
 2074              		@ args = 0, pretend = 0, frame = 8
 2075              		@ frame_needed = 1, uses_anonymous_args = 0
 2076 0c20 80B5     		push	{r7, lr}
 2077              	.LCFI60:
 2078              		.cfi_def_cfa_offset 8
 2079              		.cfi_offset 7, -8
 2080              		.cfi_offset 14, -4
 2081 0c22 82B0     		sub	sp, sp, #8
 2082              	.LCFI61:
 2083              		.cfi_def_cfa_offset 16
 2084 0c24 00AF     		add	r7, sp, #0
 2085              	.LCFI62:
 2086              		.cfi_def_cfa_register 7
 2087 0c26 7860     		str	r0, [r7, #4]
 2088 0c28 0B46     		mov	r3, r1
 2089 0c2a 7B80     		strh	r3, [r7, #2]	@ movhi
1010:../lib/STM32F10x_StdPeriph_Driver/src/stm32f10x_tim.c ****   /* Check the parameters */
1011:../lib/STM32F10x_StdPeriph_Driver/src/stm32f10x_tim.c ****   assert_param(IS_TIM_LIST6_PERIPH(TIMx));
1012:../lib/STM32F10x_StdPeriph_Driver/src/stm32f10x_tim.c ****   assert_param(IS_TIM_INTERNAL_TRIGGER_SELECTION(TIM_InputTriggerSource));
1013:../lib/STM32F10x_StdPeriph_Driver/src/stm32f10x_tim.c ****   /* Select the Internal Trigger */
1014:../lib/STM32F10x_StdPeriph_Driver/src/stm32f10x_tim.c ****   TIM_SelectInputTrigger(TIMx, TIM_InputTriggerSource);
 2090              		.loc 1 1014 0
 2091 0c2c 7B88     		ldrh	r3, [r7, #2]
 2092 0c2e 7868     		ldr	r0, [r7, #4]
 2093 0c30 1946     		mov	r1, r3
 2094 0c32 FFF7FEFF 		bl	TIM_SelectInputTrigger
1015:../lib/STM32F10x_StdPeriph_Driver/src/stm32f10x_tim.c ****   /* Select the External clock mode1 */
1016:../lib/STM32F10x_StdPeriph_Driver/src/stm32f10x_tim.c ****   TIMx->SMCR |= TIM_SlaveMode_External1;
 2095              		.loc 1 1016 0
 2096 0c36 7B68     		ldr	r3, [r7, #4]
 2097 0c38 1B89     		ldrh	r3, [r3, #8]	@ movhi
 2098 0c3a 9BB2     		uxth	r3, r3
 2099 0c3c 43F00703 		orr	r3, r3, #7
 2100 0c40 9AB2     		uxth	r2, r3
 2101 0c42 7B68     		ldr	r3, [r7, #4]
 2102 0c44 1A81     		strh	r2, [r3, #8]	@ movhi
1017:../lib/STM32F10x_StdPeriph_Driver/src/stm32f10x_tim.c **** }
 2103              		.loc 1 1017 0
 2104 0c46 07F10807 		add	r7, r7, #8
 2105 0c4a BD46     		mov	sp, r7
 2106 0c4c 80BD     		pop	{r7, pc}
 2107              		.cfi_endproc
 2108              	.LFE49:
 2110 0c4e 00BF     		.align	2
 2111              		.global	TIM_TIxExternalClockConfig
 2112              		.thumb
 2113              		.thumb_func
 2115              	TIM_TIxExternalClockConfig:
 2116              	.LFB50:
1018:../lib/STM32F10x_StdPeriph_Driver/src/stm32f10x_tim.c **** 
1019:../lib/STM32F10x_StdPeriph_Driver/src/stm32f10x_tim.c **** /**
1020:../lib/STM32F10x_StdPeriph_Driver/src/stm32f10x_tim.c ****   * @brief  Configures the TIMx Trigger as External Clock
1021:../lib/STM32F10x_StdPeriph_Driver/src/stm32f10x_tim.c ****   * @param  TIMx: where x can be  1, 2, 3, 4, 5, 9, 12 or 15 to select the TIM peripheral.
1022:../lib/STM32F10x_StdPeriph_Driver/src/stm32f10x_tim.c ****   * @param  TIM_TIxExternalCLKSource: Trigger source.
1023:../lib/STM32F10x_StdPeriph_Driver/src/stm32f10x_tim.c ****   *   This parameter can be one of the following values:
1024:../lib/STM32F10x_StdPeriph_Driver/src/stm32f10x_tim.c ****   *     @arg TIM_TIxExternalCLK1Source_TI1ED: TI1 Edge Detector
1025:../lib/STM32F10x_StdPeriph_Driver/src/stm32f10x_tim.c ****   *     @arg TIM_TIxExternalCLK1Source_TI1: Filtered Timer Input 1
1026:../lib/STM32F10x_StdPeriph_Driver/src/stm32f10x_tim.c ****   *     @arg TIM_TIxExternalCLK1Source_TI2: Filtered Timer Input 2
1027:../lib/STM32F10x_StdPeriph_Driver/src/stm32f10x_tim.c ****   * @param  TIM_ICPolarity: specifies the TIx Polarity.
1028:../lib/STM32F10x_StdPeriph_Driver/src/stm32f10x_tim.c ****   *   This parameter can be one of the following values:
1029:../lib/STM32F10x_StdPeriph_Driver/src/stm32f10x_tim.c ****   *     @arg TIM_ICPolarity_Rising
1030:../lib/STM32F10x_StdPeriph_Driver/src/stm32f10x_tim.c ****   *     @arg TIM_ICPolarity_Falling
1031:../lib/STM32F10x_StdPeriph_Driver/src/stm32f10x_tim.c ****   * @param  ICFilter : specifies the filter value.
1032:../lib/STM32F10x_StdPeriph_Driver/src/stm32f10x_tim.c ****   *   This parameter must be a value between 0x0 and 0xF.
1033:../lib/STM32F10x_StdPeriph_Driver/src/stm32f10x_tim.c ****   * @retval None
1034:../lib/STM32F10x_StdPeriph_Driver/src/stm32f10x_tim.c ****   */
1035:../lib/STM32F10x_StdPeriph_Driver/src/stm32f10x_tim.c **** void TIM_TIxExternalClockConfig(TIM_TypeDef* TIMx, uint16_t TIM_TIxExternalCLKSource,
1036:../lib/STM32F10x_StdPeriph_Driver/src/stm32f10x_tim.c ****                                 uint16_t TIM_ICPolarity, uint16_t ICFilter)
1037:../lib/STM32F10x_StdPeriph_Driver/src/stm32f10x_tim.c **** {
 2117              		.loc 1 1037 0
 2118              		.cfi_startproc
 2119              		@ args = 0, pretend = 0, frame = 16
 2120              		@ frame_needed = 1, uses_anonymous_args = 0
 2121 0c50 80B5     		push	{r7, lr}
 2122              	.LCFI63:
 2123              		.cfi_def_cfa_offset 8
 2124              		.cfi_offset 7, -8
 2125              		.cfi_offset 14, -4
 2126 0c52 84B0     		sub	sp, sp, #16
 2127              	.LCFI64:
 2128              		.cfi_def_cfa_offset 24
 2129 0c54 00AF     		add	r7, sp, #0
 2130              	.LCFI65:
 2131              		.cfi_def_cfa_register 7
 2132 0c56 F860     		str	r0, [r7, #12]
 2133 0c58 7981     		strh	r1, [r7, #10]	@ movhi
 2134 0c5a 3A81     		strh	r2, [r7, #8]	@ movhi
 2135 0c5c FB80     		strh	r3, [r7, #6]	@ movhi
1038:../lib/STM32F10x_StdPeriph_Driver/src/stm32f10x_tim.c ****   /* Check the parameters */
1039:../lib/STM32F10x_StdPeriph_Driver/src/stm32f10x_tim.c ****   assert_param(IS_TIM_LIST6_PERIPH(TIMx));
1040:../lib/STM32F10x_StdPeriph_Driver/src/stm32f10x_tim.c ****   assert_param(IS_TIM_TIXCLK_SOURCE(TIM_TIxExternalCLKSource));
1041:../lib/STM32F10x_StdPeriph_Driver/src/stm32f10x_tim.c ****   assert_param(IS_TIM_IC_POLARITY(TIM_ICPolarity));
1042:../lib/STM32F10x_StdPeriph_Driver/src/stm32f10x_tim.c ****   assert_param(IS_TIM_IC_FILTER(ICFilter));
1043:../lib/STM32F10x_StdPeriph_Driver/src/stm32f10x_tim.c ****   /* Configure the Timer Input Clock Source */
1044:../lib/STM32F10x_StdPeriph_Driver/src/stm32f10x_tim.c ****   if (TIM_TIxExternalCLKSource == TIM_TIxExternalCLK1Source_TI2)
 2136              		.loc 1 1044 0
 2137 0c5e 7B89     		ldrh	r3, [r7, #10]
 2138 0c60 602B     		cmp	r3, #96
 2139 0c62 08D1     		bne	.L83
1045:../lib/STM32F10x_StdPeriph_Driver/src/stm32f10x_tim.c ****   {
1046:../lib/STM32F10x_StdPeriph_Driver/src/stm32f10x_tim.c ****     TI2_Config(TIMx, TIM_ICPolarity, TIM_ICSelection_DirectTI, ICFilter);
 2140              		.loc 1 1046 0
 2141 0c64 3A89     		ldrh	r2, [r7, #8]
 2142 0c66 FB88     		ldrh	r3, [r7, #6]
 2143 0c68 F868     		ldr	r0, [r7, #12]
 2144 0c6a 1146     		mov	r1, r2
 2145 0c6c 4FF00102 		mov	r2, #1
 2146 0c70 00F0FCFF 		bl	TI2_Config
 2147 0c74 07E0     		b	.L84
 2148              	.L83:
1047:../lib/STM32F10x_StdPeriph_Driver/src/stm32f10x_tim.c ****   }
1048:../lib/STM32F10x_StdPeriph_Driver/src/stm32f10x_tim.c ****   else
1049:../lib/STM32F10x_StdPeriph_Driver/src/stm32f10x_tim.c ****   {
1050:../lib/STM32F10x_StdPeriph_Driver/src/stm32f10x_tim.c ****     TI1_Config(TIMx, TIM_ICPolarity, TIM_ICSelection_DirectTI, ICFilter);
 2149              		.loc 1 1050 0
 2150 0c76 3A89     		ldrh	r2, [r7, #8]
 2151 0c78 FB88     		ldrh	r3, [r7, #6]
 2152 0c7a F868     		ldr	r0, [r7, #12]
 2153 0c7c 1146     		mov	r1, r2
 2154 0c7e 4FF00102 		mov	r2, #1
 2155 0c82 00F085FF 		bl	TI1_Config
 2156              	.L84:
1051:../lib/STM32F10x_StdPeriph_Driver/src/stm32f10x_tim.c ****   }
1052:../lib/STM32F10x_StdPeriph_Driver/src/stm32f10x_tim.c ****   /* Select the Trigger source */
1053:../lib/STM32F10x_StdPeriph_Driver/src/stm32f10x_tim.c ****   TIM_SelectInputTrigger(TIMx, TIM_TIxExternalCLKSource);
 2157              		.loc 1 1053 0
 2158 0c86 7B89     		ldrh	r3, [r7, #10]
 2159 0c88 F868     		ldr	r0, [r7, #12]
 2160 0c8a 1946     		mov	r1, r3
 2161 0c8c FFF7FEFF 		bl	TIM_SelectInputTrigger
1054:../lib/STM32F10x_StdPeriph_Driver/src/stm32f10x_tim.c ****   /* Select the External clock mode1 */
1055:../lib/STM32F10x_StdPeriph_Driver/src/stm32f10x_tim.c ****   TIMx->SMCR |= TIM_SlaveMode_External1;
 2162              		.loc 1 1055 0
 2163 0c90 FB68     		ldr	r3, [r7, #12]
 2164 0c92 1B89     		ldrh	r3, [r3, #8]	@ movhi
 2165 0c94 9BB2     		uxth	r3, r3
 2166 0c96 43F00703 		orr	r3, r3, #7
 2167 0c9a 9AB2     		uxth	r2, r3
 2168 0c9c FB68     		ldr	r3, [r7, #12]
 2169 0c9e 1A81     		strh	r2, [r3, #8]	@ movhi
1056:../lib/STM32F10x_StdPeriph_Driver/src/stm32f10x_tim.c **** }
 2170              		.loc 1 1056 0
 2171 0ca0 07F11007 		add	r7, r7, #16
 2172 0ca4 BD46     		mov	sp, r7
 2173 0ca6 80BD     		pop	{r7, pc}
 2174              		.cfi_endproc
 2175              	.LFE50:
 2177              		.align	2
 2178              		.global	TIM_ETRClockMode1Config
 2179              		.thumb
 2180              		.thumb_func
 2182              	TIM_ETRClockMode1Config:
 2183              	.LFB51:
1057:../lib/STM32F10x_StdPeriph_Driver/src/stm32f10x_tim.c **** 
1058:../lib/STM32F10x_StdPeriph_Driver/src/stm32f10x_tim.c **** /**
1059:../lib/STM32F10x_StdPeriph_Driver/src/stm32f10x_tim.c ****   * @brief  Configures the External clock Mode1
1060:../lib/STM32F10x_StdPeriph_Driver/src/stm32f10x_tim.c ****   * @param  TIMx: where x can be  1, 2, 3, 4, 5 or 8 to select the TIM peripheral.
1061:../lib/STM32F10x_StdPeriph_Driver/src/stm32f10x_tim.c ****   * @param  TIM_ExtTRGPrescaler: The external Trigger Prescaler.
1062:../lib/STM32F10x_StdPeriph_Driver/src/stm32f10x_tim.c ****   *   This parameter can be one of the following values:
1063:../lib/STM32F10x_StdPeriph_Driver/src/stm32f10x_tim.c ****   *     @arg TIM_ExtTRGPSC_OFF: ETRP Prescaler OFF.
1064:../lib/STM32F10x_StdPeriph_Driver/src/stm32f10x_tim.c ****   *     @arg TIM_ExtTRGPSC_DIV2: ETRP frequency divided by 2.
1065:../lib/STM32F10x_StdPeriph_Driver/src/stm32f10x_tim.c ****   *     @arg TIM_ExtTRGPSC_DIV4: ETRP frequency divided by 4.
1066:../lib/STM32F10x_StdPeriph_Driver/src/stm32f10x_tim.c ****   *     @arg TIM_ExtTRGPSC_DIV8: ETRP frequency divided by 8.
1067:../lib/STM32F10x_StdPeriph_Driver/src/stm32f10x_tim.c ****   * @param  TIM_ExtTRGPolarity: The external Trigger Polarity.
1068:../lib/STM32F10x_StdPeriph_Driver/src/stm32f10x_tim.c ****   *   This parameter can be one of the following values:
1069:../lib/STM32F10x_StdPeriph_Driver/src/stm32f10x_tim.c ****   *     @arg TIM_ExtTRGPolarity_Inverted: active low or falling edge active.
1070:../lib/STM32F10x_StdPeriph_Driver/src/stm32f10x_tim.c ****   *     @arg TIM_ExtTRGPolarity_NonInverted: active high or rising edge active.
1071:../lib/STM32F10x_StdPeriph_Driver/src/stm32f10x_tim.c ****   * @param  ExtTRGFilter: External Trigger Filter.
1072:../lib/STM32F10x_StdPeriph_Driver/src/stm32f10x_tim.c ****   *   This parameter must be a value between 0x00 and 0x0F
1073:../lib/STM32F10x_StdPeriph_Driver/src/stm32f10x_tim.c ****   * @retval None
1074:../lib/STM32F10x_StdPeriph_Driver/src/stm32f10x_tim.c ****   */
1075:../lib/STM32F10x_StdPeriph_Driver/src/stm32f10x_tim.c **** void TIM_ETRClockMode1Config(TIM_TypeDef* TIMx, uint16_t TIM_ExtTRGPrescaler, uint16_t TIM_ExtTRGPo
1076:../lib/STM32F10x_StdPeriph_Driver/src/stm32f10x_tim.c ****                              uint16_t ExtTRGFilter)
1077:../lib/STM32F10x_StdPeriph_Driver/src/stm32f10x_tim.c **** {
 2184              		.loc 1 1077 0
 2185              		.cfi_startproc
 2186              		@ args = 0, pretend = 0, frame = 24
 2187              		@ frame_needed = 1, uses_anonymous_args = 0
 2188 0ca8 80B5     		push	{r7, lr}
 2189              	.LCFI66:
 2190              		.cfi_def_cfa_offset 8
 2191              		.cfi_offset 7, -8
 2192              		.cfi_offset 14, -4
 2193 0caa 86B0     		sub	sp, sp, #24
 2194              	.LCFI67:
 2195              		.cfi_def_cfa_offset 32
 2196 0cac 00AF     		add	r7, sp, #0
 2197              	.LCFI68:
 2198              		.cfi_def_cfa_register 7
 2199 0cae F860     		str	r0, [r7, #12]
 2200 0cb0 7981     		strh	r1, [r7, #10]	@ movhi
 2201 0cb2 3A81     		strh	r2, [r7, #8]	@ movhi
 2202 0cb4 FB80     		strh	r3, [r7, #6]	@ movhi
1078:../lib/STM32F10x_StdPeriph_Driver/src/stm32f10x_tim.c ****   uint16_t tmpsmcr = 0;
 2203              		.loc 1 1078 0
 2204 0cb6 4FF00003 		mov	r3, #0
 2205 0cba FB82     		strh	r3, [r7, #22]	@ movhi
1079:../lib/STM32F10x_StdPeriph_Driver/src/stm32f10x_tim.c ****   /* Check the parameters */
1080:../lib/STM32F10x_StdPeriph_Driver/src/stm32f10x_tim.c ****   assert_param(IS_TIM_LIST3_PERIPH(TIMx));
1081:../lib/STM32F10x_StdPeriph_Driver/src/stm32f10x_tim.c ****   assert_param(IS_TIM_EXT_PRESCALER(TIM_ExtTRGPrescaler));
1082:../lib/STM32F10x_StdPeriph_Driver/src/stm32f10x_tim.c ****   assert_param(IS_TIM_EXT_POLARITY(TIM_ExtTRGPolarity));
1083:../lib/STM32F10x_StdPeriph_Driver/src/stm32f10x_tim.c ****   assert_param(IS_TIM_EXT_FILTER(ExtTRGFilter));
1084:../lib/STM32F10x_StdPeriph_Driver/src/stm32f10x_tim.c ****   /* Configure the ETR Clock source */
1085:../lib/STM32F10x_StdPeriph_Driver/src/stm32f10x_tim.c ****   TIM_ETRConfig(TIMx, TIM_ExtTRGPrescaler, TIM_ExtTRGPolarity, ExtTRGFilter);
 2206              		.loc 1 1085 0
 2207 0cbc 7989     		ldrh	r1, [r7, #10]
 2208 0cbe 3A89     		ldrh	r2, [r7, #8]
 2209 0cc0 FB88     		ldrh	r3, [r7, #6]
 2210 0cc2 F868     		ldr	r0, [r7, #12]
 2211 0cc4 FFF7FEFF 		bl	TIM_ETRConfig
1086:../lib/STM32F10x_StdPeriph_Driver/src/stm32f10x_tim.c ****   
1087:../lib/STM32F10x_StdPeriph_Driver/src/stm32f10x_tim.c ****   /* Get the TIMx SMCR register value */
1088:../lib/STM32F10x_StdPeriph_Driver/src/stm32f10x_tim.c ****   tmpsmcr = TIMx->SMCR;
 2212              		.loc 1 1088 0
 2213 0cc8 FB68     		ldr	r3, [r7, #12]
 2214 0cca 1B89     		ldrh	r3, [r3, #8]	@ movhi
 2215 0ccc FB82     		strh	r3, [r7, #22]	@ movhi
1089:../lib/STM32F10x_StdPeriph_Driver/src/stm32f10x_tim.c ****   /* Reset the SMS Bits */
1090:../lib/STM32F10x_StdPeriph_Driver/src/stm32f10x_tim.c ****   tmpsmcr &= (uint16_t)(~((uint16_t)TIM_SMCR_SMS));
 2216              		.loc 1 1090 0
 2217 0cce FB8A     		ldrh	r3, [r7, #22]	@ movhi
 2218 0cd0 23F00703 		bic	r3, r3, #7
 2219 0cd4 FB82     		strh	r3, [r7, #22]	@ movhi
1091:../lib/STM32F10x_StdPeriph_Driver/src/stm32f10x_tim.c ****   /* Select the External clock mode1 */
1092:../lib/STM32F10x_StdPeriph_Driver/src/stm32f10x_tim.c ****   tmpsmcr |= TIM_SlaveMode_External1;
 2220              		.loc 1 1092 0
 2221 0cd6 FB8A     		ldrh	r3, [r7, #22]	@ movhi
 2222 0cd8 43F00703 		orr	r3, r3, #7
 2223 0cdc FB82     		strh	r3, [r7, #22]	@ movhi
1093:../lib/STM32F10x_StdPeriph_Driver/src/stm32f10x_tim.c ****   /* Select the Trigger selection : ETRF */
1094:../lib/STM32F10x_StdPeriph_Driver/src/stm32f10x_tim.c ****   tmpsmcr &= (uint16_t)(~((uint16_t)TIM_SMCR_TS));
 2224              		.loc 1 1094 0
 2225 0cde FB8A     		ldrh	r3, [r7, #22]	@ movhi
 2226 0ce0 23F07003 		bic	r3, r3, #112
 2227 0ce4 FB82     		strh	r3, [r7, #22]	@ movhi
1095:../lib/STM32F10x_StdPeriph_Driver/src/stm32f10x_tim.c ****   tmpsmcr |= TIM_TS_ETRF;
 2228              		.loc 1 1095 0
 2229 0ce6 FB8A     		ldrh	r3, [r7, #22]	@ movhi
 2230 0ce8 43F07003 		orr	r3, r3, #112
 2231 0cec FB82     		strh	r3, [r7, #22]	@ movhi
1096:../lib/STM32F10x_StdPeriph_Driver/src/stm32f10x_tim.c ****   /* Write to TIMx SMCR */
1097:../lib/STM32F10x_StdPeriph_Driver/src/stm32f10x_tim.c ****   TIMx->SMCR = tmpsmcr;
 2232              		.loc 1 1097 0
 2233 0cee FB68     		ldr	r3, [r7, #12]
 2234 0cf0 FA8A     		ldrh	r2, [r7, #22]	@ movhi
 2235 0cf2 1A81     		strh	r2, [r3, #8]	@ movhi
1098:../lib/STM32F10x_StdPeriph_Driver/src/stm32f10x_tim.c **** }
 2236              		.loc 1 1098 0
 2237 0cf4 07F11807 		add	r7, r7, #24
 2238 0cf8 BD46     		mov	sp, r7
 2239 0cfa 80BD     		pop	{r7, pc}
 2240              		.cfi_endproc
 2241              	.LFE51:
 2243              		.align	2
 2244              		.global	TIM_ETRClockMode2Config
 2245              		.thumb
 2246              		.thumb_func
 2248              	TIM_ETRClockMode2Config:
 2249              	.LFB52:
1099:../lib/STM32F10x_StdPeriph_Driver/src/stm32f10x_tim.c **** 
1100:../lib/STM32F10x_StdPeriph_Driver/src/stm32f10x_tim.c **** /**
1101:../lib/STM32F10x_StdPeriph_Driver/src/stm32f10x_tim.c ****   * @brief  Configures the External clock Mode2
1102:../lib/STM32F10x_StdPeriph_Driver/src/stm32f10x_tim.c ****   * @param  TIMx: where x can be  1, 2, 3, 4, 5 or 8 to select the TIM peripheral.
1103:../lib/STM32F10x_StdPeriph_Driver/src/stm32f10x_tim.c ****   * @param  TIM_ExtTRGPrescaler: The external Trigger Prescaler.
1104:../lib/STM32F10x_StdPeriph_Driver/src/stm32f10x_tim.c ****   *   This parameter can be one of the following values:
1105:../lib/STM32F10x_StdPeriph_Driver/src/stm32f10x_tim.c ****   *     @arg TIM_ExtTRGPSC_OFF: ETRP Prescaler OFF.
1106:../lib/STM32F10x_StdPeriph_Driver/src/stm32f10x_tim.c ****   *     @arg TIM_ExtTRGPSC_DIV2: ETRP frequency divided by 2.
1107:../lib/STM32F10x_StdPeriph_Driver/src/stm32f10x_tim.c ****   *     @arg TIM_ExtTRGPSC_DIV4: ETRP frequency divided by 4.
1108:../lib/STM32F10x_StdPeriph_Driver/src/stm32f10x_tim.c ****   *     @arg TIM_ExtTRGPSC_DIV8: ETRP frequency divided by 8.
1109:../lib/STM32F10x_StdPeriph_Driver/src/stm32f10x_tim.c ****   * @param  TIM_ExtTRGPolarity: The external Trigger Polarity.
1110:../lib/STM32F10x_StdPeriph_Driver/src/stm32f10x_tim.c ****   *   This parameter can be one of the following values:
1111:../lib/STM32F10x_StdPeriph_Driver/src/stm32f10x_tim.c ****   *     @arg TIM_ExtTRGPolarity_Inverted: active low or falling edge active.
1112:../lib/STM32F10x_StdPeriph_Driver/src/stm32f10x_tim.c ****   *     @arg TIM_ExtTRGPolarity_NonInverted: active high or rising edge active.
1113:../lib/STM32F10x_StdPeriph_Driver/src/stm32f10x_tim.c ****   * @param  ExtTRGFilter: External Trigger Filter.
1114:../lib/STM32F10x_StdPeriph_Driver/src/stm32f10x_tim.c ****   *   This parameter must be a value between 0x00 and 0x0F
1115:../lib/STM32F10x_StdPeriph_Driver/src/stm32f10x_tim.c ****   * @retval None
1116:../lib/STM32F10x_StdPeriph_Driver/src/stm32f10x_tim.c ****   */
1117:../lib/STM32F10x_StdPeriph_Driver/src/stm32f10x_tim.c **** void TIM_ETRClockMode2Config(TIM_TypeDef* TIMx, uint16_t TIM_ExtTRGPrescaler, 
1118:../lib/STM32F10x_StdPeriph_Driver/src/stm32f10x_tim.c ****                              uint16_t TIM_ExtTRGPolarity, uint16_t ExtTRGFilter)
1119:../lib/STM32F10x_StdPeriph_Driver/src/stm32f10x_tim.c **** {
 2250              		.loc 1 1119 0
 2251              		.cfi_startproc
 2252              		@ args = 0, pretend = 0, frame = 16
 2253              		@ frame_needed = 1, uses_anonymous_args = 0
 2254 0cfc 80B5     		push	{r7, lr}
 2255              	.LCFI69:
 2256              		.cfi_def_cfa_offset 8
 2257              		.cfi_offset 7, -8
 2258              		.cfi_offset 14, -4
 2259 0cfe 84B0     		sub	sp, sp, #16
 2260              	.LCFI70:
 2261              		.cfi_def_cfa_offset 24
 2262 0d00 00AF     		add	r7, sp, #0
 2263              	.LCFI71:
 2264              		.cfi_def_cfa_register 7
 2265 0d02 F860     		str	r0, [r7, #12]
 2266 0d04 7981     		strh	r1, [r7, #10]	@ movhi
 2267 0d06 3A81     		strh	r2, [r7, #8]	@ movhi
 2268 0d08 FB80     		strh	r3, [r7, #6]	@ movhi
1120:../lib/STM32F10x_StdPeriph_Driver/src/stm32f10x_tim.c ****   /* Check the parameters */
1121:../lib/STM32F10x_StdPeriph_Driver/src/stm32f10x_tim.c ****   assert_param(IS_TIM_LIST3_PERIPH(TIMx));
1122:../lib/STM32F10x_StdPeriph_Driver/src/stm32f10x_tim.c ****   assert_param(IS_TIM_EXT_PRESCALER(TIM_ExtTRGPrescaler));
1123:../lib/STM32F10x_StdPeriph_Driver/src/stm32f10x_tim.c ****   assert_param(IS_TIM_EXT_POLARITY(TIM_ExtTRGPolarity));
1124:../lib/STM32F10x_StdPeriph_Driver/src/stm32f10x_tim.c ****   assert_param(IS_TIM_EXT_FILTER(ExtTRGFilter));
1125:../lib/STM32F10x_StdPeriph_Driver/src/stm32f10x_tim.c ****   /* Configure the ETR Clock source */
1126:../lib/STM32F10x_StdPeriph_Driver/src/stm32f10x_tim.c ****   TIM_ETRConfig(TIMx, TIM_ExtTRGPrescaler, TIM_ExtTRGPolarity, ExtTRGFilter);
 2269              		.loc 1 1126 0
 2270 0d0a 7989     		ldrh	r1, [r7, #10]
 2271 0d0c 3A89     		ldrh	r2, [r7, #8]
 2272 0d0e FB88     		ldrh	r3, [r7, #6]
 2273 0d10 F868     		ldr	r0, [r7, #12]
 2274 0d12 FFF7FEFF 		bl	TIM_ETRConfig
1127:../lib/STM32F10x_StdPeriph_Driver/src/stm32f10x_tim.c ****   /* Enable the External clock mode2 */
1128:../lib/STM32F10x_StdPeriph_Driver/src/stm32f10x_tim.c ****   TIMx->SMCR |= TIM_SMCR_ECE;
 2275              		.loc 1 1128 0
 2276 0d16 FB68     		ldr	r3, [r7, #12]
 2277 0d18 1B89     		ldrh	r3, [r3, #8]	@ movhi
 2278 0d1a 9BB2     		uxth	r3, r3
 2279 0d1c 43F48043 		orr	r3, r3, #16384
 2280 0d20 9AB2     		uxth	r2, r3
 2281 0d22 FB68     		ldr	r3, [r7, #12]
 2282 0d24 1A81     		strh	r2, [r3, #8]	@ movhi
1129:../lib/STM32F10x_StdPeriph_Driver/src/stm32f10x_tim.c **** }
 2283              		.loc 1 1129 0
 2284 0d26 07F11007 		add	r7, r7, #16
 2285 0d2a BD46     		mov	sp, r7
 2286 0d2c 80BD     		pop	{r7, pc}
 2287              		.cfi_endproc
 2288              	.LFE52:
 2290 0d2e 00BF     		.align	2
 2291              		.global	TIM_ETRConfig
 2292              		.thumb
 2293              		.thumb_func
 2295              	TIM_ETRConfig:
 2296              	.LFB53:
1130:../lib/STM32F10x_StdPeriph_Driver/src/stm32f10x_tim.c **** 
1131:../lib/STM32F10x_StdPeriph_Driver/src/stm32f10x_tim.c **** /**
1132:../lib/STM32F10x_StdPeriph_Driver/src/stm32f10x_tim.c ****   * @brief  Configures the TIMx External Trigger (ETR).
1133:../lib/STM32F10x_StdPeriph_Driver/src/stm32f10x_tim.c ****   * @param  TIMx: where x can be  1, 2, 3, 4, 5 or 8 to select the TIM peripheral.
1134:../lib/STM32F10x_StdPeriph_Driver/src/stm32f10x_tim.c ****   * @param  TIM_ExtTRGPrescaler: The external Trigger Prescaler.
1135:../lib/STM32F10x_StdPeriph_Driver/src/stm32f10x_tim.c ****   *   This parameter can be one of the following values:
1136:../lib/STM32F10x_StdPeriph_Driver/src/stm32f10x_tim.c ****   *     @arg TIM_ExtTRGPSC_OFF: ETRP Prescaler OFF.
1137:../lib/STM32F10x_StdPeriph_Driver/src/stm32f10x_tim.c ****   *     @arg TIM_ExtTRGPSC_DIV2: ETRP frequency divided by 2.
1138:../lib/STM32F10x_StdPeriph_Driver/src/stm32f10x_tim.c ****   *     @arg TIM_ExtTRGPSC_DIV4: ETRP frequency divided by 4.
1139:../lib/STM32F10x_StdPeriph_Driver/src/stm32f10x_tim.c ****   *     @arg TIM_ExtTRGPSC_DIV8: ETRP frequency divided by 8.
1140:../lib/STM32F10x_StdPeriph_Driver/src/stm32f10x_tim.c ****   * @param  TIM_ExtTRGPolarity: The external Trigger Polarity.
1141:../lib/STM32F10x_StdPeriph_Driver/src/stm32f10x_tim.c ****   *   This parameter can be one of the following values:
1142:../lib/STM32F10x_StdPeriph_Driver/src/stm32f10x_tim.c ****   *     @arg TIM_ExtTRGPolarity_Inverted: active low or falling edge active.
1143:../lib/STM32F10x_StdPeriph_Driver/src/stm32f10x_tim.c ****   *     @arg TIM_ExtTRGPolarity_NonInverted: active high or rising edge active.
1144:../lib/STM32F10x_StdPeriph_Driver/src/stm32f10x_tim.c ****   * @param  ExtTRGFilter: External Trigger Filter.
1145:../lib/STM32F10x_StdPeriph_Driver/src/stm32f10x_tim.c ****   *   This parameter must be a value between 0x00 and 0x0F
1146:../lib/STM32F10x_StdPeriph_Driver/src/stm32f10x_tim.c ****   * @retval None
1147:../lib/STM32F10x_StdPeriph_Driver/src/stm32f10x_tim.c ****   */
1148:../lib/STM32F10x_StdPeriph_Driver/src/stm32f10x_tim.c **** void TIM_ETRConfig(TIM_TypeDef* TIMx, uint16_t TIM_ExtTRGPrescaler, uint16_t TIM_ExtTRGPolarity,
1149:../lib/STM32F10x_StdPeriph_Driver/src/stm32f10x_tim.c ****                    uint16_t ExtTRGFilter)
1150:../lib/STM32F10x_StdPeriph_Driver/src/stm32f10x_tim.c **** {
 2297              		.loc 1 1150 0
 2298              		.cfi_startproc
 2299              		@ args = 0, pretend = 0, frame = 24
 2300              		@ frame_needed = 1, uses_anonymous_args = 0
 2301              		@ link register save eliminated.
 2302 0d30 80B4     		push	{r7}
 2303              	.LCFI72:
 2304              		.cfi_def_cfa_offset 4
 2305              		.cfi_offset 7, -4
 2306 0d32 87B0     		sub	sp, sp, #28
 2307              	.LCFI73:
 2308              		.cfi_def_cfa_offset 32
 2309 0d34 00AF     		add	r7, sp, #0
 2310              	.LCFI74:
 2311              		.cfi_def_cfa_register 7
 2312 0d36 F860     		str	r0, [r7, #12]
 2313 0d38 7981     		strh	r1, [r7, #10]	@ movhi
 2314 0d3a 3A81     		strh	r2, [r7, #8]	@ movhi
 2315 0d3c FB80     		strh	r3, [r7, #6]	@ movhi
1151:../lib/STM32F10x_StdPeriph_Driver/src/stm32f10x_tim.c ****   uint16_t tmpsmcr = 0;
 2316              		.loc 1 1151 0
 2317 0d3e 4FF00003 		mov	r3, #0
 2318 0d42 FB82     		strh	r3, [r7, #22]	@ movhi
1152:../lib/STM32F10x_StdPeriph_Driver/src/stm32f10x_tim.c ****   /* Check the parameters */
1153:../lib/STM32F10x_StdPeriph_Driver/src/stm32f10x_tim.c ****   assert_param(IS_TIM_LIST3_PERIPH(TIMx));
1154:../lib/STM32F10x_StdPeriph_Driver/src/stm32f10x_tim.c ****   assert_param(IS_TIM_EXT_PRESCALER(TIM_ExtTRGPrescaler));
1155:../lib/STM32F10x_StdPeriph_Driver/src/stm32f10x_tim.c ****   assert_param(IS_TIM_EXT_POLARITY(TIM_ExtTRGPolarity));
1156:../lib/STM32F10x_StdPeriph_Driver/src/stm32f10x_tim.c ****   assert_param(IS_TIM_EXT_FILTER(ExtTRGFilter));
1157:../lib/STM32F10x_StdPeriph_Driver/src/stm32f10x_tim.c ****   tmpsmcr = TIMx->SMCR;
 2319              		.loc 1 1157 0
 2320 0d44 FB68     		ldr	r3, [r7, #12]
 2321 0d46 1B89     		ldrh	r3, [r3, #8]	@ movhi
 2322 0d48 FB82     		strh	r3, [r7, #22]	@ movhi
1158:../lib/STM32F10x_StdPeriph_Driver/src/stm32f10x_tim.c ****   /* Reset the ETR Bits */
1159:../lib/STM32F10x_StdPeriph_Driver/src/stm32f10x_tim.c ****   tmpsmcr &= SMCR_ETR_Mask;
 2323              		.loc 1 1159 0
 2324 0d4a FB8A     		ldrh	r3, [r7, #22]	@ movhi
 2325 0d4c DBB2     		uxtb	r3, r3
 2326 0d4e FB82     		strh	r3, [r7, #22]	@ movhi
1160:../lib/STM32F10x_StdPeriph_Driver/src/stm32f10x_tim.c ****   /* Set the Prescaler, the Filter value and the Polarity */
1161:../lib/STM32F10x_StdPeriph_Driver/src/stm32f10x_tim.c ****   tmpsmcr |= (uint16_t)(TIM_ExtTRGPrescaler | (uint16_t)(TIM_ExtTRGPolarity | (uint16_t)(ExtTRGFilt
 2327              		.loc 1 1161 0
 2328 0d50 FB88     		ldrh	r3, [r7, #6]	@ movhi
 2329 0d52 4FEA0323 		lsl	r3, r3, #8
 2330 0d56 9AB2     		uxth	r2, r3
 2331 0d58 3B89     		ldrh	r3, [r7, #8]	@ movhi
 2332 0d5a 1343     		orrs	r3, r3, r2
 2333 0d5c 9AB2     		uxth	r2, r3
 2334 0d5e 7B89     		ldrh	r3, [r7, #10]	@ movhi
 2335 0d60 1343     		orrs	r3, r3, r2
 2336 0d62 9AB2     		uxth	r2, r3
 2337 0d64 FB8A     		ldrh	r3, [r7, #22]	@ movhi
 2338 0d66 1343     		orrs	r3, r3, r2
 2339 0d68 FB82     		strh	r3, [r7, #22]	@ movhi
1162:../lib/STM32F10x_StdPeriph_Driver/src/stm32f10x_tim.c ****   /* Write to TIMx SMCR */
1163:../lib/STM32F10x_StdPeriph_Driver/src/stm32f10x_tim.c ****   TIMx->SMCR = tmpsmcr;
 2340              		.loc 1 1163 0
 2341 0d6a FB68     		ldr	r3, [r7, #12]
 2342 0d6c FA8A     		ldrh	r2, [r7, #22]	@ movhi
 2343 0d6e 1A81     		strh	r2, [r3, #8]	@ movhi
1164:../lib/STM32F10x_StdPeriph_Driver/src/stm32f10x_tim.c **** }
 2344              		.loc 1 1164 0
 2345 0d70 07F11C07 		add	r7, r7, #28
 2346 0d74 BD46     		mov	sp, r7
 2347 0d76 80BC     		pop	{r7}
 2348 0d78 7047     		bx	lr
 2349              		.cfi_endproc
 2350              	.LFE53:
 2352 0d7a 00BF     		.align	2
 2353              		.global	TIM_PrescalerConfig
 2354              		.thumb
 2355              		.thumb_func
 2357              	TIM_PrescalerConfig:
 2358              	.LFB54:
1165:../lib/STM32F10x_StdPeriph_Driver/src/stm32f10x_tim.c **** 
1166:../lib/STM32F10x_StdPeriph_Driver/src/stm32f10x_tim.c **** /**
1167:../lib/STM32F10x_StdPeriph_Driver/src/stm32f10x_tim.c ****   * @brief  Configures the TIMx Prescaler.
1168:../lib/STM32F10x_StdPeriph_Driver/src/stm32f10x_tim.c ****   * @param  TIMx: where x can be 1 to 17 to select the TIM peripheral.
1169:../lib/STM32F10x_StdPeriph_Driver/src/stm32f10x_tim.c ****   * @param  Prescaler: specifies the Prescaler Register value
1170:../lib/STM32F10x_StdPeriph_Driver/src/stm32f10x_tim.c ****   * @param  TIM_PSCReloadMode: specifies the TIM Prescaler Reload mode
1171:../lib/STM32F10x_StdPeriph_Driver/src/stm32f10x_tim.c ****   *   This parameter can be one of the following values:
1172:../lib/STM32F10x_StdPeriph_Driver/src/stm32f10x_tim.c ****   *     @arg TIM_PSCReloadMode_Update: The Prescaler is loaded at the update event.
1173:../lib/STM32F10x_StdPeriph_Driver/src/stm32f10x_tim.c ****   *     @arg TIM_PSCReloadMode_Immediate: The Prescaler is loaded immediately.
1174:../lib/STM32F10x_StdPeriph_Driver/src/stm32f10x_tim.c ****   * @retval None
1175:../lib/STM32F10x_StdPeriph_Driver/src/stm32f10x_tim.c ****   */
1176:../lib/STM32F10x_StdPeriph_Driver/src/stm32f10x_tim.c **** void TIM_PrescalerConfig(TIM_TypeDef* TIMx, uint16_t Prescaler, uint16_t TIM_PSCReloadMode)
1177:../lib/STM32F10x_StdPeriph_Driver/src/stm32f10x_tim.c **** {
 2359              		.loc 1 1177 0
 2360              		.cfi_startproc
 2361              		@ args = 0, pretend = 0, frame = 8
 2362              		@ frame_needed = 1, uses_anonymous_args = 0
 2363              		@ link register save eliminated.
 2364 0d7c 80B4     		push	{r7}
 2365              	.LCFI75:
 2366              		.cfi_def_cfa_offset 4
 2367              		.cfi_offset 7, -4
 2368 0d7e 83B0     		sub	sp, sp, #12
 2369              	.LCFI76:
 2370              		.cfi_def_cfa_offset 16
 2371 0d80 00AF     		add	r7, sp, #0
 2372              	.LCFI77:
 2373              		.cfi_def_cfa_register 7
 2374 0d82 7860     		str	r0, [r7, #4]
 2375 0d84 1346     		mov	r3, r2
 2376 0d86 0A46     		mov	r2, r1	@ movhi
 2377 0d88 7A80     		strh	r2, [r7, #2]	@ movhi
 2378 0d8a 3B80     		strh	r3, [r7, #0]	@ movhi
1178:../lib/STM32F10x_StdPeriph_Driver/src/stm32f10x_tim.c ****   /* Check the parameters */
1179:../lib/STM32F10x_StdPeriph_Driver/src/stm32f10x_tim.c ****   assert_param(IS_TIM_ALL_PERIPH(TIMx));
1180:../lib/STM32F10x_StdPeriph_Driver/src/stm32f10x_tim.c ****   assert_param(IS_TIM_PRESCALER_RELOAD(TIM_PSCReloadMode));
1181:../lib/STM32F10x_StdPeriph_Driver/src/stm32f10x_tim.c ****   /* Set the Prescaler value */
1182:../lib/STM32F10x_StdPeriph_Driver/src/stm32f10x_tim.c ****   TIMx->PSC = Prescaler;
 2379              		.loc 1 1182 0
 2380 0d8c 7B68     		ldr	r3, [r7, #4]
 2381 0d8e 7A88     		ldrh	r2, [r7, #2]	@ movhi
 2382 0d90 1A85     		strh	r2, [r3, #40]	@ movhi
1183:../lib/STM32F10x_StdPeriph_Driver/src/stm32f10x_tim.c ****   /* Set or reset the UG Bit */
1184:../lib/STM32F10x_StdPeriph_Driver/src/stm32f10x_tim.c ****   TIMx->EGR = TIM_PSCReloadMode;
 2383              		.loc 1 1184 0
 2384 0d92 7B68     		ldr	r3, [r7, #4]
 2385 0d94 3A88     		ldrh	r2, [r7, #0]	@ movhi
 2386 0d96 9A82     		strh	r2, [r3, #20]	@ movhi
1185:../lib/STM32F10x_StdPeriph_Driver/src/stm32f10x_tim.c **** }
 2387              		.loc 1 1185 0
 2388 0d98 07F10C07 		add	r7, r7, #12
 2389 0d9c BD46     		mov	sp, r7
 2390 0d9e 80BC     		pop	{r7}
 2391 0da0 7047     		bx	lr
 2392              		.cfi_endproc
 2393              	.LFE54:
 2395 0da2 00BF     		.align	2
 2396              		.global	TIM_CounterModeConfig
 2397              		.thumb
 2398              		.thumb_func
 2400              	TIM_CounterModeConfig:
 2401              	.LFB55:
1186:../lib/STM32F10x_StdPeriph_Driver/src/stm32f10x_tim.c **** 
1187:../lib/STM32F10x_StdPeriph_Driver/src/stm32f10x_tim.c **** /**
1188:../lib/STM32F10x_StdPeriph_Driver/src/stm32f10x_tim.c ****   * @brief  Specifies the TIMx Counter Mode to be used.
1189:../lib/STM32F10x_StdPeriph_Driver/src/stm32f10x_tim.c ****   * @param  TIMx: where x can be  1, 2, 3, 4, 5 or 8 to select the TIM peripheral.
1190:../lib/STM32F10x_StdPeriph_Driver/src/stm32f10x_tim.c ****   * @param  TIM_CounterMode: specifies the Counter Mode to be used
1191:../lib/STM32F10x_StdPeriph_Driver/src/stm32f10x_tim.c ****   *   This parameter can be one of the following values:
1192:../lib/STM32F10x_StdPeriph_Driver/src/stm32f10x_tim.c ****   *     @arg TIM_CounterMode_Up: TIM Up Counting Mode
1193:../lib/STM32F10x_StdPeriph_Driver/src/stm32f10x_tim.c ****   *     @arg TIM_CounterMode_Down: TIM Down Counting Mode
1194:../lib/STM32F10x_StdPeriph_Driver/src/stm32f10x_tim.c ****   *     @arg TIM_CounterMode_CenterAligned1: TIM Center Aligned Mode1
1195:../lib/STM32F10x_StdPeriph_Driver/src/stm32f10x_tim.c ****   *     @arg TIM_CounterMode_CenterAligned2: TIM Center Aligned Mode2
1196:../lib/STM32F10x_StdPeriph_Driver/src/stm32f10x_tim.c ****   *     @arg TIM_CounterMode_CenterAligned3: TIM Center Aligned Mode3
1197:../lib/STM32F10x_StdPeriph_Driver/src/stm32f10x_tim.c ****   * @retval None
1198:../lib/STM32F10x_StdPeriph_Driver/src/stm32f10x_tim.c ****   */
1199:../lib/STM32F10x_StdPeriph_Driver/src/stm32f10x_tim.c **** void TIM_CounterModeConfig(TIM_TypeDef* TIMx, uint16_t TIM_CounterMode)
1200:../lib/STM32F10x_StdPeriph_Driver/src/stm32f10x_tim.c **** {
 2402              		.loc 1 1200 0
 2403              		.cfi_startproc
 2404              		@ args = 0, pretend = 0, frame = 16
 2405              		@ frame_needed = 1, uses_anonymous_args = 0
 2406              		@ link register save eliminated.
 2407 0da4 80B4     		push	{r7}
 2408              	.LCFI78:
 2409              		.cfi_def_cfa_offset 4
 2410              		.cfi_offset 7, -4
 2411 0da6 85B0     		sub	sp, sp, #20
 2412              	.LCFI79:
 2413              		.cfi_def_cfa_offset 24
 2414 0da8 00AF     		add	r7, sp, #0
 2415              	.LCFI80:
 2416              		.cfi_def_cfa_register 7
 2417 0daa 7860     		str	r0, [r7, #4]
 2418 0dac 0B46     		mov	r3, r1
 2419 0dae 7B80     		strh	r3, [r7, #2]	@ movhi
1201:../lib/STM32F10x_StdPeriph_Driver/src/stm32f10x_tim.c ****   uint16_t tmpcr1 = 0;
 2420              		.loc 1 1201 0
 2421 0db0 4FF00003 		mov	r3, #0
 2422 0db4 FB81     		strh	r3, [r7, #14]	@ movhi
1202:../lib/STM32F10x_StdPeriph_Driver/src/stm32f10x_tim.c ****   /* Check the parameters */
1203:../lib/STM32F10x_StdPeriph_Driver/src/stm32f10x_tim.c ****   assert_param(IS_TIM_LIST3_PERIPH(TIMx));
1204:../lib/STM32F10x_StdPeriph_Driver/src/stm32f10x_tim.c ****   assert_param(IS_TIM_COUNTER_MODE(TIM_CounterMode));
1205:../lib/STM32F10x_StdPeriph_Driver/src/stm32f10x_tim.c ****   tmpcr1 = TIMx->CR1;
 2423              		.loc 1 1205 0
 2424 0db6 7B68     		ldr	r3, [r7, #4]
 2425 0db8 1B88     		ldrh	r3, [r3, #0]	@ movhi
 2426 0dba FB81     		strh	r3, [r7, #14]	@ movhi
1206:../lib/STM32F10x_StdPeriph_Driver/src/stm32f10x_tim.c ****   /* Reset the CMS and DIR Bits */
1207:../lib/STM32F10x_StdPeriph_Driver/src/stm32f10x_tim.c ****   tmpcr1 &= (uint16_t)(~((uint16_t)(TIM_CR1_DIR | TIM_CR1_CMS)));
 2427              		.loc 1 1207 0
 2428 0dbc FB89     		ldrh	r3, [r7, #14]	@ movhi
 2429 0dbe 23F07003 		bic	r3, r3, #112
 2430 0dc2 FB81     		strh	r3, [r7, #14]	@ movhi
1208:../lib/STM32F10x_StdPeriph_Driver/src/stm32f10x_tim.c ****   /* Set the Counter Mode */
1209:../lib/STM32F10x_StdPeriph_Driver/src/stm32f10x_tim.c ****   tmpcr1 |= TIM_CounterMode;
 2431              		.loc 1 1209 0
 2432 0dc4 FA89     		ldrh	r2, [r7, #14]	@ movhi
 2433 0dc6 7B88     		ldrh	r3, [r7, #2]	@ movhi
 2434 0dc8 1343     		orrs	r3, r3, r2
 2435 0dca FB81     		strh	r3, [r7, #14]	@ movhi
1210:../lib/STM32F10x_StdPeriph_Driver/src/stm32f10x_tim.c ****   /* Write to TIMx CR1 register */
1211:../lib/STM32F10x_StdPeriph_Driver/src/stm32f10x_tim.c ****   TIMx->CR1 = tmpcr1;
 2436              		.loc 1 1211 0
 2437 0dcc 7B68     		ldr	r3, [r7, #4]
 2438 0dce FA89     		ldrh	r2, [r7, #14]	@ movhi
 2439 0dd0 1A80     		strh	r2, [r3, #0]	@ movhi
1212:../lib/STM32F10x_StdPeriph_Driver/src/stm32f10x_tim.c **** }
 2440              		.loc 1 1212 0
 2441 0dd2 07F11407 		add	r7, r7, #20
 2442 0dd6 BD46     		mov	sp, r7
 2443 0dd8 80BC     		pop	{r7}
 2444 0dda 7047     		bx	lr
 2445              		.cfi_endproc
 2446              	.LFE55:
 2448              		.align	2
 2449              		.global	TIM_SelectInputTrigger
 2450              		.thumb
 2451              		.thumb_func
 2453              	TIM_SelectInputTrigger:
 2454              	.LFB56:
1213:../lib/STM32F10x_StdPeriph_Driver/src/stm32f10x_tim.c **** 
1214:../lib/STM32F10x_StdPeriph_Driver/src/stm32f10x_tim.c **** /**
1215:../lib/STM32F10x_StdPeriph_Driver/src/stm32f10x_tim.c ****   * @brief  Selects the Input Trigger source
1216:../lib/STM32F10x_StdPeriph_Driver/src/stm32f10x_tim.c ****   * @param  TIMx: where x can be  1, 2, 3, 4, 5, 8, 9, 12 or 15 to select the TIM peripheral.
1217:../lib/STM32F10x_StdPeriph_Driver/src/stm32f10x_tim.c ****   * @param  TIM_InputTriggerSource: The Input Trigger source.
1218:../lib/STM32F10x_StdPeriph_Driver/src/stm32f10x_tim.c ****   *   This parameter can be one of the following values:
1219:../lib/STM32F10x_StdPeriph_Driver/src/stm32f10x_tim.c ****   *     @arg TIM_TS_ITR0: Internal Trigger 0
1220:../lib/STM32F10x_StdPeriph_Driver/src/stm32f10x_tim.c ****   *     @arg TIM_TS_ITR1: Internal Trigger 1
1221:../lib/STM32F10x_StdPeriph_Driver/src/stm32f10x_tim.c ****   *     @arg TIM_TS_ITR2: Internal Trigger 2
1222:../lib/STM32F10x_StdPeriph_Driver/src/stm32f10x_tim.c ****   *     @arg TIM_TS_ITR3: Internal Trigger 3
1223:../lib/STM32F10x_StdPeriph_Driver/src/stm32f10x_tim.c ****   *     @arg TIM_TS_TI1F_ED: TI1 Edge Detector
1224:../lib/STM32F10x_StdPeriph_Driver/src/stm32f10x_tim.c ****   *     @arg TIM_TS_TI1FP1: Filtered Timer Input 1
1225:../lib/STM32F10x_StdPeriph_Driver/src/stm32f10x_tim.c ****   *     @arg TIM_TS_TI2FP2: Filtered Timer Input 2
1226:../lib/STM32F10x_StdPeriph_Driver/src/stm32f10x_tim.c ****   *     @arg TIM_TS_ETRF: External Trigger input
1227:../lib/STM32F10x_StdPeriph_Driver/src/stm32f10x_tim.c ****   * @retval None
1228:../lib/STM32F10x_StdPeriph_Driver/src/stm32f10x_tim.c ****   */
1229:../lib/STM32F10x_StdPeriph_Driver/src/stm32f10x_tim.c **** void TIM_SelectInputTrigger(TIM_TypeDef* TIMx, uint16_t TIM_InputTriggerSource)
1230:../lib/STM32F10x_StdPeriph_Driver/src/stm32f10x_tim.c **** {
 2455              		.loc 1 1230 0
 2456              		.cfi_startproc
 2457              		@ args = 0, pretend = 0, frame = 16
 2458              		@ frame_needed = 1, uses_anonymous_args = 0
 2459              		@ link register save eliminated.
 2460 0ddc 80B4     		push	{r7}
 2461              	.LCFI81:
 2462              		.cfi_def_cfa_offset 4
 2463              		.cfi_offset 7, -4
 2464 0dde 85B0     		sub	sp, sp, #20
 2465              	.LCFI82:
 2466              		.cfi_def_cfa_offset 24
 2467 0de0 00AF     		add	r7, sp, #0
 2468              	.LCFI83:
 2469              		.cfi_def_cfa_register 7
 2470 0de2 7860     		str	r0, [r7, #4]
 2471 0de4 0B46     		mov	r3, r1
 2472 0de6 7B80     		strh	r3, [r7, #2]	@ movhi
1231:../lib/STM32F10x_StdPeriph_Driver/src/stm32f10x_tim.c ****   uint16_t tmpsmcr = 0;
 2473              		.loc 1 1231 0
 2474 0de8 4FF00003 		mov	r3, #0
 2475 0dec FB81     		strh	r3, [r7, #14]	@ movhi
1232:../lib/STM32F10x_StdPeriph_Driver/src/stm32f10x_tim.c ****   /* Check the parameters */
1233:../lib/STM32F10x_StdPeriph_Driver/src/stm32f10x_tim.c ****   assert_param(IS_TIM_LIST6_PERIPH(TIMx));
1234:../lib/STM32F10x_StdPeriph_Driver/src/stm32f10x_tim.c ****   assert_param(IS_TIM_TRIGGER_SELECTION(TIM_InputTriggerSource));
1235:../lib/STM32F10x_StdPeriph_Driver/src/stm32f10x_tim.c ****   /* Get the TIMx SMCR register value */
1236:../lib/STM32F10x_StdPeriph_Driver/src/stm32f10x_tim.c ****   tmpsmcr = TIMx->SMCR;
 2476              		.loc 1 1236 0
 2477 0dee 7B68     		ldr	r3, [r7, #4]
 2478 0df0 1B89     		ldrh	r3, [r3, #8]	@ movhi
 2479 0df2 FB81     		strh	r3, [r7, #14]	@ movhi
1237:../lib/STM32F10x_StdPeriph_Driver/src/stm32f10x_tim.c ****   /* Reset the TS Bits */
1238:../lib/STM32F10x_StdPeriph_Driver/src/stm32f10x_tim.c ****   tmpsmcr &= (uint16_t)(~((uint16_t)TIM_SMCR_TS));
 2480              		.loc 1 1238 0
 2481 0df4 FB89     		ldrh	r3, [r7, #14]	@ movhi
 2482 0df6 23F07003 		bic	r3, r3, #112
 2483 0dfa FB81     		strh	r3, [r7, #14]	@ movhi
1239:../lib/STM32F10x_StdPeriph_Driver/src/stm32f10x_tim.c ****   /* Set the Input Trigger source */
1240:../lib/STM32F10x_StdPeriph_Driver/src/stm32f10x_tim.c ****   tmpsmcr |= TIM_InputTriggerSource;
 2484              		.loc 1 1240 0
 2485 0dfc FA89     		ldrh	r2, [r7, #14]	@ movhi
 2486 0dfe 7B88     		ldrh	r3, [r7, #2]	@ movhi
 2487 0e00 1343     		orrs	r3, r3, r2
 2488 0e02 FB81     		strh	r3, [r7, #14]	@ movhi
1241:../lib/STM32F10x_StdPeriph_Driver/src/stm32f10x_tim.c ****   /* Write to TIMx SMCR */
1242:../lib/STM32F10x_StdPeriph_Driver/src/stm32f10x_tim.c ****   TIMx->SMCR = tmpsmcr;
 2489              		.loc 1 1242 0
 2490 0e04 7B68     		ldr	r3, [r7, #4]
 2491 0e06 FA89     		ldrh	r2, [r7, #14]	@ movhi
 2492 0e08 1A81     		strh	r2, [r3, #8]	@ movhi
1243:../lib/STM32F10x_StdPeriph_Driver/src/stm32f10x_tim.c **** }
 2493              		.loc 1 1243 0
 2494 0e0a 07F11407 		add	r7, r7, #20
 2495 0e0e BD46     		mov	sp, r7
 2496 0e10 80BC     		pop	{r7}
 2497 0e12 7047     		bx	lr
 2498              		.cfi_endproc
 2499              	.LFE56:
 2501              		.align	2
 2502              		.global	TIM_EncoderInterfaceConfig
 2503              		.thumb
 2504              		.thumb_func
 2506              	TIM_EncoderInterfaceConfig:
 2507              	.LFB57:
1244:../lib/STM32F10x_StdPeriph_Driver/src/stm32f10x_tim.c **** 
1245:../lib/STM32F10x_StdPeriph_Driver/src/stm32f10x_tim.c **** /**
1246:../lib/STM32F10x_StdPeriph_Driver/src/stm32f10x_tim.c ****   * @brief  Configures the TIMx Encoder Interface.
1247:../lib/STM32F10x_StdPeriph_Driver/src/stm32f10x_tim.c ****   * @param  TIMx: where x can be  1, 2, 3, 4, 5 or 8 to select the TIM peripheral.
1248:../lib/STM32F10x_StdPeriph_Driver/src/stm32f10x_tim.c ****   * @param  TIM_EncoderMode: specifies the TIMx Encoder Mode.
1249:../lib/STM32F10x_StdPeriph_Driver/src/stm32f10x_tim.c ****   *   This parameter can be one of the following values:
1250:../lib/STM32F10x_StdPeriph_Driver/src/stm32f10x_tim.c ****   *     @arg TIM_EncoderMode_TI1: Counter counts on TI1FP1 edge depending on TI2FP2 level.
1251:../lib/STM32F10x_StdPeriph_Driver/src/stm32f10x_tim.c ****   *     @arg TIM_EncoderMode_TI2: Counter counts on TI2FP2 edge depending on TI1FP1 level.
1252:../lib/STM32F10x_StdPeriph_Driver/src/stm32f10x_tim.c ****   *     @arg TIM_EncoderMode_TI12: Counter counts on both TI1FP1 and TI2FP2 edges depending
1253:../lib/STM32F10x_StdPeriph_Driver/src/stm32f10x_tim.c ****   *                                on the level of the other input.
1254:../lib/STM32F10x_StdPeriph_Driver/src/stm32f10x_tim.c ****   * @param  TIM_IC1Polarity: specifies the IC1 Polarity
1255:../lib/STM32F10x_StdPeriph_Driver/src/stm32f10x_tim.c ****   *   This parameter can be one of the following values:
1256:../lib/STM32F10x_StdPeriph_Driver/src/stm32f10x_tim.c ****   *     @arg TIM_ICPolarity_Falling: IC Falling edge.
1257:../lib/STM32F10x_StdPeriph_Driver/src/stm32f10x_tim.c ****   *     @arg TIM_ICPolarity_Rising: IC Rising edge.
1258:../lib/STM32F10x_StdPeriph_Driver/src/stm32f10x_tim.c ****   * @param  TIM_IC2Polarity: specifies the IC2 Polarity
1259:../lib/STM32F10x_StdPeriph_Driver/src/stm32f10x_tim.c ****   *   This parameter can be one of the following values:
1260:../lib/STM32F10x_StdPeriph_Driver/src/stm32f10x_tim.c ****   *     @arg TIM_ICPolarity_Falling: IC Falling edge.
1261:../lib/STM32F10x_StdPeriph_Driver/src/stm32f10x_tim.c ****   *     @arg TIM_ICPolarity_Rising: IC Rising edge.
1262:../lib/STM32F10x_StdPeriph_Driver/src/stm32f10x_tim.c ****   * @retval None
1263:../lib/STM32F10x_StdPeriph_Driver/src/stm32f10x_tim.c ****   */
1264:../lib/STM32F10x_StdPeriph_Driver/src/stm32f10x_tim.c **** void TIM_EncoderInterfaceConfig(TIM_TypeDef* TIMx, uint16_t TIM_EncoderMode,
1265:../lib/STM32F10x_StdPeriph_Driver/src/stm32f10x_tim.c ****                                 uint16_t TIM_IC1Polarity, uint16_t TIM_IC2Polarity)
1266:../lib/STM32F10x_StdPeriph_Driver/src/stm32f10x_tim.c **** {
 2508              		.loc 1 1266 0
 2509              		.cfi_startproc
 2510              		@ args = 0, pretend = 0, frame = 24
 2511              		@ frame_needed = 1, uses_anonymous_args = 0
 2512              		@ link register save eliminated.
 2513 0e14 80B4     		push	{r7}
 2514              	.LCFI84:
 2515              		.cfi_def_cfa_offset 4
 2516              		.cfi_offset 7, -4
 2517 0e16 87B0     		sub	sp, sp, #28
 2518              	.LCFI85:
 2519              		.cfi_def_cfa_offset 32
 2520 0e18 00AF     		add	r7, sp, #0
 2521              	.LCFI86:
 2522              		.cfi_def_cfa_register 7
 2523 0e1a F860     		str	r0, [r7, #12]
 2524 0e1c 7981     		strh	r1, [r7, #10]	@ movhi
 2525 0e1e 3A81     		strh	r2, [r7, #8]	@ movhi
 2526 0e20 FB80     		strh	r3, [r7, #6]	@ movhi
1267:../lib/STM32F10x_StdPeriph_Driver/src/stm32f10x_tim.c ****   uint16_t tmpsmcr = 0;
 2527              		.loc 1 1267 0
 2528 0e22 4FF00003 		mov	r3, #0
 2529 0e26 FB82     		strh	r3, [r7, #22]	@ movhi
1268:../lib/STM32F10x_StdPeriph_Driver/src/stm32f10x_tim.c ****   uint16_t tmpccmr1 = 0;
 2530              		.loc 1 1268 0
 2531 0e28 4FF00003 		mov	r3, #0
 2532 0e2c BB82     		strh	r3, [r7, #20]	@ movhi
1269:../lib/STM32F10x_StdPeriph_Driver/src/stm32f10x_tim.c ****   uint16_t tmpccer = 0;
 2533              		.loc 1 1269 0
 2534 0e2e 4FF00003 		mov	r3, #0
 2535 0e32 7B82     		strh	r3, [r7, #18]	@ movhi
1270:../lib/STM32F10x_StdPeriph_Driver/src/stm32f10x_tim.c ****     
1271:../lib/STM32F10x_StdPeriph_Driver/src/stm32f10x_tim.c ****   /* Check the parameters */
1272:../lib/STM32F10x_StdPeriph_Driver/src/stm32f10x_tim.c ****   assert_param(IS_TIM_LIST5_PERIPH(TIMx));
1273:../lib/STM32F10x_StdPeriph_Driver/src/stm32f10x_tim.c ****   assert_param(IS_TIM_ENCODER_MODE(TIM_EncoderMode));
1274:../lib/STM32F10x_StdPeriph_Driver/src/stm32f10x_tim.c ****   assert_param(IS_TIM_IC_POLARITY(TIM_IC1Polarity));
1275:../lib/STM32F10x_StdPeriph_Driver/src/stm32f10x_tim.c ****   assert_param(IS_TIM_IC_POLARITY(TIM_IC2Polarity));
1276:../lib/STM32F10x_StdPeriph_Driver/src/stm32f10x_tim.c **** 
1277:../lib/STM32F10x_StdPeriph_Driver/src/stm32f10x_tim.c ****   /* Get the TIMx SMCR register value */
1278:../lib/STM32F10x_StdPeriph_Driver/src/stm32f10x_tim.c ****   tmpsmcr = TIMx->SMCR;
 2536              		.loc 1 1278 0
 2537 0e34 FB68     		ldr	r3, [r7, #12]
 2538 0e36 1B89     		ldrh	r3, [r3, #8]	@ movhi
 2539 0e38 FB82     		strh	r3, [r7, #22]	@ movhi
1279:../lib/STM32F10x_StdPeriph_Driver/src/stm32f10x_tim.c ****   
1280:../lib/STM32F10x_StdPeriph_Driver/src/stm32f10x_tim.c ****   /* Get the TIMx CCMR1 register value */
1281:../lib/STM32F10x_StdPeriph_Driver/src/stm32f10x_tim.c ****   tmpccmr1 = TIMx->CCMR1;
 2540              		.loc 1 1281 0
 2541 0e3a FB68     		ldr	r3, [r7, #12]
 2542 0e3c 1B8B     		ldrh	r3, [r3, #24]	@ movhi
 2543 0e3e BB82     		strh	r3, [r7, #20]	@ movhi
1282:../lib/STM32F10x_StdPeriph_Driver/src/stm32f10x_tim.c ****   
1283:../lib/STM32F10x_StdPeriph_Driver/src/stm32f10x_tim.c ****   /* Get the TIMx CCER register value */
1284:../lib/STM32F10x_StdPeriph_Driver/src/stm32f10x_tim.c ****   tmpccer = TIMx->CCER;
 2544              		.loc 1 1284 0
 2545 0e40 FB68     		ldr	r3, [r7, #12]
 2546 0e42 1B8C     		ldrh	r3, [r3, #32]	@ movhi
 2547 0e44 7B82     		strh	r3, [r7, #18]	@ movhi
1285:../lib/STM32F10x_StdPeriph_Driver/src/stm32f10x_tim.c ****   
1286:../lib/STM32F10x_StdPeriph_Driver/src/stm32f10x_tim.c ****   /* Set the encoder Mode */
1287:../lib/STM32F10x_StdPeriph_Driver/src/stm32f10x_tim.c ****   tmpsmcr &= (uint16_t)(~((uint16_t)TIM_SMCR_SMS));
 2548              		.loc 1 1287 0
 2549 0e46 FB8A     		ldrh	r3, [r7, #22]	@ movhi
 2550 0e48 23F00703 		bic	r3, r3, #7
 2551 0e4c FB82     		strh	r3, [r7, #22]	@ movhi
1288:../lib/STM32F10x_StdPeriph_Driver/src/stm32f10x_tim.c ****   tmpsmcr |= TIM_EncoderMode;
 2552              		.loc 1 1288 0
 2553 0e4e FA8A     		ldrh	r2, [r7, #22]	@ movhi
 2554 0e50 7B89     		ldrh	r3, [r7, #10]	@ movhi
 2555 0e52 1343     		orrs	r3, r3, r2
 2556 0e54 FB82     		strh	r3, [r7, #22]	@ movhi
1289:../lib/STM32F10x_StdPeriph_Driver/src/stm32f10x_tim.c ****   
1290:../lib/STM32F10x_StdPeriph_Driver/src/stm32f10x_tim.c ****   /* Select the Capture Compare 1 and the Capture Compare 2 as input */
1291:../lib/STM32F10x_StdPeriph_Driver/src/stm32f10x_tim.c ****   tmpccmr1 &= (uint16_t)(((uint16_t)~((uint16_t)TIM_CCMR1_CC1S)) & (uint16_t)(~((uint16_t)TIM_CCMR1
 2557              		.loc 1 1291 0
 2558 0e56 BB8A     		ldrh	r3, [r7, #20]	@ movhi
 2559 0e58 23F44073 		bic	r3, r3, #768
 2560 0e5c 23F00303 		bic	r3, r3, #3
 2561 0e60 BB82     		strh	r3, [r7, #20]	@ movhi
1292:../lib/STM32F10x_StdPeriph_Driver/src/stm32f10x_tim.c ****   tmpccmr1 |= TIM_CCMR1_CC1S_0 | TIM_CCMR1_CC2S_0;
 2562              		.loc 1 1292 0
 2563 0e62 BB8A     		ldrh	r3, [r7, #20]	@ movhi
 2564 0e64 43F48073 		orr	r3, r3, #256
 2565 0e68 43F00103 		orr	r3, r3, #1
 2566 0e6c BB82     		strh	r3, [r7, #20]	@ movhi
1293:../lib/STM32F10x_StdPeriph_Driver/src/stm32f10x_tim.c ****   
1294:../lib/STM32F10x_StdPeriph_Driver/src/stm32f10x_tim.c ****   /* Set the TI1 and the TI2 Polarities */
1295:../lib/STM32F10x_StdPeriph_Driver/src/stm32f10x_tim.c ****   tmpccer &= (uint16_t)(((uint16_t)~((uint16_t)TIM_CCER_CC1P)) & ((uint16_t)~((uint16_t)TIM_CCER_CC
 2567              		.loc 1 1295 0
 2568 0e6e 7B8A     		ldrh	r3, [r7, #18]	@ movhi
 2569 0e70 23F02203 		bic	r3, r3, #34
 2570 0e74 7B82     		strh	r3, [r7, #18]	@ movhi
1296:../lib/STM32F10x_StdPeriph_Driver/src/stm32f10x_tim.c ****   tmpccer |= (uint16_t)(TIM_IC1Polarity | (uint16_t)(TIM_IC2Polarity << (uint16_t)4));
 2571              		.loc 1 1296 0
 2572 0e76 FB88     		ldrh	r3, [r7, #6]	@ movhi
 2573 0e78 4FEA0313 		lsl	r3, r3, #4
 2574 0e7c 9AB2     		uxth	r2, r3
 2575 0e7e 3B89     		ldrh	r3, [r7, #8]	@ movhi
 2576 0e80 1343     		orrs	r3, r3, r2
 2577 0e82 9AB2     		uxth	r2, r3
 2578 0e84 7B8A     		ldrh	r3, [r7, #18]	@ movhi
 2579 0e86 1343     		orrs	r3, r3, r2
 2580 0e88 7B82     		strh	r3, [r7, #18]	@ movhi
1297:../lib/STM32F10x_StdPeriph_Driver/src/stm32f10x_tim.c ****   
1298:../lib/STM32F10x_StdPeriph_Driver/src/stm32f10x_tim.c ****   /* Write to TIMx SMCR */
1299:../lib/STM32F10x_StdPeriph_Driver/src/stm32f10x_tim.c ****   TIMx->SMCR = tmpsmcr;
 2581              		.loc 1 1299 0
 2582 0e8a FB68     		ldr	r3, [r7, #12]
 2583 0e8c FA8A     		ldrh	r2, [r7, #22]	@ movhi
 2584 0e8e 1A81     		strh	r2, [r3, #8]	@ movhi
1300:../lib/STM32F10x_StdPeriph_Driver/src/stm32f10x_tim.c ****   /* Write to TIMx CCMR1 */
1301:../lib/STM32F10x_StdPeriph_Driver/src/stm32f10x_tim.c ****   TIMx->CCMR1 = tmpccmr1;
 2585              		.loc 1 1301 0
 2586 0e90 FB68     		ldr	r3, [r7, #12]
 2587 0e92 BA8A     		ldrh	r2, [r7, #20]	@ movhi
 2588 0e94 1A83     		strh	r2, [r3, #24]	@ movhi
1302:../lib/STM32F10x_StdPeriph_Driver/src/stm32f10x_tim.c ****   /* Write to TIMx CCER */
1303:../lib/STM32F10x_StdPeriph_Driver/src/stm32f10x_tim.c ****   TIMx->CCER = tmpccer;
 2589              		.loc 1 1303 0
 2590 0e96 FB68     		ldr	r3, [r7, #12]
 2591 0e98 7A8A     		ldrh	r2, [r7, #18]	@ movhi
 2592 0e9a 1A84     		strh	r2, [r3, #32]	@ movhi
1304:../lib/STM32F10x_StdPeriph_Driver/src/stm32f10x_tim.c **** }
 2593              		.loc 1 1304 0
 2594 0e9c 07F11C07 		add	r7, r7, #28
 2595 0ea0 BD46     		mov	sp, r7
 2596 0ea2 80BC     		pop	{r7}
 2597 0ea4 7047     		bx	lr
 2598              		.cfi_endproc
 2599              	.LFE57:
 2601 0ea6 00BF     		.align	2
 2602              		.global	TIM_ForcedOC1Config
 2603              		.thumb
 2604              		.thumb_func
 2606              	TIM_ForcedOC1Config:
 2607              	.LFB58:
1305:../lib/STM32F10x_StdPeriph_Driver/src/stm32f10x_tim.c **** 
1306:../lib/STM32F10x_StdPeriph_Driver/src/stm32f10x_tim.c **** /**
1307:../lib/STM32F10x_StdPeriph_Driver/src/stm32f10x_tim.c ****   * @brief  Forces the TIMx output 1 waveform to active or inactive level.
1308:../lib/STM32F10x_StdPeriph_Driver/src/stm32f10x_tim.c ****   * @param  TIMx: where x can be  1 to 17 except 6 and 7 to select the TIM peripheral.
1309:../lib/STM32F10x_StdPeriph_Driver/src/stm32f10x_tim.c ****   * @param  TIM_ForcedAction: specifies the forced Action to be set to the output waveform.
1310:../lib/STM32F10x_StdPeriph_Driver/src/stm32f10x_tim.c ****   *   This parameter can be one of the following values:
1311:../lib/STM32F10x_StdPeriph_Driver/src/stm32f10x_tim.c ****   *     @arg TIM_ForcedAction_Active: Force active level on OC1REF
1312:../lib/STM32F10x_StdPeriph_Driver/src/stm32f10x_tim.c ****   *     @arg TIM_ForcedAction_InActive: Force inactive level on OC1REF.
1313:../lib/STM32F10x_StdPeriph_Driver/src/stm32f10x_tim.c ****   * @retval None
1314:../lib/STM32F10x_StdPeriph_Driver/src/stm32f10x_tim.c ****   */
1315:../lib/STM32F10x_StdPeriph_Driver/src/stm32f10x_tim.c **** void TIM_ForcedOC1Config(TIM_TypeDef* TIMx, uint16_t TIM_ForcedAction)
1316:../lib/STM32F10x_StdPeriph_Driver/src/stm32f10x_tim.c **** {
 2608              		.loc 1 1316 0
 2609              		.cfi_startproc
 2610              		@ args = 0, pretend = 0, frame = 16
 2611              		@ frame_needed = 1, uses_anonymous_args = 0
 2612              		@ link register save eliminated.
 2613 0ea8 80B4     		push	{r7}
 2614              	.LCFI87:
 2615              		.cfi_def_cfa_offset 4
 2616              		.cfi_offset 7, -4
 2617 0eaa 85B0     		sub	sp, sp, #20
 2618              	.LCFI88:
 2619              		.cfi_def_cfa_offset 24
 2620 0eac 00AF     		add	r7, sp, #0
 2621              	.LCFI89:
 2622              		.cfi_def_cfa_register 7
 2623 0eae 7860     		str	r0, [r7, #4]
 2624 0eb0 0B46     		mov	r3, r1
 2625 0eb2 7B80     		strh	r3, [r7, #2]	@ movhi
1317:../lib/STM32F10x_StdPeriph_Driver/src/stm32f10x_tim.c ****   uint16_t tmpccmr1 = 0;
 2626              		.loc 1 1317 0
 2627 0eb4 4FF00003 		mov	r3, #0
 2628 0eb8 FB81     		strh	r3, [r7, #14]	@ movhi
1318:../lib/STM32F10x_StdPeriph_Driver/src/stm32f10x_tim.c ****   /* Check the parameters */
1319:../lib/STM32F10x_StdPeriph_Driver/src/stm32f10x_tim.c ****   assert_param(IS_TIM_LIST8_PERIPH(TIMx));
1320:../lib/STM32F10x_StdPeriph_Driver/src/stm32f10x_tim.c ****   assert_param(IS_TIM_FORCED_ACTION(TIM_ForcedAction));
1321:../lib/STM32F10x_StdPeriph_Driver/src/stm32f10x_tim.c ****   tmpccmr1 = TIMx->CCMR1;
 2629              		.loc 1 1321 0
 2630 0eba 7B68     		ldr	r3, [r7, #4]
 2631 0ebc 1B8B     		ldrh	r3, [r3, #24]	@ movhi
 2632 0ebe FB81     		strh	r3, [r7, #14]	@ movhi
1322:../lib/STM32F10x_StdPeriph_Driver/src/stm32f10x_tim.c ****   /* Reset the OC1M Bits */
1323:../lib/STM32F10x_StdPeriph_Driver/src/stm32f10x_tim.c ****   tmpccmr1 &= (uint16_t)~((uint16_t)TIM_CCMR1_OC1M);
 2633              		.loc 1 1323 0
 2634 0ec0 FB89     		ldrh	r3, [r7, #14]	@ movhi
 2635 0ec2 23F07003 		bic	r3, r3, #112
 2636 0ec6 FB81     		strh	r3, [r7, #14]	@ movhi
1324:../lib/STM32F10x_StdPeriph_Driver/src/stm32f10x_tim.c ****   /* Configure The Forced output Mode */
1325:../lib/STM32F10x_StdPeriph_Driver/src/stm32f10x_tim.c ****   tmpccmr1 |= TIM_ForcedAction;
 2637              		.loc 1 1325 0
 2638 0ec8 FA89     		ldrh	r2, [r7, #14]	@ movhi
 2639 0eca 7B88     		ldrh	r3, [r7, #2]	@ movhi
 2640 0ecc 1343     		orrs	r3, r3, r2
 2641 0ece FB81     		strh	r3, [r7, #14]	@ movhi
1326:../lib/STM32F10x_StdPeriph_Driver/src/stm32f10x_tim.c ****   /* Write to TIMx CCMR1 register */
1327:../lib/STM32F10x_StdPeriph_Driver/src/stm32f10x_tim.c ****   TIMx->CCMR1 = tmpccmr1;
 2642              		.loc 1 1327 0
 2643 0ed0 7B68     		ldr	r3, [r7, #4]
 2644 0ed2 FA89     		ldrh	r2, [r7, #14]	@ movhi
 2645 0ed4 1A83     		strh	r2, [r3, #24]	@ movhi
1328:../lib/STM32F10x_StdPeriph_Driver/src/stm32f10x_tim.c **** }
 2646              		.loc 1 1328 0
 2647 0ed6 07F11407 		add	r7, r7, #20
 2648 0eda BD46     		mov	sp, r7
 2649 0edc 80BC     		pop	{r7}
 2650 0ede 7047     		bx	lr
 2651              		.cfi_endproc
 2652              	.LFE58:
 2654              		.align	2
 2655              		.global	TIM_ForcedOC2Config
 2656              		.thumb
 2657              		.thumb_func
 2659              	TIM_ForcedOC2Config:
 2660              	.LFB59:
1329:../lib/STM32F10x_StdPeriph_Driver/src/stm32f10x_tim.c **** 
1330:../lib/STM32F10x_StdPeriph_Driver/src/stm32f10x_tim.c **** /**
1331:../lib/STM32F10x_StdPeriph_Driver/src/stm32f10x_tim.c ****   * @brief  Forces the TIMx output 2 waveform to active or inactive level.
1332:../lib/STM32F10x_StdPeriph_Driver/src/stm32f10x_tim.c ****   * @param  TIMx: where x can be  1, 2, 3, 4, 5, 8, 9, 12 or 15 to select the TIM peripheral.
1333:../lib/STM32F10x_StdPeriph_Driver/src/stm32f10x_tim.c ****   * @param  TIM_ForcedAction: specifies the forced Action to be set to the output waveform.
1334:../lib/STM32F10x_StdPeriph_Driver/src/stm32f10x_tim.c ****   *   This parameter can be one of the following values:
1335:../lib/STM32F10x_StdPeriph_Driver/src/stm32f10x_tim.c ****   *     @arg TIM_ForcedAction_Active: Force active level on OC2REF
1336:../lib/STM32F10x_StdPeriph_Driver/src/stm32f10x_tim.c ****   *     @arg TIM_ForcedAction_InActive: Force inactive level on OC2REF.
1337:../lib/STM32F10x_StdPeriph_Driver/src/stm32f10x_tim.c ****   * @retval None
1338:../lib/STM32F10x_StdPeriph_Driver/src/stm32f10x_tim.c ****   */
1339:../lib/STM32F10x_StdPeriph_Driver/src/stm32f10x_tim.c **** void TIM_ForcedOC2Config(TIM_TypeDef* TIMx, uint16_t TIM_ForcedAction)
1340:../lib/STM32F10x_StdPeriph_Driver/src/stm32f10x_tim.c **** {
 2661              		.loc 1 1340 0
 2662              		.cfi_startproc
 2663              		@ args = 0, pretend = 0, frame = 16
 2664              		@ frame_needed = 1, uses_anonymous_args = 0
 2665              		@ link register save eliminated.
 2666 0ee0 80B4     		push	{r7}
 2667              	.LCFI90:
 2668              		.cfi_def_cfa_offset 4
 2669              		.cfi_offset 7, -4
 2670 0ee2 85B0     		sub	sp, sp, #20
 2671              	.LCFI91:
 2672              		.cfi_def_cfa_offset 24
 2673 0ee4 00AF     		add	r7, sp, #0
 2674              	.LCFI92:
 2675              		.cfi_def_cfa_register 7
 2676 0ee6 7860     		str	r0, [r7, #4]
 2677 0ee8 0B46     		mov	r3, r1
 2678 0eea 7B80     		strh	r3, [r7, #2]	@ movhi
1341:../lib/STM32F10x_StdPeriph_Driver/src/stm32f10x_tim.c ****   uint16_t tmpccmr1 = 0;
 2679              		.loc 1 1341 0
 2680 0eec 4FF00003 		mov	r3, #0
 2681 0ef0 FB81     		strh	r3, [r7, #14]	@ movhi
1342:../lib/STM32F10x_StdPeriph_Driver/src/stm32f10x_tim.c ****   /* Check the parameters */
1343:../lib/STM32F10x_StdPeriph_Driver/src/stm32f10x_tim.c ****   assert_param(IS_TIM_LIST6_PERIPH(TIMx));
1344:../lib/STM32F10x_StdPeriph_Driver/src/stm32f10x_tim.c ****   assert_param(IS_TIM_FORCED_ACTION(TIM_ForcedAction));
1345:../lib/STM32F10x_StdPeriph_Driver/src/stm32f10x_tim.c ****   tmpccmr1 = TIMx->CCMR1;
 2682              		.loc 1 1345 0
 2683 0ef2 7B68     		ldr	r3, [r7, #4]
 2684 0ef4 1B8B     		ldrh	r3, [r3, #24]	@ movhi
 2685 0ef6 FB81     		strh	r3, [r7, #14]	@ movhi
1346:../lib/STM32F10x_StdPeriph_Driver/src/stm32f10x_tim.c ****   /* Reset the OC2M Bits */
1347:../lib/STM32F10x_StdPeriph_Driver/src/stm32f10x_tim.c ****   tmpccmr1 &= (uint16_t)~((uint16_t)TIM_CCMR1_OC2M);
 2686              		.loc 1 1347 0
 2687 0ef8 FB89     		ldrh	r3, [r7, #14]	@ movhi
 2688 0efa 23F4E043 		bic	r3, r3, #28672
 2689 0efe FB81     		strh	r3, [r7, #14]	@ movhi
1348:../lib/STM32F10x_StdPeriph_Driver/src/stm32f10x_tim.c ****   /* Configure The Forced output Mode */
1349:../lib/STM32F10x_StdPeriph_Driver/src/stm32f10x_tim.c ****   tmpccmr1 |= (uint16_t)(TIM_ForcedAction << 8);
 2690              		.loc 1 1349 0
 2691 0f00 7B88     		ldrh	r3, [r7, #2]	@ movhi
 2692 0f02 4FEA0323 		lsl	r3, r3, #8
 2693 0f06 9AB2     		uxth	r2, r3
 2694 0f08 FB89     		ldrh	r3, [r7, #14]	@ movhi
 2695 0f0a 1343     		orrs	r3, r3, r2
 2696 0f0c FB81     		strh	r3, [r7, #14]	@ movhi
1350:../lib/STM32F10x_StdPeriph_Driver/src/stm32f10x_tim.c ****   /* Write to TIMx CCMR1 register */
1351:../lib/STM32F10x_StdPeriph_Driver/src/stm32f10x_tim.c ****   TIMx->CCMR1 = tmpccmr1;
 2697              		.loc 1 1351 0
 2698 0f0e 7B68     		ldr	r3, [r7, #4]
 2699 0f10 FA89     		ldrh	r2, [r7, #14]	@ movhi
 2700 0f12 1A83     		strh	r2, [r3, #24]	@ movhi
1352:../lib/STM32F10x_StdPeriph_Driver/src/stm32f10x_tim.c **** }
 2701              		.loc 1 1352 0
 2702 0f14 07F11407 		add	r7, r7, #20
 2703 0f18 BD46     		mov	sp, r7
 2704 0f1a 80BC     		pop	{r7}
 2705 0f1c 7047     		bx	lr
 2706              		.cfi_endproc
 2707              	.LFE59:
 2709 0f1e 00BF     		.align	2
 2710              		.global	TIM_ForcedOC3Config
 2711              		.thumb
 2712              		.thumb_func
 2714              	TIM_ForcedOC3Config:
 2715              	.LFB60:
1353:../lib/STM32F10x_StdPeriph_Driver/src/stm32f10x_tim.c **** 
1354:../lib/STM32F10x_StdPeriph_Driver/src/stm32f10x_tim.c **** /**
1355:../lib/STM32F10x_StdPeriph_Driver/src/stm32f10x_tim.c ****   * @brief  Forces the TIMx output 3 waveform to active or inactive level.
1356:../lib/STM32F10x_StdPeriph_Driver/src/stm32f10x_tim.c ****   * @param  TIMx: where x can be  1, 2, 3, 4, 5 or 8 to select the TIM peripheral.
1357:../lib/STM32F10x_StdPeriph_Driver/src/stm32f10x_tim.c ****   * @param  TIM_ForcedAction: specifies the forced Action to be set to the output waveform.
1358:../lib/STM32F10x_StdPeriph_Driver/src/stm32f10x_tim.c ****   *   This parameter can be one of the following values:
1359:../lib/STM32F10x_StdPeriph_Driver/src/stm32f10x_tim.c ****   *     @arg TIM_ForcedAction_Active: Force active level on OC3REF
1360:../lib/STM32F10x_StdPeriph_Driver/src/stm32f10x_tim.c ****   *     @arg TIM_ForcedAction_InActive: Force inactive level on OC3REF.
1361:../lib/STM32F10x_StdPeriph_Driver/src/stm32f10x_tim.c ****   * @retval None
1362:../lib/STM32F10x_StdPeriph_Driver/src/stm32f10x_tim.c ****   */
1363:../lib/STM32F10x_StdPeriph_Driver/src/stm32f10x_tim.c **** void TIM_ForcedOC3Config(TIM_TypeDef* TIMx, uint16_t TIM_ForcedAction)
1364:../lib/STM32F10x_StdPeriph_Driver/src/stm32f10x_tim.c **** {
 2716              		.loc 1 1364 0
 2717              		.cfi_startproc
 2718              		@ args = 0, pretend = 0, frame = 16
 2719              		@ frame_needed = 1, uses_anonymous_args = 0
 2720              		@ link register save eliminated.
 2721 0f20 80B4     		push	{r7}
 2722              	.LCFI93:
 2723              		.cfi_def_cfa_offset 4
 2724              		.cfi_offset 7, -4
 2725 0f22 85B0     		sub	sp, sp, #20
 2726              	.LCFI94:
 2727              		.cfi_def_cfa_offset 24
 2728 0f24 00AF     		add	r7, sp, #0
 2729              	.LCFI95:
 2730              		.cfi_def_cfa_register 7
 2731 0f26 7860     		str	r0, [r7, #4]
 2732 0f28 0B46     		mov	r3, r1
 2733 0f2a 7B80     		strh	r3, [r7, #2]	@ movhi
1365:../lib/STM32F10x_StdPeriph_Driver/src/stm32f10x_tim.c ****   uint16_t tmpccmr2 = 0;
 2734              		.loc 1 1365 0
 2735 0f2c 4FF00003 		mov	r3, #0
 2736 0f30 FB81     		strh	r3, [r7, #14]	@ movhi
1366:../lib/STM32F10x_StdPeriph_Driver/src/stm32f10x_tim.c ****   /* Check the parameters */
1367:../lib/STM32F10x_StdPeriph_Driver/src/stm32f10x_tim.c ****   assert_param(IS_TIM_LIST3_PERIPH(TIMx));
1368:../lib/STM32F10x_StdPeriph_Driver/src/stm32f10x_tim.c ****   assert_param(IS_TIM_FORCED_ACTION(TIM_ForcedAction));
1369:../lib/STM32F10x_StdPeriph_Driver/src/stm32f10x_tim.c ****   tmpccmr2 = TIMx->CCMR2;
 2737              		.loc 1 1369 0
 2738 0f32 7B68     		ldr	r3, [r7, #4]
 2739 0f34 9B8B     		ldrh	r3, [r3, #28]	@ movhi
 2740 0f36 FB81     		strh	r3, [r7, #14]	@ movhi
1370:../lib/STM32F10x_StdPeriph_Driver/src/stm32f10x_tim.c ****   /* Reset the OC1M Bits */
1371:../lib/STM32F10x_StdPeriph_Driver/src/stm32f10x_tim.c ****   tmpccmr2 &= (uint16_t)~((uint16_t)TIM_CCMR2_OC3M);
 2741              		.loc 1 1371 0
 2742 0f38 FB89     		ldrh	r3, [r7, #14]	@ movhi
 2743 0f3a 23F07003 		bic	r3, r3, #112
 2744 0f3e FB81     		strh	r3, [r7, #14]	@ movhi
1372:../lib/STM32F10x_StdPeriph_Driver/src/stm32f10x_tim.c ****   /* Configure The Forced output Mode */
1373:../lib/STM32F10x_StdPeriph_Driver/src/stm32f10x_tim.c ****   tmpccmr2 |= TIM_ForcedAction;
 2745              		.loc 1 1373 0
 2746 0f40 FA89     		ldrh	r2, [r7, #14]	@ movhi
 2747 0f42 7B88     		ldrh	r3, [r7, #2]	@ movhi
 2748 0f44 1343     		orrs	r3, r3, r2
 2749 0f46 FB81     		strh	r3, [r7, #14]	@ movhi
1374:../lib/STM32F10x_StdPeriph_Driver/src/stm32f10x_tim.c ****   /* Write to TIMx CCMR2 register */
1375:../lib/STM32F10x_StdPeriph_Driver/src/stm32f10x_tim.c ****   TIMx->CCMR2 = tmpccmr2;
 2750              		.loc 1 1375 0
 2751 0f48 7B68     		ldr	r3, [r7, #4]
 2752 0f4a FA89     		ldrh	r2, [r7, #14]	@ movhi
 2753 0f4c 9A83     		strh	r2, [r3, #28]	@ movhi
1376:../lib/STM32F10x_StdPeriph_Driver/src/stm32f10x_tim.c **** }
 2754              		.loc 1 1376 0
 2755 0f4e 07F11407 		add	r7, r7, #20
 2756 0f52 BD46     		mov	sp, r7
 2757 0f54 80BC     		pop	{r7}
 2758 0f56 7047     		bx	lr
 2759              		.cfi_endproc
 2760              	.LFE60:
 2762              		.align	2
 2763              		.global	TIM_ForcedOC4Config
 2764              		.thumb
 2765              		.thumb_func
 2767              	TIM_ForcedOC4Config:
 2768              	.LFB61:
1377:../lib/STM32F10x_StdPeriph_Driver/src/stm32f10x_tim.c **** 
1378:../lib/STM32F10x_StdPeriph_Driver/src/stm32f10x_tim.c **** /**
1379:../lib/STM32F10x_StdPeriph_Driver/src/stm32f10x_tim.c ****   * @brief  Forces the TIMx output 4 waveform to active or inactive level.
1380:../lib/STM32F10x_StdPeriph_Driver/src/stm32f10x_tim.c ****   * @param  TIMx: where x can be  1, 2, 3, 4, 5 or 8 to select the TIM peripheral.
1381:../lib/STM32F10x_StdPeriph_Driver/src/stm32f10x_tim.c ****   * @param  TIM_ForcedAction: specifies the forced Action to be set to the output waveform.
1382:../lib/STM32F10x_StdPeriph_Driver/src/stm32f10x_tim.c ****   *   This parameter can be one of the following values:
1383:../lib/STM32F10x_StdPeriph_Driver/src/stm32f10x_tim.c ****   *     @arg TIM_ForcedAction_Active: Force active level on OC4REF
1384:../lib/STM32F10x_StdPeriph_Driver/src/stm32f10x_tim.c ****   *     @arg TIM_ForcedAction_InActive: Force inactive level on OC4REF.
1385:../lib/STM32F10x_StdPeriph_Driver/src/stm32f10x_tim.c ****   * @retval None
1386:../lib/STM32F10x_StdPeriph_Driver/src/stm32f10x_tim.c ****   */
1387:../lib/STM32F10x_StdPeriph_Driver/src/stm32f10x_tim.c **** void TIM_ForcedOC4Config(TIM_TypeDef* TIMx, uint16_t TIM_ForcedAction)
1388:../lib/STM32F10x_StdPeriph_Driver/src/stm32f10x_tim.c **** {
 2769              		.loc 1 1388 0
 2770              		.cfi_startproc
 2771              		@ args = 0, pretend = 0, frame = 16
 2772              		@ frame_needed = 1, uses_anonymous_args = 0
 2773              		@ link register save eliminated.
 2774 0f58 80B4     		push	{r7}
 2775              	.LCFI96:
 2776              		.cfi_def_cfa_offset 4
 2777              		.cfi_offset 7, -4
 2778 0f5a 85B0     		sub	sp, sp, #20
 2779              	.LCFI97:
 2780              		.cfi_def_cfa_offset 24
 2781 0f5c 00AF     		add	r7, sp, #0
 2782              	.LCFI98:
 2783              		.cfi_def_cfa_register 7
 2784 0f5e 7860     		str	r0, [r7, #4]
 2785 0f60 0B46     		mov	r3, r1
 2786 0f62 7B80     		strh	r3, [r7, #2]	@ movhi
1389:../lib/STM32F10x_StdPeriph_Driver/src/stm32f10x_tim.c ****   uint16_t tmpccmr2 = 0;
 2787              		.loc 1 1389 0
 2788 0f64 4FF00003 		mov	r3, #0
 2789 0f68 FB81     		strh	r3, [r7, #14]	@ movhi
1390:../lib/STM32F10x_StdPeriph_Driver/src/stm32f10x_tim.c ****   /* Check the parameters */
1391:../lib/STM32F10x_StdPeriph_Driver/src/stm32f10x_tim.c ****   assert_param(IS_TIM_LIST3_PERIPH(TIMx));
1392:../lib/STM32F10x_StdPeriph_Driver/src/stm32f10x_tim.c ****   assert_param(IS_TIM_FORCED_ACTION(TIM_ForcedAction));
1393:../lib/STM32F10x_StdPeriph_Driver/src/stm32f10x_tim.c ****   tmpccmr2 = TIMx->CCMR2;
 2790              		.loc 1 1393 0
 2791 0f6a 7B68     		ldr	r3, [r7, #4]
 2792 0f6c 9B8B     		ldrh	r3, [r3, #28]	@ movhi
 2793 0f6e FB81     		strh	r3, [r7, #14]	@ movhi
1394:../lib/STM32F10x_StdPeriph_Driver/src/stm32f10x_tim.c ****   /* Reset the OC2M Bits */
1395:../lib/STM32F10x_StdPeriph_Driver/src/stm32f10x_tim.c ****   tmpccmr2 &= (uint16_t)~((uint16_t)TIM_CCMR2_OC4M);
 2794              		.loc 1 1395 0
 2795 0f70 FB89     		ldrh	r3, [r7, #14]	@ movhi
 2796 0f72 23F4E043 		bic	r3, r3, #28672
 2797 0f76 FB81     		strh	r3, [r7, #14]	@ movhi
1396:../lib/STM32F10x_StdPeriph_Driver/src/stm32f10x_tim.c ****   /* Configure The Forced output Mode */
1397:../lib/STM32F10x_StdPeriph_Driver/src/stm32f10x_tim.c ****   tmpccmr2 |= (uint16_t)(TIM_ForcedAction << 8);
 2798              		.loc 1 1397 0
 2799 0f78 7B88     		ldrh	r3, [r7, #2]	@ movhi
 2800 0f7a 4FEA0323 		lsl	r3, r3, #8
 2801 0f7e 9AB2     		uxth	r2, r3
 2802 0f80 FB89     		ldrh	r3, [r7, #14]	@ movhi
 2803 0f82 1343     		orrs	r3, r3, r2
 2804 0f84 FB81     		strh	r3, [r7, #14]	@ movhi
1398:../lib/STM32F10x_StdPeriph_Driver/src/stm32f10x_tim.c ****   /* Write to TIMx CCMR2 register */
1399:../lib/STM32F10x_StdPeriph_Driver/src/stm32f10x_tim.c ****   TIMx->CCMR2 = tmpccmr2;
 2805              		.loc 1 1399 0
 2806 0f86 7B68     		ldr	r3, [r7, #4]
 2807 0f88 FA89     		ldrh	r2, [r7, #14]	@ movhi
 2808 0f8a 9A83     		strh	r2, [r3, #28]	@ movhi
1400:../lib/STM32F10x_StdPeriph_Driver/src/stm32f10x_tim.c **** }
 2809              		.loc 1 1400 0
 2810 0f8c 07F11407 		add	r7, r7, #20
 2811 0f90 BD46     		mov	sp, r7
 2812 0f92 80BC     		pop	{r7}
 2813 0f94 7047     		bx	lr
 2814              		.cfi_endproc
 2815              	.LFE61:
 2817 0f96 00BF     		.align	2
 2818              		.global	TIM_ARRPreloadConfig
 2819              		.thumb
 2820              		.thumb_func
 2822              	TIM_ARRPreloadConfig:
 2823              	.LFB62:
1401:../lib/STM32F10x_StdPeriph_Driver/src/stm32f10x_tim.c **** 
1402:../lib/STM32F10x_StdPeriph_Driver/src/stm32f10x_tim.c **** /**
1403:../lib/STM32F10x_StdPeriph_Driver/src/stm32f10x_tim.c ****   * @brief  Enables or disables TIMx peripheral Preload register on ARR.
1404:../lib/STM32F10x_StdPeriph_Driver/src/stm32f10x_tim.c ****   * @param  TIMx: where x can be  1 to 17 to select the TIM peripheral.
1405:../lib/STM32F10x_StdPeriph_Driver/src/stm32f10x_tim.c ****   * @param  NewState: new state of the TIMx peripheral Preload register
1406:../lib/STM32F10x_StdPeriph_Driver/src/stm32f10x_tim.c ****   *   This parameter can be: ENABLE or DISABLE.
1407:../lib/STM32F10x_StdPeriph_Driver/src/stm32f10x_tim.c ****   * @retval None
1408:../lib/STM32F10x_StdPeriph_Driver/src/stm32f10x_tim.c ****   */
1409:../lib/STM32F10x_StdPeriph_Driver/src/stm32f10x_tim.c **** void TIM_ARRPreloadConfig(TIM_TypeDef* TIMx, FunctionalState NewState)
1410:../lib/STM32F10x_StdPeriph_Driver/src/stm32f10x_tim.c **** {
 2824              		.loc 1 1410 0
 2825              		.cfi_startproc
 2826              		@ args = 0, pretend = 0, frame = 8
 2827              		@ frame_needed = 1, uses_anonymous_args = 0
 2828              		@ link register save eliminated.
 2829 0f98 80B4     		push	{r7}
 2830              	.LCFI99:
 2831              		.cfi_def_cfa_offset 4
 2832              		.cfi_offset 7, -4
 2833 0f9a 83B0     		sub	sp, sp, #12
 2834              	.LCFI100:
 2835              		.cfi_def_cfa_offset 16
 2836 0f9c 00AF     		add	r7, sp, #0
 2837              	.LCFI101:
 2838              		.cfi_def_cfa_register 7
 2839 0f9e 7860     		str	r0, [r7, #4]
 2840 0fa0 0B46     		mov	r3, r1
 2841 0fa2 FB70     		strb	r3, [r7, #3]
1411:../lib/STM32F10x_StdPeriph_Driver/src/stm32f10x_tim.c ****   /* Check the parameters */
1412:../lib/STM32F10x_StdPeriph_Driver/src/stm32f10x_tim.c ****   assert_param(IS_TIM_ALL_PERIPH(TIMx));
1413:../lib/STM32F10x_StdPeriph_Driver/src/stm32f10x_tim.c ****   assert_param(IS_FUNCTIONAL_STATE(NewState));
1414:../lib/STM32F10x_StdPeriph_Driver/src/stm32f10x_tim.c ****   if (NewState != DISABLE)
 2842              		.loc 1 1414 0
 2843 0fa4 FB78     		ldrb	r3, [r7, #3]	@ zero_extendqisi2
 2844 0fa6 002B     		cmp	r3, #0
 2845 0fa8 08D0     		beq	.L97
1415:../lib/STM32F10x_StdPeriph_Driver/src/stm32f10x_tim.c ****   {
1416:../lib/STM32F10x_StdPeriph_Driver/src/stm32f10x_tim.c ****     /* Set the ARR Preload Bit */
1417:../lib/STM32F10x_StdPeriph_Driver/src/stm32f10x_tim.c ****     TIMx->CR1 |= TIM_CR1_ARPE;
 2846              		.loc 1 1417 0
 2847 0faa 7B68     		ldr	r3, [r7, #4]
 2848 0fac 1B88     		ldrh	r3, [r3, #0]	@ movhi
 2849 0fae 9BB2     		uxth	r3, r3
 2850 0fb0 43F08003 		orr	r3, r3, #128
 2851 0fb4 9AB2     		uxth	r2, r3
 2852 0fb6 7B68     		ldr	r3, [r7, #4]
 2853 0fb8 1A80     		strh	r2, [r3, #0]	@ movhi
 2854 0fba 07E0     		b	.L96
 2855              	.L97:
1418:../lib/STM32F10x_StdPeriph_Driver/src/stm32f10x_tim.c ****   }
1419:../lib/STM32F10x_StdPeriph_Driver/src/stm32f10x_tim.c ****   else
1420:../lib/STM32F10x_StdPeriph_Driver/src/stm32f10x_tim.c ****   {
1421:../lib/STM32F10x_StdPeriph_Driver/src/stm32f10x_tim.c ****     /* Reset the ARR Preload Bit */
1422:../lib/STM32F10x_StdPeriph_Driver/src/stm32f10x_tim.c ****     TIMx->CR1 &= (uint16_t)~((uint16_t)TIM_CR1_ARPE);
 2856              		.loc 1 1422 0
 2857 0fbc 7B68     		ldr	r3, [r7, #4]
 2858 0fbe 1B88     		ldrh	r3, [r3, #0]	@ movhi
 2859 0fc0 9BB2     		uxth	r3, r3
 2860 0fc2 23F08003 		bic	r3, r3, #128
 2861 0fc6 9AB2     		uxth	r2, r3
 2862 0fc8 7B68     		ldr	r3, [r7, #4]
 2863 0fca 1A80     		strh	r2, [r3, #0]	@ movhi
 2864              	.L96:
1423:../lib/STM32F10x_StdPeriph_Driver/src/stm32f10x_tim.c ****   }
1424:../lib/STM32F10x_StdPeriph_Driver/src/stm32f10x_tim.c **** }
 2865              		.loc 1 1424 0
 2866 0fcc 07F10C07 		add	r7, r7, #12
 2867 0fd0 BD46     		mov	sp, r7
 2868 0fd2 80BC     		pop	{r7}
 2869 0fd4 7047     		bx	lr
 2870              		.cfi_endproc
 2871              	.LFE62:
 2873 0fd6 00BF     		.align	2
 2874              		.global	TIM_SelectCOM
 2875              		.thumb
 2876              		.thumb_func
 2878              	TIM_SelectCOM:
 2879              	.LFB63:
1425:../lib/STM32F10x_StdPeriph_Driver/src/stm32f10x_tim.c **** 
1426:../lib/STM32F10x_StdPeriph_Driver/src/stm32f10x_tim.c **** /**
1427:../lib/STM32F10x_StdPeriph_Driver/src/stm32f10x_tim.c ****   * @brief  Selects the TIM peripheral Commutation event.
1428:../lib/STM32F10x_StdPeriph_Driver/src/stm32f10x_tim.c ****   * @param  TIMx: where x can be  1, 8, 15, 16 or 17 to select the TIMx peripheral
1429:../lib/STM32F10x_StdPeriph_Driver/src/stm32f10x_tim.c ****   * @param  NewState: new state of the Commutation event.
1430:../lib/STM32F10x_StdPeriph_Driver/src/stm32f10x_tim.c ****   *   This parameter can be: ENABLE or DISABLE.
1431:../lib/STM32F10x_StdPeriph_Driver/src/stm32f10x_tim.c ****   * @retval None
1432:../lib/STM32F10x_StdPeriph_Driver/src/stm32f10x_tim.c ****   */
1433:../lib/STM32F10x_StdPeriph_Driver/src/stm32f10x_tim.c **** void TIM_SelectCOM(TIM_TypeDef* TIMx, FunctionalState NewState)
1434:../lib/STM32F10x_StdPeriph_Driver/src/stm32f10x_tim.c **** {
 2880              		.loc 1 1434 0
 2881              		.cfi_startproc
 2882              		@ args = 0, pretend = 0, frame = 8
 2883              		@ frame_needed = 1, uses_anonymous_args = 0
 2884              		@ link register save eliminated.
 2885 0fd8 80B4     		push	{r7}
 2886              	.LCFI102:
 2887              		.cfi_def_cfa_offset 4
 2888              		.cfi_offset 7, -4
 2889 0fda 83B0     		sub	sp, sp, #12
 2890              	.LCFI103:
 2891              		.cfi_def_cfa_offset 16
 2892 0fdc 00AF     		add	r7, sp, #0
 2893              	.LCFI104:
 2894              		.cfi_def_cfa_register 7
 2895 0fde 7860     		str	r0, [r7, #4]
 2896 0fe0 0B46     		mov	r3, r1
 2897 0fe2 FB70     		strb	r3, [r7, #3]
1435:../lib/STM32F10x_StdPeriph_Driver/src/stm32f10x_tim.c ****   /* Check the parameters */
1436:../lib/STM32F10x_StdPeriph_Driver/src/stm32f10x_tim.c ****   assert_param(IS_TIM_LIST2_PERIPH(TIMx));
1437:../lib/STM32F10x_StdPeriph_Driver/src/stm32f10x_tim.c ****   assert_param(IS_FUNCTIONAL_STATE(NewState));
1438:../lib/STM32F10x_StdPeriph_Driver/src/stm32f10x_tim.c ****   if (NewState != DISABLE)
 2898              		.loc 1 1438 0
 2899 0fe4 FB78     		ldrb	r3, [r7, #3]	@ zero_extendqisi2
 2900 0fe6 002B     		cmp	r3, #0
 2901 0fe8 08D0     		beq	.L100
1439:../lib/STM32F10x_StdPeriph_Driver/src/stm32f10x_tim.c ****   {
1440:../lib/STM32F10x_StdPeriph_Driver/src/stm32f10x_tim.c ****     /* Set the COM Bit */
1441:../lib/STM32F10x_StdPeriph_Driver/src/stm32f10x_tim.c ****     TIMx->CR2 |= TIM_CR2_CCUS;
 2902              		.loc 1 1441 0
 2903 0fea 7B68     		ldr	r3, [r7, #4]
 2904 0fec 9B88     		ldrh	r3, [r3, #4]	@ movhi
 2905 0fee 9BB2     		uxth	r3, r3
 2906 0ff0 43F00403 		orr	r3, r3, #4
 2907 0ff4 9AB2     		uxth	r2, r3
 2908 0ff6 7B68     		ldr	r3, [r7, #4]
 2909 0ff8 9A80     		strh	r2, [r3, #4]	@ movhi
 2910 0ffa 07E0     		b	.L99
 2911              	.L100:
1442:../lib/STM32F10x_StdPeriph_Driver/src/stm32f10x_tim.c ****   }
1443:../lib/STM32F10x_StdPeriph_Driver/src/stm32f10x_tim.c ****   else
1444:../lib/STM32F10x_StdPeriph_Driver/src/stm32f10x_tim.c ****   {
1445:../lib/STM32F10x_StdPeriph_Driver/src/stm32f10x_tim.c ****     /* Reset the COM Bit */
1446:../lib/STM32F10x_StdPeriph_Driver/src/stm32f10x_tim.c ****     TIMx->CR2 &= (uint16_t)~((uint16_t)TIM_CR2_CCUS);
 2912              		.loc 1 1446 0
 2913 0ffc 7B68     		ldr	r3, [r7, #4]
 2914 0ffe 9B88     		ldrh	r3, [r3, #4]	@ movhi
 2915 1000 9BB2     		uxth	r3, r3
 2916 1002 23F00403 		bic	r3, r3, #4
 2917 1006 9AB2     		uxth	r2, r3
 2918 1008 7B68     		ldr	r3, [r7, #4]
 2919 100a 9A80     		strh	r2, [r3, #4]	@ movhi
 2920              	.L99:
1447:../lib/STM32F10x_StdPeriph_Driver/src/stm32f10x_tim.c ****   }
1448:../lib/STM32F10x_StdPeriph_Driver/src/stm32f10x_tim.c **** }
 2921              		.loc 1 1448 0
 2922 100c 07F10C07 		add	r7, r7, #12
 2923 1010 BD46     		mov	sp, r7
 2924 1012 80BC     		pop	{r7}
 2925 1014 7047     		bx	lr
 2926              		.cfi_endproc
 2927              	.LFE63:
 2929 1016 00BF     		.align	2
 2930              		.global	TIM_SelectCCDMA
 2931              		.thumb
 2932              		.thumb_func
 2934              	TIM_SelectCCDMA:
 2935              	.LFB64:
1449:../lib/STM32F10x_StdPeriph_Driver/src/stm32f10x_tim.c **** 
1450:../lib/STM32F10x_StdPeriph_Driver/src/stm32f10x_tim.c **** /**
1451:../lib/STM32F10x_StdPeriph_Driver/src/stm32f10x_tim.c ****   * @brief  Selects the TIMx peripheral Capture Compare DMA source.
1452:../lib/STM32F10x_StdPeriph_Driver/src/stm32f10x_tim.c ****   * @param  TIMx: where x can be  1, 2, 3, 4, 5, 8, 15, 16 or 17 to select 
1453:../lib/STM32F10x_StdPeriph_Driver/src/stm32f10x_tim.c ****   *         the TIM peripheral.
1454:../lib/STM32F10x_StdPeriph_Driver/src/stm32f10x_tim.c ****   * @param  NewState: new state of the Capture Compare DMA source
1455:../lib/STM32F10x_StdPeriph_Driver/src/stm32f10x_tim.c ****   *   This parameter can be: ENABLE or DISABLE.
1456:../lib/STM32F10x_StdPeriph_Driver/src/stm32f10x_tim.c ****   * @retval None
1457:../lib/STM32F10x_StdPeriph_Driver/src/stm32f10x_tim.c ****   */
1458:../lib/STM32F10x_StdPeriph_Driver/src/stm32f10x_tim.c **** void TIM_SelectCCDMA(TIM_TypeDef* TIMx, FunctionalState NewState)
1459:../lib/STM32F10x_StdPeriph_Driver/src/stm32f10x_tim.c **** {
 2936              		.loc 1 1459 0
 2937              		.cfi_startproc
 2938              		@ args = 0, pretend = 0, frame = 8
 2939              		@ frame_needed = 1, uses_anonymous_args = 0
 2940              		@ link register save eliminated.
 2941 1018 80B4     		push	{r7}
 2942              	.LCFI105:
 2943              		.cfi_def_cfa_offset 4
 2944              		.cfi_offset 7, -4
 2945 101a 83B0     		sub	sp, sp, #12
 2946              	.LCFI106:
 2947              		.cfi_def_cfa_offset 16
 2948 101c 00AF     		add	r7, sp, #0
 2949              	.LCFI107:
 2950              		.cfi_def_cfa_register 7
 2951 101e 7860     		str	r0, [r7, #4]
 2952 1020 0B46     		mov	r3, r1
 2953 1022 FB70     		strb	r3, [r7, #3]
1460:../lib/STM32F10x_StdPeriph_Driver/src/stm32f10x_tim.c ****   /* Check the parameters */
1461:../lib/STM32F10x_StdPeriph_Driver/src/stm32f10x_tim.c ****   assert_param(IS_TIM_LIST4_PERIPH(TIMx));
1462:../lib/STM32F10x_StdPeriph_Driver/src/stm32f10x_tim.c ****   assert_param(IS_FUNCTIONAL_STATE(NewState));
1463:../lib/STM32F10x_StdPeriph_Driver/src/stm32f10x_tim.c ****   if (NewState != DISABLE)
 2954              		.loc 1 1463 0
 2955 1024 FB78     		ldrb	r3, [r7, #3]	@ zero_extendqisi2
 2956 1026 002B     		cmp	r3, #0
 2957 1028 08D0     		beq	.L103
1464:../lib/STM32F10x_StdPeriph_Driver/src/stm32f10x_tim.c ****   {
1465:../lib/STM32F10x_StdPeriph_Driver/src/stm32f10x_tim.c ****     /* Set the CCDS Bit */
1466:../lib/STM32F10x_StdPeriph_Driver/src/stm32f10x_tim.c ****     TIMx->CR2 |= TIM_CR2_CCDS;
 2958              		.loc 1 1466 0
 2959 102a 7B68     		ldr	r3, [r7, #4]
 2960 102c 9B88     		ldrh	r3, [r3, #4]	@ movhi
 2961 102e 9BB2     		uxth	r3, r3
 2962 1030 43F00803 		orr	r3, r3, #8
 2963 1034 9AB2     		uxth	r2, r3
 2964 1036 7B68     		ldr	r3, [r7, #4]
 2965 1038 9A80     		strh	r2, [r3, #4]	@ movhi
 2966 103a 07E0     		b	.L102
 2967              	.L103:
1467:../lib/STM32F10x_StdPeriph_Driver/src/stm32f10x_tim.c ****   }
1468:../lib/STM32F10x_StdPeriph_Driver/src/stm32f10x_tim.c ****   else
1469:../lib/STM32F10x_StdPeriph_Driver/src/stm32f10x_tim.c ****   {
1470:../lib/STM32F10x_StdPeriph_Driver/src/stm32f10x_tim.c ****     /* Reset the CCDS Bit */
1471:../lib/STM32F10x_StdPeriph_Driver/src/stm32f10x_tim.c ****     TIMx->CR2 &= (uint16_t)~((uint16_t)TIM_CR2_CCDS);
 2968              		.loc 1 1471 0
 2969 103c 7B68     		ldr	r3, [r7, #4]
 2970 103e 9B88     		ldrh	r3, [r3, #4]	@ movhi
 2971 1040 9BB2     		uxth	r3, r3
 2972 1042 23F00803 		bic	r3, r3, #8
 2973 1046 9AB2     		uxth	r2, r3
 2974 1048 7B68     		ldr	r3, [r7, #4]
 2975 104a 9A80     		strh	r2, [r3, #4]	@ movhi
 2976              	.L102:
1472:../lib/STM32F10x_StdPeriph_Driver/src/stm32f10x_tim.c ****   }
1473:../lib/STM32F10x_StdPeriph_Driver/src/stm32f10x_tim.c **** }
 2977              		.loc 1 1473 0
 2978 104c 07F10C07 		add	r7, r7, #12
 2979 1050 BD46     		mov	sp, r7
 2980 1052 80BC     		pop	{r7}
 2981 1054 7047     		bx	lr
 2982              		.cfi_endproc
 2983              	.LFE64:
 2985 1056 00BF     		.align	2
 2986              		.global	TIM_CCPreloadControl
 2987              		.thumb
 2988              		.thumb_func
 2990              	TIM_CCPreloadControl:
 2991              	.LFB65:
1474:../lib/STM32F10x_StdPeriph_Driver/src/stm32f10x_tim.c **** 
1475:../lib/STM32F10x_StdPeriph_Driver/src/stm32f10x_tim.c **** /**
1476:../lib/STM32F10x_StdPeriph_Driver/src/stm32f10x_tim.c ****   * @brief  Sets or Resets the TIM peripheral Capture Compare Preload Control bit.
1477:../lib/STM32F10x_StdPeriph_Driver/src/stm32f10x_tim.c ****   * @param  TIMx: where x can be   1, 2, 3, 4, 5, 8 or 15 
1478:../lib/STM32F10x_StdPeriph_Driver/src/stm32f10x_tim.c ****   *         to select the TIMx peripheral
1479:../lib/STM32F10x_StdPeriph_Driver/src/stm32f10x_tim.c ****   * @param  NewState: new state of the Capture Compare Preload Control bit
1480:../lib/STM32F10x_StdPeriph_Driver/src/stm32f10x_tim.c ****   *   This parameter can be: ENABLE or DISABLE.
1481:../lib/STM32F10x_StdPeriph_Driver/src/stm32f10x_tim.c ****   * @retval None
1482:../lib/STM32F10x_StdPeriph_Driver/src/stm32f10x_tim.c ****   */
1483:../lib/STM32F10x_StdPeriph_Driver/src/stm32f10x_tim.c **** void TIM_CCPreloadControl(TIM_TypeDef* TIMx, FunctionalState NewState)
1484:../lib/STM32F10x_StdPeriph_Driver/src/stm32f10x_tim.c **** { 
 2992              		.loc 1 1484 0
 2993              		.cfi_startproc
 2994              		@ args = 0, pretend = 0, frame = 8
 2995              		@ frame_needed = 1, uses_anonymous_args = 0
 2996              		@ link register save eliminated.
 2997 1058 80B4     		push	{r7}
 2998              	.LCFI108:
 2999              		.cfi_def_cfa_offset 4
 3000              		.cfi_offset 7, -4
 3001 105a 83B0     		sub	sp, sp, #12
 3002              	.LCFI109:
 3003              		.cfi_def_cfa_offset 16
 3004 105c 00AF     		add	r7, sp, #0
 3005              	.LCFI110:
 3006              		.cfi_def_cfa_register 7
 3007 105e 7860     		str	r0, [r7, #4]
 3008 1060 0B46     		mov	r3, r1
 3009 1062 FB70     		strb	r3, [r7, #3]
1485:../lib/STM32F10x_StdPeriph_Driver/src/stm32f10x_tim.c ****   /* Check the parameters */
1486:../lib/STM32F10x_StdPeriph_Driver/src/stm32f10x_tim.c ****   assert_param(IS_TIM_LIST5_PERIPH(TIMx));
1487:../lib/STM32F10x_StdPeriph_Driver/src/stm32f10x_tim.c ****   assert_param(IS_FUNCTIONAL_STATE(NewState));
1488:../lib/STM32F10x_StdPeriph_Driver/src/stm32f10x_tim.c ****   if (NewState != DISABLE)
 3010              		.loc 1 1488 0
 3011 1064 FB78     		ldrb	r3, [r7, #3]	@ zero_extendqisi2
 3012 1066 002B     		cmp	r3, #0
 3013 1068 08D0     		beq	.L106
1489:../lib/STM32F10x_StdPeriph_Driver/src/stm32f10x_tim.c ****   {
1490:../lib/STM32F10x_StdPeriph_Driver/src/stm32f10x_tim.c ****     /* Set the CCPC Bit */
1491:../lib/STM32F10x_StdPeriph_Driver/src/stm32f10x_tim.c ****     TIMx->CR2 |= TIM_CR2_CCPC;
 3014              		.loc 1 1491 0
 3015 106a 7B68     		ldr	r3, [r7, #4]
 3016 106c 9B88     		ldrh	r3, [r3, #4]	@ movhi
 3017 106e 9BB2     		uxth	r3, r3
 3018 1070 43F00103 		orr	r3, r3, #1
 3019 1074 9AB2     		uxth	r2, r3
 3020 1076 7B68     		ldr	r3, [r7, #4]
 3021 1078 9A80     		strh	r2, [r3, #4]	@ movhi
 3022 107a 07E0     		b	.L105
 3023              	.L106:
1492:../lib/STM32F10x_StdPeriph_Driver/src/stm32f10x_tim.c ****   }
1493:../lib/STM32F10x_StdPeriph_Driver/src/stm32f10x_tim.c ****   else
1494:../lib/STM32F10x_StdPeriph_Driver/src/stm32f10x_tim.c ****   {
1495:../lib/STM32F10x_StdPeriph_Driver/src/stm32f10x_tim.c ****     /* Reset the CCPC Bit */
1496:../lib/STM32F10x_StdPeriph_Driver/src/stm32f10x_tim.c ****     TIMx->CR2 &= (uint16_t)~((uint16_t)TIM_CR2_CCPC);
 3024              		.loc 1 1496 0
 3025 107c 7B68     		ldr	r3, [r7, #4]
 3026 107e 9B88     		ldrh	r3, [r3, #4]	@ movhi
 3027 1080 9BB2     		uxth	r3, r3
 3028 1082 23F00103 		bic	r3, r3, #1
 3029 1086 9AB2     		uxth	r2, r3
 3030 1088 7B68     		ldr	r3, [r7, #4]
 3031 108a 9A80     		strh	r2, [r3, #4]	@ movhi
 3032              	.L105:
1497:../lib/STM32F10x_StdPeriph_Driver/src/stm32f10x_tim.c ****   }
1498:../lib/STM32F10x_StdPeriph_Driver/src/stm32f10x_tim.c **** }
 3033              		.loc 1 1498 0
 3034 108c 07F10C07 		add	r7, r7, #12
 3035 1090 BD46     		mov	sp, r7
 3036 1092 80BC     		pop	{r7}
 3037 1094 7047     		bx	lr
 3038              		.cfi_endproc
 3039              	.LFE65:
 3041 1096 00BF     		.align	2
 3042              		.global	TIM_OC1PreloadConfig
 3043              		.thumb
 3044              		.thumb_func
 3046              	TIM_OC1PreloadConfig:
 3047              	.LFB66:
1499:../lib/STM32F10x_StdPeriph_Driver/src/stm32f10x_tim.c **** 
1500:../lib/STM32F10x_StdPeriph_Driver/src/stm32f10x_tim.c **** /**
1501:../lib/STM32F10x_StdPeriph_Driver/src/stm32f10x_tim.c ****   * @brief  Enables or disables the TIMx peripheral Preload register on CCR1.
1502:../lib/STM32F10x_StdPeriph_Driver/src/stm32f10x_tim.c ****   * @param  TIMx: where x can be  1 to 17 except 6 and 7 to select the TIM peripheral.
1503:../lib/STM32F10x_StdPeriph_Driver/src/stm32f10x_tim.c ****   * @param  TIM_OCPreload: new state of the TIMx peripheral Preload register
1504:../lib/STM32F10x_StdPeriph_Driver/src/stm32f10x_tim.c ****   *   This parameter can be one of the following values:
1505:../lib/STM32F10x_StdPeriph_Driver/src/stm32f10x_tim.c ****   *     @arg TIM_OCPreload_Enable
1506:../lib/STM32F10x_StdPeriph_Driver/src/stm32f10x_tim.c ****   *     @arg TIM_OCPreload_Disable
1507:../lib/STM32F10x_StdPeriph_Driver/src/stm32f10x_tim.c ****   * @retval None
1508:../lib/STM32F10x_StdPeriph_Driver/src/stm32f10x_tim.c ****   */
1509:../lib/STM32F10x_StdPeriph_Driver/src/stm32f10x_tim.c **** void TIM_OC1PreloadConfig(TIM_TypeDef* TIMx, uint16_t TIM_OCPreload)
1510:../lib/STM32F10x_StdPeriph_Driver/src/stm32f10x_tim.c **** {
 3048              		.loc 1 1510 0
 3049              		.cfi_startproc
 3050              		@ args = 0, pretend = 0, frame = 16
 3051              		@ frame_needed = 1, uses_anonymous_args = 0
 3052              		@ link register save eliminated.
 3053 1098 80B4     		push	{r7}
 3054              	.LCFI111:
 3055              		.cfi_def_cfa_offset 4
 3056              		.cfi_offset 7, -4
 3057 109a 85B0     		sub	sp, sp, #20
 3058              	.LCFI112:
 3059              		.cfi_def_cfa_offset 24
 3060 109c 00AF     		add	r7, sp, #0
 3061              	.LCFI113:
 3062              		.cfi_def_cfa_register 7
 3063 109e 7860     		str	r0, [r7, #4]
 3064 10a0 0B46     		mov	r3, r1
 3065 10a2 7B80     		strh	r3, [r7, #2]	@ movhi
1511:../lib/STM32F10x_StdPeriph_Driver/src/stm32f10x_tim.c ****   uint16_t tmpccmr1 = 0;
 3066              		.loc 1 1511 0
 3067 10a4 4FF00003 		mov	r3, #0
 3068 10a8 FB81     		strh	r3, [r7, #14]	@ movhi
1512:../lib/STM32F10x_StdPeriph_Driver/src/stm32f10x_tim.c ****   /* Check the parameters */
1513:../lib/STM32F10x_StdPeriph_Driver/src/stm32f10x_tim.c ****   assert_param(IS_TIM_LIST8_PERIPH(TIMx));
1514:../lib/STM32F10x_StdPeriph_Driver/src/stm32f10x_tim.c ****   assert_param(IS_TIM_OCPRELOAD_STATE(TIM_OCPreload));
1515:../lib/STM32F10x_StdPeriph_Driver/src/stm32f10x_tim.c ****   tmpccmr1 = TIMx->CCMR1;
 3069              		.loc 1 1515 0
 3070 10aa 7B68     		ldr	r3, [r7, #4]
 3071 10ac 1B8B     		ldrh	r3, [r3, #24]	@ movhi
 3072 10ae FB81     		strh	r3, [r7, #14]	@ movhi
1516:../lib/STM32F10x_StdPeriph_Driver/src/stm32f10x_tim.c ****   /* Reset the OC1PE Bit */
1517:../lib/STM32F10x_StdPeriph_Driver/src/stm32f10x_tim.c ****   tmpccmr1 &= (uint16_t)~((uint16_t)TIM_CCMR1_OC1PE);
 3073              		.loc 1 1517 0
 3074 10b0 FB89     		ldrh	r3, [r7, #14]	@ movhi
 3075 10b2 23F00803 		bic	r3, r3, #8
 3076 10b6 FB81     		strh	r3, [r7, #14]	@ movhi
1518:../lib/STM32F10x_StdPeriph_Driver/src/stm32f10x_tim.c ****   /* Enable or Disable the Output Compare Preload feature */
1519:../lib/STM32F10x_StdPeriph_Driver/src/stm32f10x_tim.c ****   tmpccmr1 |= TIM_OCPreload;
 3077              		.loc 1 1519 0
 3078 10b8 FA89     		ldrh	r2, [r7, #14]	@ movhi
 3079 10ba 7B88     		ldrh	r3, [r7, #2]	@ movhi
 3080 10bc 1343     		orrs	r3, r3, r2
 3081 10be FB81     		strh	r3, [r7, #14]	@ movhi
1520:../lib/STM32F10x_StdPeriph_Driver/src/stm32f10x_tim.c ****   /* Write to TIMx CCMR1 register */
1521:../lib/STM32F10x_StdPeriph_Driver/src/stm32f10x_tim.c ****   TIMx->CCMR1 = tmpccmr1;
 3082              		.loc 1 1521 0
 3083 10c0 7B68     		ldr	r3, [r7, #4]
 3084 10c2 FA89     		ldrh	r2, [r7, #14]	@ movhi
 3085 10c4 1A83     		strh	r2, [r3, #24]	@ movhi
1522:../lib/STM32F10x_StdPeriph_Driver/src/stm32f10x_tim.c **** }
 3086              		.loc 1 1522 0
 3087 10c6 07F11407 		add	r7, r7, #20
 3088 10ca BD46     		mov	sp, r7
 3089 10cc 80BC     		pop	{r7}
 3090 10ce 7047     		bx	lr
 3091              		.cfi_endproc
 3092              	.LFE66:
 3094              		.align	2
 3095              		.global	TIM_OC2PreloadConfig
 3096              		.thumb
 3097              		.thumb_func
 3099              	TIM_OC2PreloadConfig:
 3100              	.LFB67:
1523:../lib/STM32F10x_StdPeriph_Driver/src/stm32f10x_tim.c **** 
1524:../lib/STM32F10x_StdPeriph_Driver/src/stm32f10x_tim.c **** /**
1525:../lib/STM32F10x_StdPeriph_Driver/src/stm32f10x_tim.c ****   * @brief  Enables or disables the TIMx peripheral Preload register on CCR2.
1526:../lib/STM32F10x_StdPeriph_Driver/src/stm32f10x_tim.c ****   * @param  TIMx: where x can be  1, 2, 3, 4, 5, 8, 9, 12 or 15 to select 
1527:../lib/STM32F10x_StdPeriph_Driver/src/stm32f10x_tim.c ****   *         the TIM peripheral.
1528:../lib/STM32F10x_StdPeriph_Driver/src/stm32f10x_tim.c ****   * @param  TIM_OCPreload: new state of the TIMx peripheral Preload register
1529:../lib/STM32F10x_StdPeriph_Driver/src/stm32f10x_tim.c ****   *   This parameter can be one of the following values:
1530:../lib/STM32F10x_StdPeriph_Driver/src/stm32f10x_tim.c ****   *     @arg TIM_OCPreload_Enable
1531:../lib/STM32F10x_StdPeriph_Driver/src/stm32f10x_tim.c ****   *     @arg TIM_OCPreload_Disable
1532:../lib/STM32F10x_StdPeriph_Driver/src/stm32f10x_tim.c ****   * @retval None
1533:../lib/STM32F10x_StdPeriph_Driver/src/stm32f10x_tim.c ****   */
1534:../lib/STM32F10x_StdPeriph_Driver/src/stm32f10x_tim.c **** void TIM_OC2PreloadConfig(TIM_TypeDef* TIMx, uint16_t TIM_OCPreload)
1535:../lib/STM32F10x_StdPeriph_Driver/src/stm32f10x_tim.c **** {
 3101              		.loc 1 1535 0
 3102              		.cfi_startproc
 3103              		@ args = 0, pretend = 0, frame = 16
 3104              		@ frame_needed = 1, uses_anonymous_args = 0
 3105              		@ link register save eliminated.
 3106 10d0 80B4     		push	{r7}
 3107              	.LCFI114:
 3108              		.cfi_def_cfa_offset 4
 3109              		.cfi_offset 7, -4
 3110 10d2 85B0     		sub	sp, sp, #20
 3111              	.LCFI115:
 3112              		.cfi_def_cfa_offset 24
 3113 10d4 00AF     		add	r7, sp, #0
 3114              	.LCFI116:
 3115              		.cfi_def_cfa_register 7
 3116 10d6 7860     		str	r0, [r7, #4]
 3117 10d8 0B46     		mov	r3, r1
 3118 10da 7B80     		strh	r3, [r7, #2]	@ movhi
1536:../lib/STM32F10x_StdPeriph_Driver/src/stm32f10x_tim.c ****   uint16_t tmpccmr1 = 0;
 3119              		.loc 1 1536 0
 3120 10dc 4FF00003 		mov	r3, #0
 3121 10e0 FB81     		strh	r3, [r7, #14]	@ movhi
1537:../lib/STM32F10x_StdPeriph_Driver/src/stm32f10x_tim.c ****   /* Check the parameters */
1538:../lib/STM32F10x_StdPeriph_Driver/src/stm32f10x_tim.c ****   assert_param(IS_TIM_LIST6_PERIPH(TIMx));
1539:../lib/STM32F10x_StdPeriph_Driver/src/stm32f10x_tim.c ****   assert_param(IS_TIM_OCPRELOAD_STATE(TIM_OCPreload));
1540:../lib/STM32F10x_StdPeriph_Driver/src/stm32f10x_tim.c ****   tmpccmr1 = TIMx->CCMR1;
 3122              		.loc 1 1540 0
 3123 10e2 7B68     		ldr	r3, [r7, #4]
 3124 10e4 1B8B     		ldrh	r3, [r3, #24]	@ movhi
 3125 10e6 FB81     		strh	r3, [r7, #14]	@ movhi
1541:../lib/STM32F10x_StdPeriph_Driver/src/stm32f10x_tim.c ****   /* Reset the OC2PE Bit */
1542:../lib/STM32F10x_StdPeriph_Driver/src/stm32f10x_tim.c ****   tmpccmr1 &= (uint16_t)~((uint16_t)TIM_CCMR1_OC2PE);
 3126              		.loc 1 1542 0
 3127 10e8 FB89     		ldrh	r3, [r7, #14]	@ movhi
 3128 10ea 23F40063 		bic	r3, r3, #2048
 3129 10ee FB81     		strh	r3, [r7, #14]	@ movhi
1543:../lib/STM32F10x_StdPeriph_Driver/src/stm32f10x_tim.c ****   /* Enable or Disable the Output Compare Preload feature */
1544:../lib/STM32F10x_StdPeriph_Driver/src/stm32f10x_tim.c ****   tmpccmr1 |= (uint16_t)(TIM_OCPreload << 8);
 3130              		.loc 1 1544 0
 3131 10f0 7B88     		ldrh	r3, [r7, #2]	@ movhi
 3132 10f2 4FEA0323 		lsl	r3, r3, #8
 3133 10f6 9AB2     		uxth	r2, r3
 3134 10f8 FB89     		ldrh	r3, [r7, #14]	@ movhi
 3135 10fa 1343     		orrs	r3, r3, r2
 3136 10fc FB81     		strh	r3, [r7, #14]	@ movhi
1545:../lib/STM32F10x_StdPeriph_Driver/src/stm32f10x_tim.c ****   /* Write to TIMx CCMR1 register */
1546:../lib/STM32F10x_StdPeriph_Driver/src/stm32f10x_tim.c ****   TIMx->CCMR1 = tmpccmr1;
 3137              		.loc 1 1546 0
 3138 10fe 7B68     		ldr	r3, [r7, #4]
 3139 1100 FA89     		ldrh	r2, [r7, #14]	@ movhi
 3140 1102 1A83     		strh	r2, [r3, #24]	@ movhi
1547:../lib/STM32F10x_StdPeriph_Driver/src/stm32f10x_tim.c **** }
 3141              		.loc 1 1547 0
 3142 1104 07F11407 		add	r7, r7, #20
 3143 1108 BD46     		mov	sp, r7
 3144 110a 80BC     		pop	{r7}
 3145 110c 7047     		bx	lr
 3146              		.cfi_endproc
 3147              	.LFE67:
 3149 110e 00BF     		.align	2
 3150              		.global	TIM_OC3PreloadConfig
 3151              		.thumb
 3152              		.thumb_func
 3154              	TIM_OC3PreloadConfig:
 3155              	.LFB68:
1548:../lib/STM32F10x_StdPeriph_Driver/src/stm32f10x_tim.c **** 
1549:../lib/STM32F10x_StdPeriph_Driver/src/stm32f10x_tim.c **** /**
1550:../lib/STM32F10x_StdPeriph_Driver/src/stm32f10x_tim.c ****   * @brief  Enables or disables the TIMx peripheral Preload register on CCR3.
1551:../lib/STM32F10x_StdPeriph_Driver/src/stm32f10x_tim.c ****   * @param  TIMx: where x can be  1, 2, 3, 4, 5 or 8 to select the TIM peripheral.
1552:../lib/STM32F10x_StdPeriph_Driver/src/stm32f10x_tim.c ****   * @param  TIM_OCPreload: new state of the TIMx peripheral Preload register
1553:../lib/STM32F10x_StdPeriph_Driver/src/stm32f10x_tim.c ****   *   This parameter can be one of the following values:
1554:../lib/STM32F10x_StdPeriph_Driver/src/stm32f10x_tim.c ****   *     @arg TIM_OCPreload_Enable
1555:../lib/STM32F10x_StdPeriph_Driver/src/stm32f10x_tim.c ****   *     @arg TIM_OCPreload_Disable
1556:../lib/STM32F10x_StdPeriph_Driver/src/stm32f10x_tim.c ****   * @retval None
1557:../lib/STM32F10x_StdPeriph_Driver/src/stm32f10x_tim.c ****   */
1558:../lib/STM32F10x_StdPeriph_Driver/src/stm32f10x_tim.c **** void TIM_OC3PreloadConfig(TIM_TypeDef* TIMx, uint16_t TIM_OCPreload)
1559:../lib/STM32F10x_StdPeriph_Driver/src/stm32f10x_tim.c **** {
 3156              		.loc 1 1559 0
 3157              		.cfi_startproc
 3158              		@ args = 0, pretend = 0, frame = 16
 3159              		@ frame_needed = 1, uses_anonymous_args = 0
 3160              		@ link register save eliminated.
 3161 1110 80B4     		push	{r7}
 3162              	.LCFI117:
 3163              		.cfi_def_cfa_offset 4
 3164              		.cfi_offset 7, -4
 3165 1112 85B0     		sub	sp, sp, #20
 3166              	.LCFI118:
 3167              		.cfi_def_cfa_offset 24
 3168 1114 00AF     		add	r7, sp, #0
 3169              	.LCFI119:
 3170              		.cfi_def_cfa_register 7
 3171 1116 7860     		str	r0, [r7, #4]
 3172 1118 0B46     		mov	r3, r1
 3173 111a 7B80     		strh	r3, [r7, #2]	@ movhi
1560:../lib/STM32F10x_StdPeriph_Driver/src/stm32f10x_tim.c ****   uint16_t tmpccmr2 = 0;
 3174              		.loc 1 1560 0
 3175 111c 4FF00003 		mov	r3, #0
 3176 1120 FB81     		strh	r3, [r7, #14]	@ movhi
1561:../lib/STM32F10x_StdPeriph_Driver/src/stm32f10x_tim.c ****   /* Check the parameters */
1562:../lib/STM32F10x_StdPeriph_Driver/src/stm32f10x_tim.c ****   assert_param(IS_TIM_LIST3_PERIPH(TIMx));
1563:../lib/STM32F10x_StdPeriph_Driver/src/stm32f10x_tim.c ****   assert_param(IS_TIM_OCPRELOAD_STATE(TIM_OCPreload));
1564:../lib/STM32F10x_StdPeriph_Driver/src/stm32f10x_tim.c ****   tmpccmr2 = TIMx->CCMR2;
 3177              		.loc 1 1564 0
 3178 1122 7B68     		ldr	r3, [r7, #4]
 3179 1124 9B8B     		ldrh	r3, [r3, #28]	@ movhi
 3180 1126 FB81     		strh	r3, [r7, #14]	@ movhi
1565:../lib/STM32F10x_StdPeriph_Driver/src/stm32f10x_tim.c ****   /* Reset the OC3PE Bit */
1566:../lib/STM32F10x_StdPeriph_Driver/src/stm32f10x_tim.c ****   tmpccmr2 &= (uint16_t)~((uint16_t)TIM_CCMR2_OC3PE);
 3181              		.loc 1 1566 0
 3182 1128 FB89     		ldrh	r3, [r7, #14]	@ movhi
 3183 112a 23F00803 		bic	r3, r3, #8
 3184 112e FB81     		strh	r3, [r7, #14]	@ movhi
1567:../lib/STM32F10x_StdPeriph_Driver/src/stm32f10x_tim.c ****   /* Enable or Disable the Output Compare Preload feature */
1568:../lib/STM32F10x_StdPeriph_Driver/src/stm32f10x_tim.c ****   tmpccmr2 |= TIM_OCPreload;
 3185              		.loc 1 1568 0
 3186 1130 FA89     		ldrh	r2, [r7, #14]	@ movhi
 3187 1132 7B88     		ldrh	r3, [r7, #2]	@ movhi
 3188 1134 1343     		orrs	r3, r3, r2
 3189 1136 FB81     		strh	r3, [r7, #14]	@ movhi
1569:../lib/STM32F10x_StdPeriph_Driver/src/stm32f10x_tim.c ****   /* Write to TIMx CCMR2 register */
1570:../lib/STM32F10x_StdPeriph_Driver/src/stm32f10x_tim.c ****   TIMx->CCMR2 = tmpccmr2;
 3190              		.loc 1 1570 0
 3191 1138 7B68     		ldr	r3, [r7, #4]
 3192 113a FA89     		ldrh	r2, [r7, #14]	@ movhi
 3193 113c 9A83     		strh	r2, [r3, #28]	@ movhi
1571:../lib/STM32F10x_StdPeriph_Driver/src/stm32f10x_tim.c **** }
 3194              		.loc 1 1571 0
 3195 113e 07F11407 		add	r7, r7, #20
 3196 1142 BD46     		mov	sp, r7
 3197 1144 80BC     		pop	{r7}
 3198 1146 7047     		bx	lr
 3199              		.cfi_endproc
 3200              	.LFE68:
 3202              		.align	2
 3203              		.global	TIM_OC4PreloadConfig
 3204              		.thumb
 3205              		.thumb_func
 3207              	TIM_OC4PreloadConfig:
 3208              	.LFB69:
1572:../lib/STM32F10x_StdPeriph_Driver/src/stm32f10x_tim.c **** 
1573:../lib/STM32F10x_StdPeriph_Driver/src/stm32f10x_tim.c **** /**
1574:../lib/STM32F10x_StdPeriph_Driver/src/stm32f10x_tim.c ****   * @brief  Enables or disables the TIMx peripheral Preload register on CCR4.
1575:../lib/STM32F10x_StdPeriph_Driver/src/stm32f10x_tim.c ****   * @param  TIMx: where x can be  1, 2, 3, 4, 5 or 8 to select the TIM peripheral.
1576:../lib/STM32F10x_StdPeriph_Driver/src/stm32f10x_tim.c ****   * @param  TIM_OCPreload: new state of the TIMx peripheral Preload register
1577:../lib/STM32F10x_StdPeriph_Driver/src/stm32f10x_tim.c ****   *   This parameter can be one of the following values:
1578:../lib/STM32F10x_StdPeriph_Driver/src/stm32f10x_tim.c ****   *     @arg TIM_OCPreload_Enable
1579:../lib/STM32F10x_StdPeriph_Driver/src/stm32f10x_tim.c ****   *     @arg TIM_OCPreload_Disable
1580:../lib/STM32F10x_StdPeriph_Driver/src/stm32f10x_tim.c ****   * @retval None
1581:../lib/STM32F10x_StdPeriph_Driver/src/stm32f10x_tim.c ****   */
1582:../lib/STM32F10x_StdPeriph_Driver/src/stm32f10x_tim.c **** void TIM_OC4PreloadConfig(TIM_TypeDef* TIMx, uint16_t TIM_OCPreload)
1583:../lib/STM32F10x_StdPeriph_Driver/src/stm32f10x_tim.c **** {
 3209              		.loc 1 1583 0
 3210              		.cfi_startproc
 3211              		@ args = 0, pretend = 0, frame = 16
 3212              		@ frame_needed = 1, uses_anonymous_args = 0
 3213              		@ link register save eliminated.
 3214 1148 80B4     		push	{r7}
 3215              	.LCFI120:
 3216              		.cfi_def_cfa_offset 4
 3217              		.cfi_offset 7, -4
 3218 114a 85B0     		sub	sp, sp, #20
 3219              	.LCFI121:
 3220              		.cfi_def_cfa_offset 24
 3221 114c 00AF     		add	r7, sp, #0
 3222              	.LCFI122:
 3223              		.cfi_def_cfa_register 7
 3224 114e 7860     		str	r0, [r7, #4]
 3225 1150 0B46     		mov	r3, r1
 3226 1152 7B80     		strh	r3, [r7, #2]	@ movhi
1584:../lib/STM32F10x_StdPeriph_Driver/src/stm32f10x_tim.c ****   uint16_t tmpccmr2 = 0;
 3227              		.loc 1 1584 0
 3228 1154 4FF00003 		mov	r3, #0
 3229 1158 FB81     		strh	r3, [r7, #14]	@ movhi
1585:../lib/STM32F10x_StdPeriph_Driver/src/stm32f10x_tim.c ****   /* Check the parameters */
1586:../lib/STM32F10x_StdPeriph_Driver/src/stm32f10x_tim.c ****   assert_param(IS_TIM_LIST3_PERIPH(TIMx));
1587:../lib/STM32F10x_StdPeriph_Driver/src/stm32f10x_tim.c ****   assert_param(IS_TIM_OCPRELOAD_STATE(TIM_OCPreload));
1588:../lib/STM32F10x_StdPeriph_Driver/src/stm32f10x_tim.c ****   tmpccmr2 = TIMx->CCMR2;
 3230              		.loc 1 1588 0
 3231 115a 7B68     		ldr	r3, [r7, #4]
 3232 115c 9B8B     		ldrh	r3, [r3, #28]	@ movhi
 3233 115e FB81     		strh	r3, [r7, #14]	@ movhi
1589:../lib/STM32F10x_StdPeriph_Driver/src/stm32f10x_tim.c ****   /* Reset the OC4PE Bit */
1590:../lib/STM32F10x_StdPeriph_Driver/src/stm32f10x_tim.c ****   tmpccmr2 &= (uint16_t)~((uint16_t)TIM_CCMR2_OC4PE);
 3234              		.loc 1 1590 0
 3235 1160 FB89     		ldrh	r3, [r7, #14]	@ movhi
 3236 1162 23F40063 		bic	r3, r3, #2048
 3237 1166 FB81     		strh	r3, [r7, #14]	@ movhi
1591:../lib/STM32F10x_StdPeriph_Driver/src/stm32f10x_tim.c ****   /* Enable or Disable the Output Compare Preload feature */
1592:../lib/STM32F10x_StdPeriph_Driver/src/stm32f10x_tim.c ****   tmpccmr2 |= (uint16_t)(TIM_OCPreload << 8);
 3238              		.loc 1 1592 0
 3239 1168 7B88     		ldrh	r3, [r7, #2]	@ movhi
 3240 116a 4FEA0323 		lsl	r3, r3, #8
 3241 116e 9AB2     		uxth	r2, r3
 3242 1170 FB89     		ldrh	r3, [r7, #14]	@ movhi
 3243 1172 1343     		orrs	r3, r3, r2
 3244 1174 FB81     		strh	r3, [r7, #14]	@ movhi
1593:../lib/STM32F10x_StdPeriph_Driver/src/stm32f10x_tim.c ****   /* Write to TIMx CCMR2 register */
1594:../lib/STM32F10x_StdPeriph_Driver/src/stm32f10x_tim.c ****   TIMx->CCMR2 = tmpccmr2;
 3245              		.loc 1 1594 0
 3246 1176 7B68     		ldr	r3, [r7, #4]
 3247 1178 FA89     		ldrh	r2, [r7, #14]	@ movhi
 3248 117a 9A83     		strh	r2, [r3, #28]	@ movhi
1595:../lib/STM32F10x_StdPeriph_Driver/src/stm32f10x_tim.c **** }
 3249              		.loc 1 1595 0
 3250 117c 07F11407 		add	r7, r7, #20
 3251 1180 BD46     		mov	sp, r7
 3252 1182 80BC     		pop	{r7}
 3253 1184 7047     		bx	lr
 3254              		.cfi_endproc
 3255              	.LFE69:
 3257 1186 00BF     		.align	2
 3258              		.global	TIM_OC1FastConfig
 3259              		.thumb
 3260              		.thumb_func
 3262              	TIM_OC1FastConfig:
 3263              	.LFB70:
1596:../lib/STM32F10x_StdPeriph_Driver/src/stm32f10x_tim.c **** 
1597:../lib/STM32F10x_StdPeriph_Driver/src/stm32f10x_tim.c **** /**
1598:../lib/STM32F10x_StdPeriph_Driver/src/stm32f10x_tim.c ****   * @brief  Configures the TIMx Output Compare 1 Fast feature.
1599:../lib/STM32F10x_StdPeriph_Driver/src/stm32f10x_tim.c ****   * @param  TIMx: where x can be  1 to 17 except 6 and 7 to select the TIM peripheral.
1600:../lib/STM32F10x_StdPeriph_Driver/src/stm32f10x_tim.c ****   * @param  TIM_OCFast: new state of the Output Compare Fast Enable Bit.
1601:../lib/STM32F10x_StdPeriph_Driver/src/stm32f10x_tim.c ****   *   This parameter can be one of the following values:
1602:../lib/STM32F10x_StdPeriph_Driver/src/stm32f10x_tim.c ****   *     @arg TIM_OCFast_Enable: TIM output compare fast enable
1603:../lib/STM32F10x_StdPeriph_Driver/src/stm32f10x_tim.c ****   *     @arg TIM_OCFast_Disable: TIM output compare fast disable
1604:../lib/STM32F10x_StdPeriph_Driver/src/stm32f10x_tim.c ****   * @retval None
1605:../lib/STM32F10x_StdPeriph_Driver/src/stm32f10x_tim.c ****   */
1606:../lib/STM32F10x_StdPeriph_Driver/src/stm32f10x_tim.c **** void TIM_OC1FastConfig(TIM_TypeDef* TIMx, uint16_t TIM_OCFast)
1607:../lib/STM32F10x_StdPeriph_Driver/src/stm32f10x_tim.c **** {
 3264              		.loc 1 1607 0
 3265              		.cfi_startproc
 3266              		@ args = 0, pretend = 0, frame = 16
 3267              		@ frame_needed = 1, uses_anonymous_args = 0
 3268              		@ link register save eliminated.
 3269 1188 80B4     		push	{r7}
 3270              	.LCFI123:
 3271              		.cfi_def_cfa_offset 4
 3272              		.cfi_offset 7, -4
 3273 118a 85B0     		sub	sp, sp, #20
 3274              	.LCFI124:
 3275              		.cfi_def_cfa_offset 24
 3276 118c 00AF     		add	r7, sp, #0
 3277              	.LCFI125:
 3278              		.cfi_def_cfa_register 7
 3279 118e 7860     		str	r0, [r7, #4]
 3280 1190 0B46     		mov	r3, r1
 3281 1192 7B80     		strh	r3, [r7, #2]	@ movhi
1608:../lib/STM32F10x_StdPeriph_Driver/src/stm32f10x_tim.c ****   uint16_t tmpccmr1 = 0;
 3282              		.loc 1 1608 0
 3283 1194 4FF00003 		mov	r3, #0
 3284 1198 FB81     		strh	r3, [r7, #14]	@ movhi
1609:../lib/STM32F10x_StdPeriph_Driver/src/stm32f10x_tim.c ****   /* Check the parameters */
1610:../lib/STM32F10x_StdPeriph_Driver/src/stm32f10x_tim.c ****   assert_param(IS_TIM_LIST8_PERIPH(TIMx));
1611:../lib/STM32F10x_StdPeriph_Driver/src/stm32f10x_tim.c ****   assert_param(IS_TIM_OCFAST_STATE(TIM_OCFast));
1612:../lib/STM32F10x_StdPeriph_Driver/src/stm32f10x_tim.c ****   /* Get the TIMx CCMR1 register value */
1613:../lib/STM32F10x_StdPeriph_Driver/src/stm32f10x_tim.c ****   tmpccmr1 = TIMx->CCMR1;
 3285              		.loc 1 1613 0
 3286 119a 7B68     		ldr	r3, [r7, #4]
 3287 119c 1B8B     		ldrh	r3, [r3, #24]	@ movhi
 3288 119e FB81     		strh	r3, [r7, #14]	@ movhi
1614:../lib/STM32F10x_StdPeriph_Driver/src/stm32f10x_tim.c ****   /* Reset the OC1FE Bit */
1615:../lib/STM32F10x_StdPeriph_Driver/src/stm32f10x_tim.c ****   tmpccmr1 &= (uint16_t)~((uint16_t)TIM_CCMR1_OC1FE);
 3289              		.loc 1 1615 0
 3290 11a0 FB89     		ldrh	r3, [r7, #14]	@ movhi
 3291 11a2 23F00403 		bic	r3, r3, #4
 3292 11a6 FB81     		strh	r3, [r7, #14]	@ movhi
1616:../lib/STM32F10x_StdPeriph_Driver/src/stm32f10x_tim.c ****   /* Enable or Disable the Output Compare Fast Bit */
1617:../lib/STM32F10x_StdPeriph_Driver/src/stm32f10x_tim.c ****   tmpccmr1 |= TIM_OCFast;
 3293              		.loc 1 1617 0
 3294 11a8 FA89     		ldrh	r2, [r7, #14]	@ movhi
 3295 11aa 7B88     		ldrh	r3, [r7, #2]	@ movhi
 3296 11ac 1343     		orrs	r3, r3, r2
 3297 11ae FB81     		strh	r3, [r7, #14]	@ movhi
1618:../lib/STM32F10x_StdPeriph_Driver/src/stm32f10x_tim.c ****   /* Write to TIMx CCMR1 */
1619:../lib/STM32F10x_StdPeriph_Driver/src/stm32f10x_tim.c ****   TIMx->CCMR1 = tmpccmr1;
 3298              		.loc 1 1619 0
 3299 11b0 7B68     		ldr	r3, [r7, #4]
 3300 11b2 FA89     		ldrh	r2, [r7, #14]	@ movhi
 3301 11b4 1A83     		strh	r2, [r3, #24]	@ movhi
1620:../lib/STM32F10x_StdPeriph_Driver/src/stm32f10x_tim.c **** }
 3302              		.loc 1 1620 0
 3303 11b6 07F11407 		add	r7, r7, #20
 3304 11ba BD46     		mov	sp, r7
 3305 11bc 80BC     		pop	{r7}
 3306 11be 7047     		bx	lr
 3307              		.cfi_endproc
 3308              	.LFE70:
 3310              		.align	2
 3311              		.global	TIM_OC2FastConfig
 3312              		.thumb
 3313              		.thumb_func
 3315              	TIM_OC2FastConfig:
 3316              	.LFB71:
1621:../lib/STM32F10x_StdPeriph_Driver/src/stm32f10x_tim.c **** 
1622:../lib/STM32F10x_StdPeriph_Driver/src/stm32f10x_tim.c **** /**
1623:../lib/STM32F10x_StdPeriph_Driver/src/stm32f10x_tim.c ****   * @brief  Configures the TIMx Output Compare 2 Fast feature.
1624:../lib/STM32F10x_StdPeriph_Driver/src/stm32f10x_tim.c ****   * @param  TIMx: where x can be  1, 2, 3, 4, 5, 8, 9, 12 or 15 to select 
1625:../lib/STM32F10x_StdPeriph_Driver/src/stm32f10x_tim.c ****   *         the TIM peripheral.
1626:../lib/STM32F10x_StdPeriph_Driver/src/stm32f10x_tim.c ****   * @param  TIM_OCFast: new state of the Output Compare Fast Enable Bit.
1627:../lib/STM32F10x_StdPeriph_Driver/src/stm32f10x_tim.c ****   *   This parameter can be one of the following values:
1628:../lib/STM32F10x_StdPeriph_Driver/src/stm32f10x_tim.c ****   *     @arg TIM_OCFast_Enable: TIM output compare fast enable
1629:../lib/STM32F10x_StdPeriph_Driver/src/stm32f10x_tim.c ****   *     @arg TIM_OCFast_Disable: TIM output compare fast disable
1630:../lib/STM32F10x_StdPeriph_Driver/src/stm32f10x_tim.c ****   * @retval None
1631:../lib/STM32F10x_StdPeriph_Driver/src/stm32f10x_tim.c ****   */
1632:../lib/STM32F10x_StdPeriph_Driver/src/stm32f10x_tim.c **** void TIM_OC2FastConfig(TIM_TypeDef* TIMx, uint16_t TIM_OCFast)
1633:../lib/STM32F10x_StdPeriph_Driver/src/stm32f10x_tim.c **** {
 3317              		.loc 1 1633 0
 3318              		.cfi_startproc
 3319              		@ args = 0, pretend = 0, frame = 16
 3320              		@ frame_needed = 1, uses_anonymous_args = 0
 3321              		@ link register save eliminated.
 3322 11c0 80B4     		push	{r7}
 3323              	.LCFI126:
 3324              		.cfi_def_cfa_offset 4
 3325              		.cfi_offset 7, -4
 3326 11c2 85B0     		sub	sp, sp, #20
 3327              	.LCFI127:
 3328              		.cfi_def_cfa_offset 24
 3329 11c4 00AF     		add	r7, sp, #0
 3330              	.LCFI128:
 3331              		.cfi_def_cfa_register 7
 3332 11c6 7860     		str	r0, [r7, #4]
 3333 11c8 0B46     		mov	r3, r1
 3334 11ca 7B80     		strh	r3, [r7, #2]	@ movhi
1634:../lib/STM32F10x_StdPeriph_Driver/src/stm32f10x_tim.c ****   uint16_t tmpccmr1 = 0;
 3335              		.loc 1 1634 0
 3336 11cc 4FF00003 		mov	r3, #0
 3337 11d0 FB81     		strh	r3, [r7, #14]	@ movhi
1635:../lib/STM32F10x_StdPeriph_Driver/src/stm32f10x_tim.c ****   /* Check the parameters */
1636:../lib/STM32F10x_StdPeriph_Driver/src/stm32f10x_tim.c ****   assert_param(IS_TIM_LIST6_PERIPH(TIMx));
1637:../lib/STM32F10x_StdPeriph_Driver/src/stm32f10x_tim.c ****   assert_param(IS_TIM_OCFAST_STATE(TIM_OCFast));
1638:../lib/STM32F10x_StdPeriph_Driver/src/stm32f10x_tim.c ****   /* Get the TIMx CCMR1 register value */
1639:../lib/STM32F10x_StdPeriph_Driver/src/stm32f10x_tim.c ****   tmpccmr1 = TIMx->CCMR1;
 3338              		.loc 1 1639 0
 3339 11d2 7B68     		ldr	r3, [r7, #4]
 3340 11d4 1B8B     		ldrh	r3, [r3, #24]	@ movhi
 3341 11d6 FB81     		strh	r3, [r7, #14]	@ movhi
1640:../lib/STM32F10x_StdPeriph_Driver/src/stm32f10x_tim.c ****   /* Reset the OC2FE Bit */
1641:../lib/STM32F10x_StdPeriph_Driver/src/stm32f10x_tim.c ****   tmpccmr1 &= (uint16_t)~((uint16_t)TIM_CCMR1_OC2FE);
 3342              		.loc 1 1641 0
 3343 11d8 FB89     		ldrh	r3, [r7, #14]	@ movhi
 3344 11da 23F48063 		bic	r3, r3, #1024
 3345 11de FB81     		strh	r3, [r7, #14]	@ movhi
1642:../lib/STM32F10x_StdPeriph_Driver/src/stm32f10x_tim.c ****   /* Enable or Disable the Output Compare Fast Bit */
1643:../lib/STM32F10x_StdPeriph_Driver/src/stm32f10x_tim.c ****   tmpccmr1 |= (uint16_t)(TIM_OCFast << 8);
 3346              		.loc 1 1643 0
 3347 11e0 7B88     		ldrh	r3, [r7, #2]	@ movhi
 3348 11e2 4FEA0323 		lsl	r3, r3, #8
 3349 11e6 9AB2     		uxth	r2, r3
 3350 11e8 FB89     		ldrh	r3, [r7, #14]	@ movhi
 3351 11ea 1343     		orrs	r3, r3, r2
 3352 11ec FB81     		strh	r3, [r7, #14]	@ movhi
1644:../lib/STM32F10x_StdPeriph_Driver/src/stm32f10x_tim.c ****   /* Write to TIMx CCMR1 */
1645:../lib/STM32F10x_StdPeriph_Driver/src/stm32f10x_tim.c ****   TIMx->CCMR1 = tmpccmr1;
 3353              		.loc 1 1645 0
 3354 11ee 7B68     		ldr	r3, [r7, #4]
 3355 11f0 FA89     		ldrh	r2, [r7, #14]	@ movhi
 3356 11f2 1A83     		strh	r2, [r3, #24]	@ movhi
1646:../lib/STM32F10x_StdPeriph_Driver/src/stm32f10x_tim.c **** }
 3357              		.loc 1 1646 0
 3358 11f4 07F11407 		add	r7, r7, #20
 3359 11f8 BD46     		mov	sp, r7
 3360 11fa 80BC     		pop	{r7}
 3361 11fc 7047     		bx	lr
 3362              		.cfi_endproc
 3363              	.LFE71:
 3365 11fe 00BF     		.align	2
 3366              		.global	TIM_OC3FastConfig
 3367              		.thumb
 3368              		.thumb_func
 3370              	TIM_OC3FastConfig:
 3371              	.LFB72:
1647:../lib/STM32F10x_StdPeriph_Driver/src/stm32f10x_tim.c **** 
1648:../lib/STM32F10x_StdPeriph_Driver/src/stm32f10x_tim.c **** /**
1649:../lib/STM32F10x_StdPeriph_Driver/src/stm32f10x_tim.c ****   * @brief  Configures the TIMx Output Compare 3 Fast feature.
1650:../lib/STM32F10x_StdPeriph_Driver/src/stm32f10x_tim.c ****   * @param  TIMx: where x can be  1, 2, 3, 4, 5 or 8 to select the TIM peripheral.
1651:../lib/STM32F10x_StdPeriph_Driver/src/stm32f10x_tim.c ****   * @param  TIM_OCFast: new state of the Output Compare Fast Enable Bit.
1652:../lib/STM32F10x_StdPeriph_Driver/src/stm32f10x_tim.c ****   *   This parameter can be one of the following values:
1653:../lib/STM32F10x_StdPeriph_Driver/src/stm32f10x_tim.c ****   *     @arg TIM_OCFast_Enable: TIM output compare fast enable
1654:../lib/STM32F10x_StdPeriph_Driver/src/stm32f10x_tim.c ****   *     @arg TIM_OCFast_Disable: TIM output compare fast disable
1655:../lib/STM32F10x_StdPeriph_Driver/src/stm32f10x_tim.c ****   * @retval None
1656:../lib/STM32F10x_StdPeriph_Driver/src/stm32f10x_tim.c ****   */
1657:../lib/STM32F10x_StdPeriph_Driver/src/stm32f10x_tim.c **** void TIM_OC3FastConfig(TIM_TypeDef* TIMx, uint16_t TIM_OCFast)
1658:../lib/STM32F10x_StdPeriph_Driver/src/stm32f10x_tim.c **** {
 3372              		.loc 1 1658 0
 3373              		.cfi_startproc
 3374              		@ args = 0, pretend = 0, frame = 16
 3375              		@ frame_needed = 1, uses_anonymous_args = 0
 3376              		@ link register save eliminated.
 3377 1200 80B4     		push	{r7}
 3378              	.LCFI129:
 3379              		.cfi_def_cfa_offset 4
 3380              		.cfi_offset 7, -4
 3381 1202 85B0     		sub	sp, sp, #20
 3382              	.LCFI130:
 3383              		.cfi_def_cfa_offset 24
 3384 1204 00AF     		add	r7, sp, #0
 3385              	.LCFI131:
 3386              		.cfi_def_cfa_register 7
 3387 1206 7860     		str	r0, [r7, #4]
 3388 1208 0B46     		mov	r3, r1
 3389 120a 7B80     		strh	r3, [r7, #2]	@ movhi
1659:../lib/STM32F10x_StdPeriph_Driver/src/stm32f10x_tim.c ****   uint16_t tmpccmr2 = 0;
 3390              		.loc 1 1659 0
 3391 120c 4FF00003 		mov	r3, #0
 3392 1210 FB81     		strh	r3, [r7, #14]	@ movhi
1660:../lib/STM32F10x_StdPeriph_Driver/src/stm32f10x_tim.c ****   /* Check the parameters */
1661:../lib/STM32F10x_StdPeriph_Driver/src/stm32f10x_tim.c ****   assert_param(IS_TIM_LIST3_PERIPH(TIMx));
1662:../lib/STM32F10x_StdPeriph_Driver/src/stm32f10x_tim.c ****   assert_param(IS_TIM_OCFAST_STATE(TIM_OCFast));
1663:../lib/STM32F10x_StdPeriph_Driver/src/stm32f10x_tim.c ****   /* Get the TIMx CCMR2 register value */
1664:../lib/STM32F10x_StdPeriph_Driver/src/stm32f10x_tim.c ****   tmpccmr2 = TIMx->CCMR2;
 3393              		.loc 1 1664 0
 3394 1212 7B68     		ldr	r3, [r7, #4]
 3395 1214 9B8B     		ldrh	r3, [r3, #28]	@ movhi
 3396 1216 FB81     		strh	r3, [r7, #14]	@ movhi
1665:../lib/STM32F10x_StdPeriph_Driver/src/stm32f10x_tim.c ****   /* Reset the OC3FE Bit */
1666:../lib/STM32F10x_StdPeriph_Driver/src/stm32f10x_tim.c ****   tmpccmr2 &= (uint16_t)~((uint16_t)TIM_CCMR2_OC3FE);
 3397              		.loc 1 1666 0
 3398 1218 FB89     		ldrh	r3, [r7, #14]	@ movhi
 3399 121a 23F00403 		bic	r3, r3, #4
 3400 121e FB81     		strh	r3, [r7, #14]	@ movhi
1667:../lib/STM32F10x_StdPeriph_Driver/src/stm32f10x_tim.c ****   /* Enable or Disable the Output Compare Fast Bit */
1668:../lib/STM32F10x_StdPeriph_Driver/src/stm32f10x_tim.c ****   tmpccmr2 |= TIM_OCFast;
 3401              		.loc 1 1668 0
 3402 1220 FA89     		ldrh	r2, [r7, #14]	@ movhi
 3403 1222 7B88     		ldrh	r3, [r7, #2]	@ movhi
 3404 1224 1343     		orrs	r3, r3, r2
 3405 1226 FB81     		strh	r3, [r7, #14]	@ movhi
1669:../lib/STM32F10x_StdPeriph_Driver/src/stm32f10x_tim.c ****   /* Write to TIMx CCMR2 */
1670:../lib/STM32F10x_StdPeriph_Driver/src/stm32f10x_tim.c ****   TIMx->CCMR2 = tmpccmr2;
 3406              		.loc 1 1670 0
 3407 1228 7B68     		ldr	r3, [r7, #4]
 3408 122a FA89     		ldrh	r2, [r7, #14]	@ movhi
 3409 122c 9A83     		strh	r2, [r3, #28]	@ movhi
1671:../lib/STM32F10x_StdPeriph_Driver/src/stm32f10x_tim.c **** }
 3410              		.loc 1 1671 0
 3411 122e 07F11407 		add	r7, r7, #20
 3412 1232 BD46     		mov	sp, r7
 3413 1234 80BC     		pop	{r7}
 3414 1236 7047     		bx	lr
 3415              		.cfi_endproc
 3416              	.LFE72:
 3418              		.align	2
 3419              		.global	TIM_OC4FastConfig
 3420              		.thumb
 3421              		.thumb_func
 3423              	TIM_OC4FastConfig:
 3424              	.LFB73:
1672:../lib/STM32F10x_StdPeriph_Driver/src/stm32f10x_tim.c **** 
1673:../lib/STM32F10x_StdPeriph_Driver/src/stm32f10x_tim.c **** /**
1674:../lib/STM32F10x_StdPeriph_Driver/src/stm32f10x_tim.c ****   * @brief  Configures the TIMx Output Compare 4 Fast feature.
1675:../lib/STM32F10x_StdPeriph_Driver/src/stm32f10x_tim.c ****   * @param  TIMx: where x can be  1, 2, 3, 4, 5 or 8 to select the TIM peripheral.
1676:../lib/STM32F10x_StdPeriph_Driver/src/stm32f10x_tim.c ****   * @param  TIM_OCFast: new state of the Output Compare Fast Enable Bit.
1677:../lib/STM32F10x_StdPeriph_Driver/src/stm32f10x_tim.c ****   *   This parameter can be one of the following values:
1678:../lib/STM32F10x_StdPeriph_Driver/src/stm32f10x_tim.c ****   *     @arg TIM_OCFast_Enable: TIM output compare fast enable
1679:../lib/STM32F10x_StdPeriph_Driver/src/stm32f10x_tim.c ****   *     @arg TIM_OCFast_Disable: TIM output compare fast disable
1680:../lib/STM32F10x_StdPeriph_Driver/src/stm32f10x_tim.c ****   * @retval None
1681:../lib/STM32F10x_StdPeriph_Driver/src/stm32f10x_tim.c ****   */
1682:../lib/STM32F10x_StdPeriph_Driver/src/stm32f10x_tim.c **** void TIM_OC4FastConfig(TIM_TypeDef* TIMx, uint16_t TIM_OCFast)
1683:../lib/STM32F10x_StdPeriph_Driver/src/stm32f10x_tim.c **** {
 3425              		.loc 1 1683 0
 3426              		.cfi_startproc
 3427              		@ args = 0, pretend = 0, frame = 16
 3428              		@ frame_needed = 1, uses_anonymous_args = 0
 3429              		@ link register save eliminated.
 3430 1238 80B4     		push	{r7}
 3431              	.LCFI132:
 3432              		.cfi_def_cfa_offset 4
 3433              		.cfi_offset 7, -4
 3434 123a 85B0     		sub	sp, sp, #20
 3435              	.LCFI133:
 3436              		.cfi_def_cfa_offset 24
 3437 123c 00AF     		add	r7, sp, #0
 3438              	.LCFI134:
 3439              		.cfi_def_cfa_register 7
 3440 123e 7860     		str	r0, [r7, #4]
 3441 1240 0B46     		mov	r3, r1
 3442 1242 7B80     		strh	r3, [r7, #2]	@ movhi
1684:../lib/STM32F10x_StdPeriph_Driver/src/stm32f10x_tim.c ****   uint16_t tmpccmr2 = 0;
 3443              		.loc 1 1684 0
 3444 1244 4FF00003 		mov	r3, #0
 3445 1248 FB81     		strh	r3, [r7, #14]	@ movhi
1685:../lib/STM32F10x_StdPeriph_Driver/src/stm32f10x_tim.c ****   /* Check the parameters */
1686:../lib/STM32F10x_StdPeriph_Driver/src/stm32f10x_tim.c ****   assert_param(IS_TIM_LIST3_PERIPH(TIMx));
1687:../lib/STM32F10x_StdPeriph_Driver/src/stm32f10x_tim.c ****   assert_param(IS_TIM_OCFAST_STATE(TIM_OCFast));
1688:../lib/STM32F10x_StdPeriph_Driver/src/stm32f10x_tim.c ****   /* Get the TIMx CCMR2 register value */
1689:../lib/STM32F10x_StdPeriph_Driver/src/stm32f10x_tim.c ****   tmpccmr2 = TIMx->CCMR2;
 3446              		.loc 1 1689 0
 3447 124a 7B68     		ldr	r3, [r7, #4]
 3448 124c 9B8B     		ldrh	r3, [r3, #28]	@ movhi
 3449 124e FB81     		strh	r3, [r7, #14]	@ movhi
1690:../lib/STM32F10x_StdPeriph_Driver/src/stm32f10x_tim.c ****   /* Reset the OC4FE Bit */
1691:../lib/STM32F10x_StdPeriph_Driver/src/stm32f10x_tim.c ****   tmpccmr2 &= (uint16_t)~((uint16_t)TIM_CCMR2_OC4FE);
 3450              		.loc 1 1691 0
 3451 1250 FB89     		ldrh	r3, [r7, #14]	@ movhi
 3452 1252 23F48063 		bic	r3, r3, #1024
 3453 1256 FB81     		strh	r3, [r7, #14]	@ movhi
1692:../lib/STM32F10x_StdPeriph_Driver/src/stm32f10x_tim.c ****   /* Enable or Disable the Output Compare Fast Bit */
1693:../lib/STM32F10x_StdPeriph_Driver/src/stm32f10x_tim.c ****   tmpccmr2 |= (uint16_t)(TIM_OCFast << 8);
 3454              		.loc 1 1693 0
 3455 1258 7B88     		ldrh	r3, [r7, #2]	@ movhi
 3456 125a 4FEA0323 		lsl	r3, r3, #8
 3457 125e 9AB2     		uxth	r2, r3
 3458 1260 FB89     		ldrh	r3, [r7, #14]	@ movhi
 3459 1262 1343     		orrs	r3, r3, r2
 3460 1264 FB81     		strh	r3, [r7, #14]	@ movhi
1694:../lib/STM32F10x_StdPeriph_Driver/src/stm32f10x_tim.c ****   /* Write to TIMx CCMR2 */
1695:../lib/STM32F10x_StdPeriph_Driver/src/stm32f10x_tim.c ****   TIMx->CCMR2 = tmpccmr2;
 3461              		.loc 1 1695 0
 3462 1266 7B68     		ldr	r3, [r7, #4]
 3463 1268 FA89     		ldrh	r2, [r7, #14]	@ movhi
 3464 126a 9A83     		strh	r2, [r3, #28]	@ movhi
1696:../lib/STM32F10x_StdPeriph_Driver/src/stm32f10x_tim.c **** }
 3465              		.loc 1 1696 0
 3466 126c 07F11407 		add	r7, r7, #20
 3467 1270 BD46     		mov	sp, r7
 3468 1272 80BC     		pop	{r7}
 3469 1274 7047     		bx	lr
 3470              		.cfi_endproc
 3471              	.LFE73:
 3473 1276 00BF     		.align	2
 3474              		.global	TIM_ClearOC1Ref
 3475              		.thumb
 3476              		.thumb_func
 3478              	TIM_ClearOC1Ref:
 3479              	.LFB74:
1697:../lib/STM32F10x_StdPeriph_Driver/src/stm32f10x_tim.c **** 
1698:../lib/STM32F10x_StdPeriph_Driver/src/stm32f10x_tim.c **** /**
1699:../lib/STM32F10x_StdPeriph_Driver/src/stm32f10x_tim.c ****   * @brief  Clears or safeguards the OCREF1 signal on an external event
1700:../lib/STM32F10x_StdPeriph_Driver/src/stm32f10x_tim.c ****   * @param  TIMx: where x can be  1, 2, 3, 4, 5 or 8 to select the TIM peripheral.
1701:../lib/STM32F10x_StdPeriph_Driver/src/stm32f10x_tim.c ****   * @param  TIM_OCClear: new state of the Output Compare Clear Enable Bit.
1702:../lib/STM32F10x_StdPeriph_Driver/src/stm32f10x_tim.c ****   *   This parameter can be one of the following values:
1703:../lib/STM32F10x_StdPeriph_Driver/src/stm32f10x_tim.c ****   *     @arg TIM_OCClear_Enable: TIM Output clear enable
1704:../lib/STM32F10x_StdPeriph_Driver/src/stm32f10x_tim.c ****   *     @arg TIM_OCClear_Disable: TIM Output clear disable
1705:../lib/STM32F10x_StdPeriph_Driver/src/stm32f10x_tim.c ****   * @retval None
1706:../lib/STM32F10x_StdPeriph_Driver/src/stm32f10x_tim.c ****   */
1707:../lib/STM32F10x_StdPeriph_Driver/src/stm32f10x_tim.c **** void TIM_ClearOC1Ref(TIM_TypeDef* TIMx, uint16_t TIM_OCClear)
1708:../lib/STM32F10x_StdPeriph_Driver/src/stm32f10x_tim.c **** {
 3480              		.loc 1 1708 0
 3481              		.cfi_startproc
 3482              		@ args = 0, pretend = 0, frame = 16
 3483              		@ frame_needed = 1, uses_anonymous_args = 0
 3484              		@ link register save eliminated.
 3485 1278 80B4     		push	{r7}
 3486              	.LCFI135:
 3487              		.cfi_def_cfa_offset 4
 3488              		.cfi_offset 7, -4
 3489 127a 85B0     		sub	sp, sp, #20
 3490              	.LCFI136:
 3491              		.cfi_def_cfa_offset 24
 3492 127c 00AF     		add	r7, sp, #0
 3493              	.LCFI137:
 3494              		.cfi_def_cfa_register 7
 3495 127e 7860     		str	r0, [r7, #4]
 3496 1280 0B46     		mov	r3, r1
 3497 1282 7B80     		strh	r3, [r7, #2]	@ movhi
1709:../lib/STM32F10x_StdPeriph_Driver/src/stm32f10x_tim.c ****   uint16_t tmpccmr1 = 0;
 3498              		.loc 1 1709 0
 3499 1284 4FF00003 		mov	r3, #0
 3500 1288 FB81     		strh	r3, [r7, #14]	@ movhi
1710:../lib/STM32F10x_StdPeriph_Driver/src/stm32f10x_tim.c ****   /* Check the parameters */
1711:../lib/STM32F10x_StdPeriph_Driver/src/stm32f10x_tim.c ****   assert_param(IS_TIM_LIST3_PERIPH(TIMx));
1712:../lib/STM32F10x_StdPeriph_Driver/src/stm32f10x_tim.c ****   assert_param(IS_TIM_OCCLEAR_STATE(TIM_OCClear));
1713:../lib/STM32F10x_StdPeriph_Driver/src/stm32f10x_tim.c **** 
1714:../lib/STM32F10x_StdPeriph_Driver/src/stm32f10x_tim.c ****   tmpccmr1 = TIMx->CCMR1;
 3501              		.loc 1 1714 0
 3502 128a 7B68     		ldr	r3, [r7, #4]
 3503 128c 1B8B     		ldrh	r3, [r3, #24]	@ movhi
 3504 128e FB81     		strh	r3, [r7, #14]	@ movhi
1715:../lib/STM32F10x_StdPeriph_Driver/src/stm32f10x_tim.c **** 
1716:../lib/STM32F10x_StdPeriph_Driver/src/stm32f10x_tim.c ****   /* Reset the OC1CE Bit */
1717:../lib/STM32F10x_StdPeriph_Driver/src/stm32f10x_tim.c ****   tmpccmr1 &= (uint16_t)~((uint16_t)TIM_CCMR1_OC1CE);
 3505              		.loc 1 1717 0
 3506 1290 FB89     		ldrh	r3, [r7, #14]	@ movhi
 3507 1292 23F08003 		bic	r3, r3, #128
 3508 1296 FB81     		strh	r3, [r7, #14]	@ movhi
1718:../lib/STM32F10x_StdPeriph_Driver/src/stm32f10x_tim.c ****   /* Enable or Disable the Output Compare Clear Bit */
1719:../lib/STM32F10x_StdPeriph_Driver/src/stm32f10x_tim.c ****   tmpccmr1 |= TIM_OCClear;
 3509              		.loc 1 1719 0
 3510 1298 FA89     		ldrh	r2, [r7, #14]	@ movhi
 3511 129a 7B88     		ldrh	r3, [r7, #2]	@ movhi
 3512 129c 1343     		orrs	r3, r3, r2
 3513 129e FB81     		strh	r3, [r7, #14]	@ movhi
1720:../lib/STM32F10x_StdPeriph_Driver/src/stm32f10x_tim.c ****   /* Write to TIMx CCMR1 register */
1721:../lib/STM32F10x_StdPeriph_Driver/src/stm32f10x_tim.c ****   TIMx->CCMR1 = tmpccmr1;
 3514              		.loc 1 1721 0
 3515 12a0 7B68     		ldr	r3, [r7, #4]
 3516 12a2 FA89     		ldrh	r2, [r7, #14]	@ movhi
 3517 12a4 1A83     		strh	r2, [r3, #24]	@ movhi
1722:../lib/STM32F10x_StdPeriph_Driver/src/stm32f10x_tim.c **** }
 3518              		.loc 1 1722 0
 3519 12a6 07F11407 		add	r7, r7, #20
 3520 12aa BD46     		mov	sp, r7
 3521 12ac 80BC     		pop	{r7}
 3522 12ae 7047     		bx	lr
 3523              		.cfi_endproc
 3524              	.LFE74:
 3526              		.align	2
 3527              		.global	TIM_ClearOC2Ref
 3528              		.thumb
 3529              		.thumb_func
 3531              	TIM_ClearOC2Ref:
 3532              	.LFB75:
1723:../lib/STM32F10x_StdPeriph_Driver/src/stm32f10x_tim.c **** 
1724:../lib/STM32F10x_StdPeriph_Driver/src/stm32f10x_tim.c **** /**
1725:../lib/STM32F10x_StdPeriph_Driver/src/stm32f10x_tim.c ****   * @brief  Clears or safeguards the OCREF2 signal on an external event
1726:../lib/STM32F10x_StdPeriph_Driver/src/stm32f10x_tim.c ****   * @param  TIMx: where x can be  1, 2, 3, 4, 5 or 8 to select the TIM peripheral.
1727:../lib/STM32F10x_StdPeriph_Driver/src/stm32f10x_tim.c ****   * @param  TIM_OCClear: new state of the Output Compare Clear Enable Bit.
1728:../lib/STM32F10x_StdPeriph_Driver/src/stm32f10x_tim.c ****   *   This parameter can be one of the following values:
1729:../lib/STM32F10x_StdPeriph_Driver/src/stm32f10x_tim.c ****   *     @arg TIM_OCClear_Enable: TIM Output clear enable
1730:../lib/STM32F10x_StdPeriph_Driver/src/stm32f10x_tim.c ****   *     @arg TIM_OCClear_Disable: TIM Output clear disable
1731:../lib/STM32F10x_StdPeriph_Driver/src/stm32f10x_tim.c ****   * @retval None
1732:../lib/STM32F10x_StdPeriph_Driver/src/stm32f10x_tim.c ****   */
1733:../lib/STM32F10x_StdPeriph_Driver/src/stm32f10x_tim.c **** void TIM_ClearOC2Ref(TIM_TypeDef* TIMx, uint16_t TIM_OCClear)
1734:../lib/STM32F10x_StdPeriph_Driver/src/stm32f10x_tim.c **** {
 3533              		.loc 1 1734 0
 3534              		.cfi_startproc
 3535              		@ args = 0, pretend = 0, frame = 16
 3536              		@ frame_needed = 1, uses_anonymous_args = 0
 3537              		@ link register save eliminated.
 3538 12b0 80B4     		push	{r7}
 3539              	.LCFI138:
 3540              		.cfi_def_cfa_offset 4
 3541              		.cfi_offset 7, -4
 3542 12b2 85B0     		sub	sp, sp, #20
 3543              	.LCFI139:
 3544              		.cfi_def_cfa_offset 24
 3545 12b4 00AF     		add	r7, sp, #0
 3546              	.LCFI140:
 3547              		.cfi_def_cfa_register 7
 3548 12b6 7860     		str	r0, [r7, #4]
 3549 12b8 0B46     		mov	r3, r1
 3550 12ba 7B80     		strh	r3, [r7, #2]	@ movhi
1735:../lib/STM32F10x_StdPeriph_Driver/src/stm32f10x_tim.c ****   uint16_t tmpccmr1 = 0;
 3551              		.loc 1 1735 0
 3552 12bc 4FF00003 		mov	r3, #0
 3553 12c0 FB81     		strh	r3, [r7, #14]	@ movhi
1736:../lib/STM32F10x_StdPeriph_Driver/src/stm32f10x_tim.c ****   /* Check the parameters */
1737:../lib/STM32F10x_StdPeriph_Driver/src/stm32f10x_tim.c ****   assert_param(IS_TIM_LIST3_PERIPH(TIMx));
1738:../lib/STM32F10x_StdPeriph_Driver/src/stm32f10x_tim.c ****   assert_param(IS_TIM_OCCLEAR_STATE(TIM_OCClear));
1739:../lib/STM32F10x_StdPeriph_Driver/src/stm32f10x_tim.c ****   tmpccmr1 = TIMx->CCMR1;
 3554              		.loc 1 1739 0
 3555 12c2 7B68     		ldr	r3, [r7, #4]
 3556 12c4 1B8B     		ldrh	r3, [r3, #24]	@ movhi
 3557 12c6 FB81     		strh	r3, [r7, #14]	@ movhi
1740:../lib/STM32F10x_StdPeriph_Driver/src/stm32f10x_tim.c ****   /* Reset the OC2CE Bit */
1741:../lib/STM32F10x_StdPeriph_Driver/src/stm32f10x_tim.c ****   tmpccmr1 &= (uint16_t)~((uint16_t)TIM_CCMR1_OC2CE);
 3558              		.loc 1 1741 0
 3559 12c8 FB89     		ldrh	r3, [r7, #14]	@ movhi
 3560 12ca 4FEA4343 		lsl	r3, r3, #17
 3561 12ce 4FEA5343 		lsr	r3, r3, #17
 3562 12d2 FB81     		strh	r3, [r7, #14]	@ movhi
1742:../lib/STM32F10x_StdPeriph_Driver/src/stm32f10x_tim.c ****   /* Enable or Disable the Output Compare Clear Bit */
1743:../lib/STM32F10x_StdPeriph_Driver/src/stm32f10x_tim.c ****   tmpccmr1 |= (uint16_t)(TIM_OCClear << 8);
 3563              		.loc 1 1743 0
 3564 12d4 7B88     		ldrh	r3, [r7, #2]	@ movhi
 3565 12d6 4FEA0323 		lsl	r3, r3, #8
 3566 12da 9AB2     		uxth	r2, r3
 3567 12dc FB89     		ldrh	r3, [r7, #14]	@ movhi
 3568 12de 1343     		orrs	r3, r3, r2
 3569 12e0 FB81     		strh	r3, [r7, #14]	@ movhi
1744:../lib/STM32F10x_StdPeriph_Driver/src/stm32f10x_tim.c ****   /* Write to TIMx CCMR1 register */
1745:../lib/STM32F10x_StdPeriph_Driver/src/stm32f10x_tim.c ****   TIMx->CCMR1 = tmpccmr1;
 3570              		.loc 1 1745 0
 3571 12e2 7B68     		ldr	r3, [r7, #4]
 3572 12e4 FA89     		ldrh	r2, [r7, #14]	@ movhi
 3573 12e6 1A83     		strh	r2, [r3, #24]	@ movhi
1746:../lib/STM32F10x_StdPeriph_Driver/src/stm32f10x_tim.c **** }
 3574              		.loc 1 1746 0
 3575 12e8 07F11407 		add	r7, r7, #20
 3576 12ec BD46     		mov	sp, r7
 3577 12ee 80BC     		pop	{r7}
 3578 12f0 7047     		bx	lr
 3579              		.cfi_endproc
 3580              	.LFE75:
 3582 12f2 00BF     		.align	2
 3583              		.global	TIM_ClearOC3Ref
 3584              		.thumb
 3585              		.thumb_func
 3587              	TIM_ClearOC3Ref:
 3588              	.LFB76:
1747:../lib/STM32F10x_StdPeriph_Driver/src/stm32f10x_tim.c **** 
1748:../lib/STM32F10x_StdPeriph_Driver/src/stm32f10x_tim.c **** /**
1749:../lib/STM32F10x_StdPeriph_Driver/src/stm32f10x_tim.c ****   * @brief  Clears or safeguards the OCREF3 signal on an external event
1750:../lib/STM32F10x_StdPeriph_Driver/src/stm32f10x_tim.c ****   * @param  TIMx: where x can be  1, 2, 3, 4, 5 or 8 to select the TIM peripheral.
1751:../lib/STM32F10x_StdPeriph_Driver/src/stm32f10x_tim.c ****   * @param  TIM_OCClear: new state of the Output Compare Clear Enable Bit.
1752:../lib/STM32F10x_StdPeriph_Driver/src/stm32f10x_tim.c ****   *   This parameter can be one of the following values:
1753:../lib/STM32F10x_StdPeriph_Driver/src/stm32f10x_tim.c ****   *     @arg TIM_OCClear_Enable: TIM Output clear enable
1754:../lib/STM32F10x_StdPeriph_Driver/src/stm32f10x_tim.c ****   *     @arg TIM_OCClear_Disable: TIM Output clear disable
1755:../lib/STM32F10x_StdPeriph_Driver/src/stm32f10x_tim.c ****   * @retval None
1756:../lib/STM32F10x_StdPeriph_Driver/src/stm32f10x_tim.c ****   */
1757:../lib/STM32F10x_StdPeriph_Driver/src/stm32f10x_tim.c **** void TIM_ClearOC3Ref(TIM_TypeDef* TIMx, uint16_t TIM_OCClear)
1758:../lib/STM32F10x_StdPeriph_Driver/src/stm32f10x_tim.c **** {
 3589              		.loc 1 1758 0
 3590              		.cfi_startproc
 3591              		@ args = 0, pretend = 0, frame = 16
 3592              		@ frame_needed = 1, uses_anonymous_args = 0
 3593              		@ link register save eliminated.
 3594 12f4 80B4     		push	{r7}
 3595              	.LCFI141:
 3596              		.cfi_def_cfa_offset 4
 3597              		.cfi_offset 7, -4
 3598 12f6 85B0     		sub	sp, sp, #20
 3599              	.LCFI142:
 3600              		.cfi_def_cfa_offset 24
 3601 12f8 00AF     		add	r7, sp, #0
 3602              	.LCFI143:
 3603              		.cfi_def_cfa_register 7
 3604 12fa 7860     		str	r0, [r7, #4]
 3605 12fc 0B46     		mov	r3, r1
 3606 12fe 7B80     		strh	r3, [r7, #2]	@ movhi
1759:../lib/STM32F10x_StdPeriph_Driver/src/stm32f10x_tim.c ****   uint16_t tmpccmr2 = 0;
 3607              		.loc 1 1759 0
 3608 1300 4FF00003 		mov	r3, #0
 3609 1304 FB81     		strh	r3, [r7, #14]	@ movhi
1760:../lib/STM32F10x_StdPeriph_Driver/src/stm32f10x_tim.c ****   /* Check the parameters */
1761:../lib/STM32F10x_StdPeriph_Driver/src/stm32f10x_tim.c ****   assert_param(IS_TIM_LIST3_PERIPH(TIMx));
1762:../lib/STM32F10x_StdPeriph_Driver/src/stm32f10x_tim.c ****   assert_param(IS_TIM_OCCLEAR_STATE(TIM_OCClear));
1763:../lib/STM32F10x_StdPeriph_Driver/src/stm32f10x_tim.c ****   tmpccmr2 = TIMx->CCMR2;
 3610              		.loc 1 1763 0
 3611 1306 7B68     		ldr	r3, [r7, #4]
 3612 1308 9B8B     		ldrh	r3, [r3, #28]	@ movhi
 3613 130a FB81     		strh	r3, [r7, #14]	@ movhi
1764:../lib/STM32F10x_StdPeriph_Driver/src/stm32f10x_tim.c ****   /* Reset the OC3CE Bit */
1765:../lib/STM32F10x_StdPeriph_Driver/src/stm32f10x_tim.c ****   tmpccmr2 &= (uint16_t)~((uint16_t)TIM_CCMR2_OC3CE);
 3614              		.loc 1 1765 0
 3615 130c FB89     		ldrh	r3, [r7, #14]	@ movhi
 3616 130e 23F08003 		bic	r3, r3, #128
 3617 1312 FB81     		strh	r3, [r7, #14]	@ movhi
1766:../lib/STM32F10x_StdPeriph_Driver/src/stm32f10x_tim.c ****   /* Enable or Disable the Output Compare Clear Bit */
1767:../lib/STM32F10x_StdPeriph_Driver/src/stm32f10x_tim.c ****   tmpccmr2 |= TIM_OCClear;
 3618              		.loc 1 1767 0
 3619 1314 FA89     		ldrh	r2, [r7, #14]	@ movhi
 3620 1316 7B88     		ldrh	r3, [r7, #2]	@ movhi
 3621 1318 1343     		orrs	r3, r3, r2
 3622 131a FB81     		strh	r3, [r7, #14]	@ movhi
1768:../lib/STM32F10x_StdPeriph_Driver/src/stm32f10x_tim.c ****   /* Write to TIMx CCMR2 register */
1769:../lib/STM32F10x_StdPeriph_Driver/src/stm32f10x_tim.c ****   TIMx->CCMR2 = tmpccmr2;
 3623              		.loc 1 1769 0
 3624 131c 7B68     		ldr	r3, [r7, #4]
 3625 131e FA89     		ldrh	r2, [r7, #14]	@ movhi
 3626 1320 9A83     		strh	r2, [r3, #28]	@ movhi
1770:../lib/STM32F10x_StdPeriph_Driver/src/stm32f10x_tim.c **** }
 3627              		.loc 1 1770 0
 3628 1322 07F11407 		add	r7, r7, #20
 3629 1326 BD46     		mov	sp, r7
 3630 1328 80BC     		pop	{r7}
 3631 132a 7047     		bx	lr
 3632              		.cfi_endproc
 3633              	.LFE76:
 3635              		.align	2
 3636              		.global	TIM_ClearOC4Ref
 3637              		.thumb
 3638              		.thumb_func
 3640              	TIM_ClearOC4Ref:
 3641              	.LFB77:
1771:../lib/STM32F10x_StdPeriph_Driver/src/stm32f10x_tim.c **** 
1772:../lib/STM32F10x_StdPeriph_Driver/src/stm32f10x_tim.c **** /**
1773:../lib/STM32F10x_StdPeriph_Driver/src/stm32f10x_tim.c ****   * @brief  Clears or safeguards the OCREF4 signal on an external event
1774:../lib/STM32F10x_StdPeriph_Driver/src/stm32f10x_tim.c ****   * @param  TIMx: where x can be  1, 2, 3, 4, 5 or 8 to select the TIM peripheral.
1775:../lib/STM32F10x_StdPeriph_Driver/src/stm32f10x_tim.c ****   * @param  TIM_OCClear: new state of the Output Compare Clear Enable Bit.
1776:../lib/STM32F10x_StdPeriph_Driver/src/stm32f10x_tim.c ****   *   This parameter can be one of the following values:
1777:../lib/STM32F10x_StdPeriph_Driver/src/stm32f10x_tim.c ****   *     @arg TIM_OCClear_Enable: TIM Output clear enable
1778:../lib/STM32F10x_StdPeriph_Driver/src/stm32f10x_tim.c ****   *     @arg TIM_OCClear_Disable: TIM Output clear disable
1779:../lib/STM32F10x_StdPeriph_Driver/src/stm32f10x_tim.c ****   * @retval None
1780:../lib/STM32F10x_StdPeriph_Driver/src/stm32f10x_tim.c ****   */
1781:../lib/STM32F10x_StdPeriph_Driver/src/stm32f10x_tim.c **** void TIM_ClearOC4Ref(TIM_TypeDef* TIMx, uint16_t TIM_OCClear)
1782:../lib/STM32F10x_StdPeriph_Driver/src/stm32f10x_tim.c **** {
 3642              		.loc 1 1782 0
 3643              		.cfi_startproc
 3644              		@ args = 0, pretend = 0, frame = 16
 3645              		@ frame_needed = 1, uses_anonymous_args = 0
 3646              		@ link register save eliminated.
 3647 132c 80B4     		push	{r7}
 3648              	.LCFI144:
 3649              		.cfi_def_cfa_offset 4
 3650              		.cfi_offset 7, -4
 3651 132e 85B0     		sub	sp, sp, #20
 3652              	.LCFI145:
 3653              		.cfi_def_cfa_offset 24
 3654 1330 00AF     		add	r7, sp, #0
 3655              	.LCFI146:
 3656              		.cfi_def_cfa_register 7
 3657 1332 7860     		str	r0, [r7, #4]
 3658 1334 0B46     		mov	r3, r1
 3659 1336 7B80     		strh	r3, [r7, #2]	@ movhi
1783:../lib/STM32F10x_StdPeriph_Driver/src/stm32f10x_tim.c ****   uint16_t tmpccmr2 = 0;
 3660              		.loc 1 1783 0
 3661 1338 4FF00003 		mov	r3, #0
 3662 133c FB81     		strh	r3, [r7, #14]	@ movhi
1784:../lib/STM32F10x_StdPeriph_Driver/src/stm32f10x_tim.c ****   /* Check the parameters */
1785:../lib/STM32F10x_StdPeriph_Driver/src/stm32f10x_tim.c ****   assert_param(IS_TIM_LIST3_PERIPH(TIMx));
1786:../lib/STM32F10x_StdPeriph_Driver/src/stm32f10x_tim.c ****   assert_param(IS_TIM_OCCLEAR_STATE(TIM_OCClear));
1787:../lib/STM32F10x_StdPeriph_Driver/src/stm32f10x_tim.c ****   tmpccmr2 = TIMx->CCMR2;
 3663              		.loc 1 1787 0
 3664 133e 7B68     		ldr	r3, [r7, #4]
 3665 1340 9B8B     		ldrh	r3, [r3, #28]	@ movhi
 3666 1342 FB81     		strh	r3, [r7, #14]	@ movhi
1788:../lib/STM32F10x_StdPeriph_Driver/src/stm32f10x_tim.c ****   /* Reset the OC4CE Bit */
1789:../lib/STM32F10x_StdPeriph_Driver/src/stm32f10x_tim.c ****   tmpccmr2 &= (uint16_t)~((uint16_t)TIM_CCMR2_OC4CE);
 3667              		.loc 1 1789 0
 3668 1344 FB89     		ldrh	r3, [r7, #14]	@ movhi
 3669 1346 4FEA4343 		lsl	r3, r3, #17
 3670 134a 4FEA5343 		lsr	r3, r3, #17
 3671 134e FB81     		strh	r3, [r7, #14]	@ movhi
1790:../lib/STM32F10x_StdPeriph_Driver/src/stm32f10x_tim.c ****   /* Enable or Disable the Output Compare Clear Bit */
1791:../lib/STM32F10x_StdPeriph_Driver/src/stm32f10x_tim.c ****   tmpccmr2 |= (uint16_t)(TIM_OCClear << 8);
 3672              		.loc 1 1791 0
 3673 1350 7B88     		ldrh	r3, [r7, #2]	@ movhi
 3674 1352 4FEA0323 		lsl	r3, r3, #8
 3675 1356 9AB2     		uxth	r2, r3
 3676 1358 FB89     		ldrh	r3, [r7, #14]	@ movhi
 3677 135a 1343     		orrs	r3, r3, r2
 3678 135c FB81     		strh	r3, [r7, #14]	@ movhi
1792:../lib/STM32F10x_StdPeriph_Driver/src/stm32f10x_tim.c ****   /* Write to TIMx CCMR2 register */
1793:../lib/STM32F10x_StdPeriph_Driver/src/stm32f10x_tim.c ****   TIMx->CCMR2 = tmpccmr2;
 3679              		.loc 1 1793 0
 3680 135e 7B68     		ldr	r3, [r7, #4]
 3681 1360 FA89     		ldrh	r2, [r7, #14]	@ movhi
 3682 1362 9A83     		strh	r2, [r3, #28]	@ movhi
1794:../lib/STM32F10x_StdPeriph_Driver/src/stm32f10x_tim.c **** }
 3683              		.loc 1 1794 0
 3684 1364 07F11407 		add	r7, r7, #20
 3685 1368 BD46     		mov	sp, r7
 3686 136a 80BC     		pop	{r7}
 3687 136c 7047     		bx	lr
 3688              		.cfi_endproc
 3689              	.LFE77:
 3691 136e 00BF     		.align	2
 3692              		.global	TIM_OC1PolarityConfig
 3693              		.thumb
 3694              		.thumb_func
 3696              	TIM_OC1PolarityConfig:
 3697              	.LFB78:
1795:../lib/STM32F10x_StdPeriph_Driver/src/stm32f10x_tim.c **** 
1796:../lib/STM32F10x_StdPeriph_Driver/src/stm32f10x_tim.c **** /**
1797:../lib/STM32F10x_StdPeriph_Driver/src/stm32f10x_tim.c ****   * @brief  Configures the TIMx channel 1 polarity.
1798:../lib/STM32F10x_StdPeriph_Driver/src/stm32f10x_tim.c ****   * @param  TIMx: where x can be 1 to 17 except 6 and 7 to select the TIM peripheral.
1799:../lib/STM32F10x_StdPeriph_Driver/src/stm32f10x_tim.c ****   * @param  TIM_OCPolarity: specifies the OC1 Polarity
1800:../lib/STM32F10x_StdPeriph_Driver/src/stm32f10x_tim.c ****   *   This parameter can be one of the following values:
1801:../lib/STM32F10x_StdPeriph_Driver/src/stm32f10x_tim.c ****   *     @arg TIM_OCPolarity_High: Output Compare active high
1802:../lib/STM32F10x_StdPeriph_Driver/src/stm32f10x_tim.c ****   *     @arg TIM_OCPolarity_Low: Output Compare active low
1803:../lib/STM32F10x_StdPeriph_Driver/src/stm32f10x_tim.c ****   * @retval None
1804:../lib/STM32F10x_StdPeriph_Driver/src/stm32f10x_tim.c ****   */
1805:../lib/STM32F10x_StdPeriph_Driver/src/stm32f10x_tim.c **** void TIM_OC1PolarityConfig(TIM_TypeDef* TIMx, uint16_t TIM_OCPolarity)
1806:../lib/STM32F10x_StdPeriph_Driver/src/stm32f10x_tim.c **** {
 3698              		.loc 1 1806 0
 3699              		.cfi_startproc
 3700              		@ args = 0, pretend = 0, frame = 16
 3701              		@ frame_needed = 1, uses_anonymous_args = 0
 3702              		@ link register save eliminated.
 3703 1370 80B4     		push	{r7}
 3704              	.LCFI147:
 3705              		.cfi_def_cfa_offset 4
 3706              		.cfi_offset 7, -4
 3707 1372 85B0     		sub	sp, sp, #20
 3708              	.LCFI148:
 3709              		.cfi_def_cfa_offset 24
 3710 1374 00AF     		add	r7, sp, #0
 3711              	.LCFI149:
 3712              		.cfi_def_cfa_register 7
 3713 1376 7860     		str	r0, [r7, #4]
 3714 1378 0B46     		mov	r3, r1
 3715 137a 7B80     		strh	r3, [r7, #2]	@ movhi
1807:../lib/STM32F10x_StdPeriph_Driver/src/stm32f10x_tim.c ****   uint16_t tmpccer = 0;
 3716              		.loc 1 1807 0
 3717 137c 4FF00003 		mov	r3, #0
 3718 1380 FB81     		strh	r3, [r7, #14]	@ movhi
1808:../lib/STM32F10x_StdPeriph_Driver/src/stm32f10x_tim.c ****   /* Check the parameters */
1809:../lib/STM32F10x_StdPeriph_Driver/src/stm32f10x_tim.c ****   assert_param(IS_TIM_LIST8_PERIPH(TIMx));
1810:../lib/STM32F10x_StdPeriph_Driver/src/stm32f10x_tim.c ****   assert_param(IS_TIM_OC_POLARITY(TIM_OCPolarity));
1811:../lib/STM32F10x_StdPeriph_Driver/src/stm32f10x_tim.c ****   tmpccer = TIMx->CCER;
 3719              		.loc 1 1811 0
 3720 1382 7B68     		ldr	r3, [r7, #4]
 3721 1384 1B8C     		ldrh	r3, [r3, #32]	@ movhi
 3722 1386 FB81     		strh	r3, [r7, #14]	@ movhi
1812:../lib/STM32F10x_StdPeriph_Driver/src/stm32f10x_tim.c ****   /* Set or Reset the CC1P Bit */
1813:../lib/STM32F10x_StdPeriph_Driver/src/stm32f10x_tim.c ****   tmpccer &= (uint16_t)~((uint16_t)TIM_CCER_CC1P);
 3723              		.loc 1 1813 0
 3724 1388 FB89     		ldrh	r3, [r7, #14]	@ movhi
 3725 138a 23F00203 		bic	r3, r3, #2
 3726 138e FB81     		strh	r3, [r7, #14]	@ movhi
1814:../lib/STM32F10x_StdPeriph_Driver/src/stm32f10x_tim.c ****   tmpccer |= TIM_OCPolarity;
 3727              		.loc 1 1814 0
 3728 1390 FA89     		ldrh	r2, [r7, #14]	@ movhi
 3729 1392 7B88     		ldrh	r3, [r7, #2]	@ movhi
 3730 1394 1343     		orrs	r3, r3, r2
 3731 1396 FB81     		strh	r3, [r7, #14]	@ movhi
1815:../lib/STM32F10x_StdPeriph_Driver/src/stm32f10x_tim.c ****   /* Write to TIMx CCER register */
1816:../lib/STM32F10x_StdPeriph_Driver/src/stm32f10x_tim.c ****   TIMx->CCER = tmpccer;
 3732              		.loc 1 1816 0
 3733 1398 7B68     		ldr	r3, [r7, #4]
 3734 139a FA89     		ldrh	r2, [r7, #14]	@ movhi
 3735 139c 1A84     		strh	r2, [r3, #32]	@ movhi
1817:../lib/STM32F10x_StdPeriph_Driver/src/stm32f10x_tim.c **** }
 3736              		.loc 1 1817 0
 3737 139e 07F11407 		add	r7, r7, #20
 3738 13a2 BD46     		mov	sp, r7
 3739 13a4 80BC     		pop	{r7}
 3740 13a6 7047     		bx	lr
 3741              		.cfi_endproc
 3742              	.LFE78:
 3744              		.align	2
 3745              		.global	TIM_OC1NPolarityConfig
 3746              		.thumb
 3747              		.thumb_func
 3749              	TIM_OC1NPolarityConfig:
 3750              	.LFB79:
1818:../lib/STM32F10x_StdPeriph_Driver/src/stm32f10x_tim.c **** 
1819:../lib/STM32F10x_StdPeriph_Driver/src/stm32f10x_tim.c **** /**
1820:../lib/STM32F10x_StdPeriph_Driver/src/stm32f10x_tim.c ****   * @brief  Configures the TIMx Channel 1N polarity.
1821:../lib/STM32F10x_StdPeriph_Driver/src/stm32f10x_tim.c ****   * @param  TIMx: where x can be 1, 8, 15, 16 or 17 to select the TIM peripheral.
1822:../lib/STM32F10x_StdPeriph_Driver/src/stm32f10x_tim.c ****   * @param  TIM_OCNPolarity: specifies the OC1N Polarity
1823:../lib/STM32F10x_StdPeriph_Driver/src/stm32f10x_tim.c ****   *   This parameter can be one of the following values:
1824:../lib/STM32F10x_StdPeriph_Driver/src/stm32f10x_tim.c ****   *     @arg TIM_OCNPolarity_High: Output Compare active high
1825:../lib/STM32F10x_StdPeriph_Driver/src/stm32f10x_tim.c ****   *     @arg TIM_OCNPolarity_Low: Output Compare active low
1826:../lib/STM32F10x_StdPeriph_Driver/src/stm32f10x_tim.c ****   * @retval None
1827:../lib/STM32F10x_StdPeriph_Driver/src/stm32f10x_tim.c ****   */
1828:../lib/STM32F10x_StdPeriph_Driver/src/stm32f10x_tim.c **** void TIM_OC1NPolarityConfig(TIM_TypeDef* TIMx, uint16_t TIM_OCNPolarity)
1829:../lib/STM32F10x_StdPeriph_Driver/src/stm32f10x_tim.c **** {
 3751              		.loc 1 1829 0
 3752              		.cfi_startproc
 3753              		@ args = 0, pretend = 0, frame = 16
 3754              		@ frame_needed = 1, uses_anonymous_args = 0
 3755              		@ link register save eliminated.
 3756 13a8 80B4     		push	{r7}
 3757              	.LCFI150:
 3758              		.cfi_def_cfa_offset 4
 3759              		.cfi_offset 7, -4
 3760 13aa 85B0     		sub	sp, sp, #20
 3761              	.LCFI151:
 3762              		.cfi_def_cfa_offset 24
 3763 13ac 00AF     		add	r7, sp, #0
 3764              	.LCFI152:
 3765              		.cfi_def_cfa_register 7
 3766 13ae 7860     		str	r0, [r7, #4]
 3767 13b0 0B46     		mov	r3, r1
 3768 13b2 7B80     		strh	r3, [r7, #2]	@ movhi
1830:../lib/STM32F10x_StdPeriph_Driver/src/stm32f10x_tim.c ****   uint16_t tmpccer = 0;
 3769              		.loc 1 1830 0
 3770 13b4 4FF00003 		mov	r3, #0
 3771 13b8 FB81     		strh	r3, [r7, #14]	@ movhi
1831:../lib/STM32F10x_StdPeriph_Driver/src/stm32f10x_tim.c ****   /* Check the parameters */
1832:../lib/STM32F10x_StdPeriph_Driver/src/stm32f10x_tim.c ****   assert_param(IS_TIM_LIST2_PERIPH(TIMx));
1833:../lib/STM32F10x_StdPeriph_Driver/src/stm32f10x_tim.c ****   assert_param(IS_TIM_OCN_POLARITY(TIM_OCNPolarity));
1834:../lib/STM32F10x_StdPeriph_Driver/src/stm32f10x_tim.c ****    
1835:../lib/STM32F10x_StdPeriph_Driver/src/stm32f10x_tim.c ****   tmpccer = TIMx->CCER;
 3772              		.loc 1 1835 0
 3773 13ba 7B68     		ldr	r3, [r7, #4]
 3774 13bc 1B8C     		ldrh	r3, [r3, #32]	@ movhi
 3775 13be FB81     		strh	r3, [r7, #14]	@ movhi
1836:../lib/STM32F10x_StdPeriph_Driver/src/stm32f10x_tim.c ****   /* Set or Reset the CC1NP Bit */
1837:../lib/STM32F10x_StdPeriph_Driver/src/stm32f10x_tim.c ****   tmpccer &= (uint16_t)~((uint16_t)TIM_CCER_CC1NP);
 3776              		.loc 1 1837 0
 3777 13c0 FB89     		ldrh	r3, [r7, #14]	@ movhi
 3778 13c2 23F00803 		bic	r3, r3, #8
 3779 13c6 FB81     		strh	r3, [r7, #14]	@ movhi
1838:../lib/STM32F10x_StdPeriph_Driver/src/stm32f10x_tim.c ****   tmpccer |= TIM_OCNPolarity;
 3780              		.loc 1 1838 0
 3781 13c8 FA89     		ldrh	r2, [r7, #14]	@ movhi
 3782 13ca 7B88     		ldrh	r3, [r7, #2]	@ movhi
 3783 13cc 1343     		orrs	r3, r3, r2
 3784 13ce FB81     		strh	r3, [r7, #14]	@ movhi
1839:../lib/STM32F10x_StdPeriph_Driver/src/stm32f10x_tim.c ****   /* Write to TIMx CCER register */
1840:../lib/STM32F10x_StdPeriph_Driver/src/stm32f10x_tim.c ****   TIMx->CCER = tmpccer;
 3785              		.loc 1 1840 0
 3786 13d0 7B68     		ldr	r3, [r7, #4]
 3787 13d2 FA89     		ldrh	r2, [r7, #14]	@ movhi
 3788 13d4 1A84     		strh	r2, [r3, #32]	@ movhi
1841:../lib/STM32F10x_StdPeriph_Driver/src/stm32f10x_tim.c **** }
 3789              		.loc 1 1841 0
 3790 13d6 07F11407 		add	r7, r7, #20
 3791 13da BD46     		mov	sp, r7
 3792 13dc 80BC     		pop	{r7}
 3793 13de 7047     		bx	lr
 3794              		.cfi_endproc
 3795              	.LFE79:
 3797              		.align	2
 3798              		.global	TIM_OC2PolarityConfig
 3799              		.thumb
 3800              		.thumb_func
 3802              	TIM_OC2PolarityConfig:
 3803              	.LFB80:
1842:../lib/STM32F10x_StdPeriph_Driver/src/stm32f10x_tim.c **** 
1843:../lib/STM32F10x_StdPeriph_Driver/src/stm32f10x_tim.c **** /**
1844:../lib/STM32F10x_StdPeriph_Driver/src/stm32f10x_tim.c ****   * @brief  Configures the TIMx channel 2 polarity.
1845:../lib/STM32F10x_StdPeriph_Driver/src/stm32f10x_tim.c ****   * @param  TIMx: where x can be 1, 2, 3, 4, 5, 8, 9, 12 or 15 to select the TIM peripheral.
1846:../lib/STM32F10x_StdPeriph_Driver/src/stm32f10x_tim.c ****   * @param  TIM_OCPolarity: specifies the OC2 Polarity
1847:../lib/STM32F10x_StdPeriph_Driver/src/stm32f10x_tim.c ****   *   This parameter can be one of the following values:
1848:../lib/STM32F10x_StdPeriph_Driver/src/stm32f10x_tim.c ****   *     @arg TIM_OCPolarity_High: Output Compare active high
1849:../lib/STM32F10x_StdPeriph_Driver/src/stm32f10x_tim.c ****   *     @arg TIM_OCPolarity_Low: Output Compare active low
1850:../lib/STM32F10x_StdPeriph_Driver/src/stm32f10x_tim.c ****   * @retval None
1851:../lib/STM32F10x_StdPeriph_Driver/src/stm32f10x_tim.c ****   */
1852:../lib/STM32F10x_StdPeriph_Driver/src/stm32f10x_tim.c **** void TIM_OC2PolarityConfig(TIM_TypeDef* TIMx, uint16_t TIM_OCPolarity)
1853:../lib/STM32F10x_StdPeriph_Driver/src/stm32f10x_tim.c **** {
 3804              		.loc 1 1853 0
 3805              		.cfi_startproc
 3806              		@ args = 0, pretend = 0, frame = 16
 3807              		@ frame_needed = 1, uses_anonymous_args = 0
 3808              		@ link register save eliminated.
 3809 13e0 80B4     		push	{r7}
 3810              	.LCFI153:
 3811              		.cfi_def_cfa_offset 4
 3812              		.cfi_offset 7, -4
 3813 13e2 85B0     		sub	sp, sp, #20
 3814              	.LCFI154:
 3815              		.cfi_def_cfa_offset 24
 3816 13e4 00AF     		add	r7, sp, #0
 3817              	.LCFI155:
 3818              		.cfi_def_cfa_register 7
 3819 13e6 7860     		str	r0, [r7, #4]
 3820 13e8 0B46     		mov	r3, r1
 3821 13ea 7B80     		strh	r3, [r7, #2]	@ movhi
1854:../lib/STM32F10x_StdPeriph_Driver/src/stm32f10x_tim.c ****   uint16_t tmpccer = 0;
 3822              		.loc 1 1854 0
 3823 13ec 4FF00003 		mov	r3, #0
 3824 13f0 FB81     		strh	r3, [r7, #14]	@ movhi
1855:../lib/STM32F10x_StdPeriph_Driver/src/stm32f10x_tim.c ****   /* Check the parameters */
1856:../lib/STM32F10x_StdPeriph_Driver/src/stm32f10x_tim.c ****   assert_param(IS_TIM_LIST6_PERIPH(TIMx));
1857:../lib/STM32F10x_StdPeriph_Driver/src/stm32f10x_tim.c ****   assert_param(IS_TIM_OC_POLARITY(TIM_OCPolarity));
1858:../lib/STM32F10x_StdPeriph_Driver/src/stm32f10x_tim.c ****   tmpccer = TIMx->CCER;
 3825              		.loc 1 1858 0
 3826 13f2 7B68     		ldr	r3, [r7, #4]
 3827 13f4 1B8C     		ldrh	r3, [r3, #32]	@ movhi
 3828 13f6 FB81     		strh	r3, [r7, #14]	@ movhi
1859:../lib/STM32F10x_StdPeriph_Driver/src/stm32f10x_tim.c ****   /* Set or Reset the CC2P Bit */
1860:../lib/STM32F10x_StdPeriph_Driver/src/stm32f10x_tim.c ****   tmpccer &= (uint16_t)~((uint16_t)TIM_CCER_CC2P);
 3829              		.loc 1 1860 0
 3830 13f8 FB89     		ldrh	r3, [r7, #14]	@ movhi
 3831 13fa 23F02003 		bic	r3, r3, #32
 3832 13fe FB81     		strh	r3, [r7, #14]	@ movhi
1861:../lib/STM32F10x_StdPeriph_Driver/src/stm32f10x_tim.c ****   tmpccer |= (uint16_t)(TIM_OCPolarity << 4);
 3833              		.loc 1 1861 0
 3834 1400 7B88     		ldrh	r3, [r7, #2]	@ movhi
 3835 1402 4FEA0313 		lsl	r3, r3, #4
 3836 1406 9AB2     		uxth	r2, r3
 3837 1408 FB89     		ldrh	r3, [r7, #14]	@ movhi
 3838 140a 1343     		orrs	r3, r3, r2
 3839 140c FB81     		strh	r3, [r7, #14]	@ movhi
1862:../lib/STM32F10x_StdPeriph_Driver/src/stm32f10x_tim.c ****   /* Write to TIMx CCER register */
1863:../lib/STM32F10x_StdPeriph_Driver/src/stm32f10x_tim.c ****   TIMx->CCER = tmpccer;
 3840              		.loc 1 1863 0
 3841 140e 7B68     		ldr	r3, [r7, #4]
 3842 1410 FA89     		ldrh	r2, [r7, #14]	@ movhi
 3843 1412 1A84     		strh	r2, [r3, #32]	@ movhi
1864:../lib/STM32F10x_StdPeriph_Driver/src/stm32f10x_tim.c **** }
 3844              		.loc 1 1864 0
 3845 1414 07F11407 		add	r7, r7, #20
 3846 1418 BD46     		mov	sp, r7
 3847 141a 80BC     		pop	{r7}
 3848 141c 7047     		bx	lr
 3849              		.cfi_endproc
 3850              	.LFE80:
 3852 141e 00BF     		.align	2
 3853              		.global	TIM_OC2NPolarityConfig
 3854              		.thumb
 3855              		.thumb_func
 3857              	TIM_OC2NPolarityConfig:
 3858              	.LFB81:
1865:../lib/STM32F10x_StdPeriph_Driver/src/stm32f10x_tim.c **** 
1866:../lib/STM32F10x_StdPeriph_Driver/src/stm32f10x_tim.c **** /**
1867:../lib/STM32F10x_StdPeriph_Driver/src/stm32f10x_tim.c ****   * @brief  Configures the TIMx Channel 2N polarity.
1868:../lib/STM32F10x_StdPeriph_Driver/src/stm32f10x_tim.c ****   * @param  TIMx: where x can be 1 or 8 to select the TIM peripheral.
1869:../lib/STM32F10x_StdPeriph_Driver/src/stm32f10x_tim.c ****   * @param  TIM_OCNPolarity: specifies the OC2N Polarity
1870:../lib/STM32F10x_StdPeriph_Driver/src/stm32f10x_tim.c ****   *   This parameter can be one of the following values:
1871:../lib/STM32F10x_StdPeriph_Driver/src/stm32f10x_tim.c ****   *     @arg TIM_OCNPolarity_High: Output Compare active high
1872:../lib/STM32F10x_StdPeriph_Driver/src/stm32f10x_tim.c ****   *     @arg TIM_OCNPolarity_Low: Output Compare active low
1873:../lib/STM32F10x_StdPeriph_Driver/src/stm32f10x_tim.c ****   * @retval None
1874:../lib/STM32F10x_StdPeriph_Driver/src/stm32f10x_tim.c ****   */
1875:../lib/STM32F10x_StdPeriph_Driver/src/stm32f10x_tim.c **** void TIM_OC2NPolarityConfig(TIM_TypeDef* TIMx, uint16_t TIM_OCNPolarity)
1876:../lib/STM32F10x_StdPeriph_Driver/src/stm32f10x_tim.c **** {
 3859              		.loc 1 1876 0
 3860              		.cfi_startproc
 3861              		@ args = 0, pretend = 0, frame = 16
 3862              		@ frame_needed = 1, uses_anonymous_args = 0
 3863              		@ link register save eliminated.
 3864 1420 80B4     		push	{r7}
 3865              	.LCFI156:
 3866              		.cfi_def_cfa_offset 4
 3867              		.cfi_offset 7, -4
 3868 1422 85B0     		sub	sp, sp, #20
 3869              	.LCFI157:
 3870              		.cfi_def_cfa_offset 24
 3871 1424 00AF     		add	r7, sp, #0
 3872              	.LCFI158:
 3873              		.cfi_def_cfa_register 7
 3874 1426 7860     		str	r0, [r7, #4]
 3875 1428 0B46     		mov	r3, r1
 3876 142a 7B80     		strh	r3, [r7, #2]	@ movhi
1877:../lib/STM32F10x_StdPeriph_Driver/src/stm32f10x_tim.c ****   uint16_t tmpccer = 0;
 3877              		.loc 1 1877 0
 3878 142c 4FF00003 		mov	r3, #0
 3879 1430 FB81     		strh	r3, [r7, #14]	@ movhi
1878:../lib/STM32F10x_StdPeriph_Driver/src/stm32f10x_tim.c ****   /* Check the parameters */
1879:../lib/STM32F10x_StdPeriph_Driver/src/stm32f10x_tim.c ****   assert_param(IS_TIM_LIST1_PERIPH(TIMx));
1880:../lib/STM32F10x_StdPeriph_Driver/src/stm32f10x_tim.c ****   assert_param(IS_TIM_OCN_POLARITY(TIM_OCNPolarity));
1881:../lib/STM32F10x_StdPeriph_Driver/src/stm32f10x_tim.c ****   
1882:../lib/STM32F10x_StdPeriph_Driver/src/stm32f10x_tim.c ****   tmpccer = TIMx->CCER;
 3880              		.loc 1 1882 0
 3881 1432 7B68     		ldr	r3, [r7, #4]
 3882 1434 1B8C     		ldrh	r3, [r3, #32]	@ movhi
 3883 1436 FB81     		strh	r3, [r7, #14]	@ movhi
1883:../lib/STM32F10x_StdPeriph_Driver/src/stm32f10x_tim.c ****   /* Set or Reset the CC2NP Bit */
1884:../lib/STM32F10x_StdPeriph_Driver/src/stm32f10x_tim.c ****   tmpccer &= (uint16_t)~((uint16_t)TIM_CCER_CC2NP);
 3884              		.loc 1 1884 0
 3885 1438 FB89     		ldrh	r3, [r7, #14]	@ movhi
 3886 143a 23F08003 		bic	r3, r3, #128
 3887 143e FB81     		strh	r3, [r7, #14]	@ movhi
1885:../lib/STM32F10x_StdPeriph_Driver/src/stm32f10x_tim.c ****   tmpccer |= (uint16_t)(TIM_OCNPolarity << 4);
 3888              		.loc 1 1885 0
 3889 1440 7B88     		ldrh	r3, [r7, #2]	@ movhi
 3890 1442 4FEA0313 		lsl	r3, r3, #4
 3891 1446 9AB2     		uxth	r2, r3
 3892 1448 FB89     		ldrh	r3, [r7, #14]	@ movhi
 3893 144a 1343     		orrs	r3, r3, r2
 3894 144c FB81     		strh	r3, [r7, #14]	@ movhi
1886:../lib/STM32F10x_StdPeriph_Driver/src/stm32f10x_tim.c ****   /* Write to TIMx CCER register */
1887:../lib/STM32F10x_StdPeriph_Driver/src/stm32f10x_tim.c ****   TIMx->CCER = tmpccer;
 3895              		.loc 1 1887 0
 3896 144e 7B68     		ldr	r3, [r7, #4]
 3897 1450 FA89     		ldrh	r2, [r7, #14]	@ movhi
 3898 1452 1A84     		strh	r2, [r3, #32]	@ movhi
1888:../lib/STM32F10x_StdPeriph_Driver/src/stm32f10x_tim.c **** }
 3899              		.loc 1 1888 0
 3900 1454 07F11407 		add	r7, r7, #20
 3901 1458 BD46     		mov	sp, r7
 3902 145a 80BC     		pop	{r7}
 3903 145c 7047     		bx	lr
 3904              		.cfi_endproc
 3905              	.LFE81:
 3907 145e 00BF     		.align	2
 3908              		.global	TIM_OC3PolarityConfig
 3909              		.thumb
 3910              		.thumb_func
 3912              	TIM_OC3PolarityConfig:
 3913              	.LFB82:
1889:../lib/STM32F10x_StdPeriph_Driver/src/stm32f10x_tim.c **** 
1890:../lib/STM32F10x_StdPeriph_Driver/src/stm32f10x_tim.c **** /**
1891:../lib/STM32F10x_StdPeriph_Driver/src/stm32f10x_tim.c ****   * @brief  Configures the TIMx channel 3 polarity.
1892:../lib/STM32F10x_StdPeriph_Driver/src/stm32f10x_tim.c ****   * @param  TIMx: where x can be 1, 2, 3, 4, 5 or 8 to select the TIM peripheral.
1893:../lib/STM32F10x_StdPeriph_Driver/src/stm32f10x_tim.c ****   * @param  TIM_OCPolarity: specifies the OC3 Polarity
1894:../lib/STM32F10x_StdPeriph_Driver/src/stm32f10x_tim.c ****   *   This parameter can be one of the following values:
1895:../lib/STM32F10x_StdPeriph_Driver/src/stm32f10x_tim.c ****   *     @arg TIM_OCPolarity_High: Output Compare active high
1896:../lib/STM32F10x_StdPeriph_Driver/src/stm32f10x_tim.c ****   *     @arg TIM_OCPolarity_Low: Output Compare active low
1897:../lib/STM32F10x_StdPeriph_Driver/src/stm32f10x_tim.c ****   * @retval None
1898:../lib/STM32F10x_StdPeriph_Driver/src/stm32f10x_tim.c ****   */
1899:../lib/STM32F10x_StdPeriph_Driver/src/stm32f10x_tim.c **** void TIM_OC3PolarityConfig(TIM_TypeDef* TIMx, uint16_t TIM_OCPolarity)
1900:../lib/STM32F10x_StdPeriph_Driver/src/stm32f10x_tim.c **** {
 3914              		.loc 1 1900 0
 3915              		.cfi_startproc
 3916              		@ args = 0, pretend = 0, frame = 16
 3917              		@ frame_needed = 1, uses_anonymous_args = 0
 3918              		@ link register save eliminated.
 3919 1460 80B4     		push	{r7}
 3920              	.LCFI159:
 3921              		.cfi_def_cfa_offset 4
 3922              		.cfi_offset 7, -4
 3923 1462 85B0     		sub	sp, sp, #20
 3924              	.LCFI160:
 3925              		.cfi_def_cfa_offset 24
 3926 1464 00AF     		add	r7, sp, #0
 3927              	.LCFI161:
 3928              		.cfi_def_cfa_register 7
 3929 1466 7860     		str	r0, [r7, #4]
 3930 1468 0B46     		mov	r3, r1
 3931 146a 7B80     		strh	r3, [r7, #2]	@ movhi
1901:../lib/STM32F10x_StdPeriph_Driver/src/stm32f10x_tim.c ****   uint16_t tmpccer = 0;
 3932              		.loc 1 1901 0
 3933 146c 4FF00003 		mov	r3, #0
 3934 1470 FB81     		strh	r3, [r7, #14]	@ movhi
1902:../lib/STM32F10x_StdPeriph_Driver/src/stm32f10x_tim.c ****   /* Check the parameters */
1903:../lib/STM32F10x_StdPeriph_Driver/src/stm32f10x_tim.c ****   assert_param(IS_TIM_LIST3_PERIPH(TIMx));
1904:../lib/STM32F10x_StdPeriph_Driver/src/stm32f10x_tim.c ****   assert_param(IS_TIM_OC_POLARITY(TIM_OCPolarity));
1905:../lib/STM32F10x_StdPeriph_Driver/src/stm32f10x_tim.c ****   tmpccer = TIMx->CCER;
 3935              		.loc 1 1905 0
 3936 1472 7B68     		ldr	r3, [r7, #4]
 3937 1474 1B8C     		ldrh	r3, [r3, #32]	@ movhi
 3938 1476 FB81     		strh	r3, [r7, #14]	@ movhi
1906:../lib/STM32F10x_StdPeriph_Driver/src/stm32f10x_tim.c ****   /* Set or Reset the CC3P Bit */
1907:../lib/STM32F10x_StdPeriph_Driver/src/stm32f10x_tim.c ****   tmpccer &= (uint16_t)~((uint16_t)TIM_CCER_CC3P);
 3939              		.loc 1 1907 0
 3940 1478 FB89     		ldrh	r3, [r7, #14]	@ movhi
 3941 147a 23F40073 		bic	r3, r3, #512
 3942 147e FB81     		strh	r3, [r7, #14]	@ movhi
1908:../lib/STM32F10x_StdPeriph_Driver/src/stm32f10x_tim.c ****   tmpccer |= (uint16_t)(TIM_OCPolarity << 8);
 3943              		.loc 1 1908 0
 3944 1480 7B88     		ldrh	r3, [r7, #2]	@ movhi
 3945 1482 4FEA0323 		lsl	r3, r3, #8
 3946 1486 9AB2     		uxth	r2, r3
 3947 1488 FB89     		ldrh	r3, [r7, #14]	@ movhi
 3948 148a 1343     		orrs	r3, r3, r2
 3949 148c FB81     		strh	r3, [r7, #14]	@ movhi
1909:../lib/STM32F10x_StdPeriph_Driver/src/stm32f10x_tim.c ****   /* Write to TIMx CCER register */
1910:../lib/STM32F10x_StdPeriph_Driver/src/stm32f10x_tim.c ****   TIMx->CCER = tmpccer;
 3950              		.loc 1 1910 0
 3951 148e 7B68     		ldr	r3, [r7, #4]
 3952 1490 FA89     		ldrh	r2, [r7, #14]	@ movhi
 3953 1492 1A84     		strh	r2, [r3, #32]	@ movhi
1911:../lib/STM32F10x_StdPeriph_Driver/src/stm32f10x_tim.c **** }
 3954              		.loc 1 1911 0
 3955 1494 07F11407 		add	r7, r7, #20
 3956 1498 BD46     		mov	sp, r7
 3957 149a 80BC     		pop	{r7}
 3958 149c 7047     		bx	lr
 3959              		.cfi_endproc
 3960              	.LFE82:
 3962 149e 00BF     		.align	2
 3963              		.global	TIM_OC3NPolarityConfig
 3964              		.thumb
 3965              		.thumb_func
 3967              	TIM_OC3NPolarityConfig:
 3968              	.LFB83:
1912:../lib/STM32F10x_StdPeriph_Driver/src/stm32f10x_tim.c **** 
1913:../lib/STM32F10x_StdPeriph_Driver/src/stm32f10x_tim.c **** /**
1914:../lib/STM32F10x_StdPeriph_Driver/src/stm32f10x_tim.c ****   * @brief  Configures the TIMx Channel 3N polarity.
1915:../lib/STM32F10x_StdPeriph_Driver/src/stm32f10x_tim.c ****   * @param  TIMx: where x can be 1 or 8 to select the TIM peripheral.
1916:../lib/STM32F10x_StdPeriph_Driver/src/stm32f10x_tim.c ****   * @param  TIM_OCNPolarity: specifies the OC3N Polarity
1917:../lib/STM32F10x_StdPeriph_Driver/src/stm32f10x_tim.c ****   *   This parameter can be one of the following values:
1918:../lib/STM32F10x_StdPeriph_Driver/src/stm32f10x_tim.c ****   *     @arg TIM_OCNPolarity_High: Output Compare active high
1919:../lib/STM32F10x_StdPeriph_Driver/src/stm32f10x_tim.c ****   *     @arg TIM_OCNPolarity_Low: Output Compare active low
1920:../lib/STM32F10x_StdPeriph_Driver/src/stm32f10x_tim.c ****   * @retval None
1921:../lib/STM32F10x_StdPeriph_Driver/src/stm32f10x_tim.c ****   */
1922:../lib/STM32F10x_StdPeriph_Driver/src/stm32f10x_tim.c **** void TIM_OC3NPolarityConfig(TIM_TypeDef* TIMx, uint16_t TIM_OCNPolarity)
1923:../lib/STM32F10x_StdPeriph_Driver/src/stm32f10x_tim.c **** {
 3969              		.loc 1 1923 0
 3970              		.cfi_startproc
 3971              		@ args = 0, pretend = 0, frame = 16
 3972              		@ frame_needed = 1, uses_anonymous_args = 0
 3973              		@ link register save eliminated.
 3974 14a0 80B4     		push	{r7}
 3975              	.LCFI162:
 3976              		.cfi_def_cfa_offset 4
 3977              		.cfi_offset 7, -4
 3978 14a2 85B0     		sub	sp, sp, #20
 3979              	.LCFI163:
 3980              		.cfi_def_cfa_offset 24
 3981 14a4 00AF     		add	r7, sp, #0
 3982              	.LCFI164:
 3983              		.cfi_def_cfa_register 7
 3984 14a6 7860     		str	r0, [r7, #4]
 3985 14a8 0B46     		mov	r3, r1
 3986 14aa 7B80     		strh	r3, [r7, #2]	@ movhi
1924:../lib/STM32F10x_StdPeriph_Driver/src/stm32f10x_tim.c ****   uint16_t tmpccer = 0;
 3987              		.loc 1 1924 0
 3988 14ac 4FF00003 		mov	r3, #0
 3989 14b0 FB81     		strh	r3, [r7, #14]	@ movhi
1925:../lib/STM32F10x_StdPeriph_Driver/src/stm32f10x_tim.c ****  
1926:../lib/STM32F10x_StdPeriph_Driver/src/stm32f10x_tim.c ****   /* Check the parameters */
1927:../lib/STM32F10x_StdPeriph_Driver/src/stm32f10x_tim.c ****   assert_param(IS_TIM_LIST1_PERIPH(TIMx));
1928:../lib/STM32F10x_StdPeriph_Driver/src/stm32f10x_tim.c ****   assert_param(IS_TIM_OCN_POLARITY(TIM_OCNPolarity));
1929:../lib/STM32F10x_StdPeriph_Driver/src/stm32f10x_tim.c ****     
1930:../lib/STM32F10x_StdPeriph_Driver/src/stm32f10x_tim.c ****   tmpccer = TIMx->CCER;
 3990              		.loc 1 1930 0
 3991 14b2 7B68     		ldr	r3, [r7, #4]
 3992 14b4 1B8C     		ldrh	r3, [r3, #32]	@ movhi
 3993 14b6 FB81     		strh	r3, [r7, #14]	@ movhi
1931:../lib/STM32F10x_StdPeriph_Driver/src/stm32f10x_tim.c ****   /* Set or Reset the CC3NP Bit */
1932:../lib/STM32F10x_StdPeriph_Driver/src/stm32f10x_tim.c ****   tmpccer &= (uint16_t)~((uint16_t)TIM_CCER_CC3NP);
 3994              		.loc 1 1932 0
 3995 14b8 FB89     		ldrh	r3, [r7, #14]	@ movhi
 3996 14ba 23F40063 		bic	r3, r3, #2048
 3997 14be FB81     		strh	r3, [r7, #14]	@ movhi
1933:../lib/STM32F10x_StdPeriph_Driver/src/stm32f10x_tim.c ****   tmpccer |= (uint16_t)(TIM_OCNPolarity << 8);
 3998              		.loc 1 1933 0
 3999 14c0 7B88     		ldrh	r3, [r7, #2]	@ movhi
 4000 14c2 4FEA0323 		lsl	r3, r3, #8
 4001 14c6 9AB2     		uxth	r2, r3
 4002 14c8 FB89     		ldrh	r3, [r7, #14]	@ movhi
 4003 14ca 1343     		orrs	r3, r3, r2
 4004 14cc FB81     		strh	r3, [r7, #14]	@ movhi
1934:../lib/STM32F10x_StdPeriph_Driver/src/stm32f10x_tim.c ****   /* Write to TIMx CCER register */
1935:../lib/STM32F10x_StdPeriph_Driver/src/stm32f10x_tim.c ****   TIMx->CCER = tmpccer;
 4005              		.loc 1 1935 0
 4006 14ce 7B68     		ldr	r3, [r7, #4]
 4007 14d0 FA89     		ldrh	r2, [r7, #14]	@ movhi
 4008 14d2 1A84     		strh	r2, [r3, #32]	@ movhi
1936:../lib/STM32F10x_StdPeriph_Driver/src/stm32f10x_tim.c **** }
 4009              		.loc 1 1936 0
 4010 14d4 07F11407 		add	r7, r7, #20
 4011 14d8 BD46     		mov	sp, r7
 4012 14da 80BC     		pop	{r7}
 4013 14dc 7047     		bx	lr
 4014              		.cfi_endproc
 4015              	.LFE83:
 4017 14de 00BF     		.align	2
 4018              		.global	TIM_OC4PolarityConfig
 4019              		.thumb
 4020              		.thumb_func
 4022              	TIM_OC4PolarityConfig:
 4023              	.LFB84:
1937:../lib/STM32F10x_StdPeriph_Driver/src/stm32f10x_tim.c **** 
1938:../lib/STM32F10x_StdPeriph_Driver/src/stm32f10x_tim.c **** /**
1939:../lib/STM32F10x_StdPeriph_Driver/src/stm32f10x_tim.c ****   * @brief  Configures the TIMx channel 4 polarity.
1940:../lib/STM32F10x_StdPeriph_Driver/src/stm32f10x_tim.c ****   * @param  TIMx: where x can be 1, 2, 3, 4, 5 or 8 to select the TIM peripheral.
1941:../lib/STM32F10x_StdPeriph_Driver/src/stm32f10x_tim.c ****   * @param  TIM_OCPolarity: specifies the OC4 Polarity
1942:../lib/STM32F10x_StdPeriph_Driver/src/stm32f10x_tim.c ****   *   This parameter can be one of the following values:
1943:../lib/STM32F10x_StdPeriph_Driver/src/stm32f10x_tim.c ****   *     @arg TIM_OCPolarity_High: Output Compare active high
1944:../lib/STM32F10x_StdPeriph_Driver/src/stm32f10x_tim.c ****   *     @arg TIM_OCPolarity_Low: Output Compare active low
1945:../lib/STM32F10x_StdPeriph_Driver/src/stm32f10x_tim.c ****   * @retval None
1946:../lib/STM32F10x_StdPeriph_Driver/src/stm32f10x_tim.c ****   */
1947:../lib/STM32F10x_StdPeriph_Driver/src/stm32f10x_tim.c **** void TIM_OC4PolarityConfig(TIM_TypeDef* TIMx, uint16_t TIM_OCPolarity)
1948:../lib/STM32F10x_StdPeriph_Driver/src/stm32f10x_tim.c **** {
 4024              		.loc 1 1948 0
 4025              		.cfi_startproc
 4026              		@ args = 0, pretend = 0, frame = 16
 4027              		@ frame_needed = 1, uses_anonymous_args = 0
 4028              		@ link register save eliminated.
 4029 14e0 80B4     		push	{r7}
 4030              	.LCFI165:
 4031              		.cfi_def_cfa_offset 4
 4032              		.cfi_offset 7, -4
 4033 14e2 85B0     		sub	sp, sp, #20
 4034              	.LCFI166:
 4035              		.cfi_def_cfa_offset 24
 4036 14e4 00AF     		add	r7, sp, #0
 4037              	.LCFI167:
 4038              		.cfi_def_cfa_register 7
 4039 14e6 7860     		str	r0, [r7, #4]
 4040 14e8 0B46     		mov	r3, r1
 4041 14ea 7B80     		strh	r3, [r7, #2]	@ movhi
1949:../lib/STM32F10x_StdPeriph_Driver/src/stm32f10x_tim.c ****   uint16_t tmpccer = 0;
 4042              		.loc 1 1949 0
 4043 14ec 4FF00003 		mov	r3, #0
 4044 14f0 FB81     		strh	r3, [r7, #14]	@ movhi
1950:../lib/STM32F10x_StdPeriph_Driver/src/stm32f10x_tim.c ****   /* Check the parameters */
1951:../lib/STM32F10x_StdPeriph_Driver/src/stm32f10x_tim.c ****   assert_param(IS_TIM_LIST3_PERIPH(TIMx));
1952:../lib/STM32F10x_StdPeriph_Driver/src/stm32f10x_tim.c ****   assert_param(IS_TIM_OC_POLARITY(TIM_OCPolarity));
1953:../lib/STM32F10x_StdPeriph_Driver/src/stm32f10x_tim.c ****   tmpccer = TIMx->CCER;
 4045              		.loc 1 1953 0
 4046 14f2 7B68     		ldr	r3, [r7, #4]
 4047 14f4 1B8C     		ldrh	r3, [r3, #32]	@ movhi
 4048 14f6 FB81     		strh	r3, [r7, #14]	@ movhi
1954:../lib/STM32F10x_StdPeriph_Driver/src/stm32f10x_tim.c ****   /* Set or Reset the CC4P Bit */
1955:../lib/STM32F10x_StdPeriph_Driver/src/stm32f10x_tim.c ****   tmpccer &= (uint16_t)~((uint16_t)TIM_CCER_CC4P);
 4049              		.loc 1 1955 0
 4050 14f8 FB89     		ldrh	r3, [r7, #14]	@ movhi
 4051 14fa 23F40053 		bic	r3, r3, #8192
 4052 14fe FB81     		strh	r3, [r7, #14]	@ movhi
1956:../lib/STM32F10x_StdPeriph_Driver/src/stm32f10x_tim.c ****   tmpccer |= (uint16_t)(TIM_OCPolarity << 12);
 4053              		.loc 1 1956 0
 4054 1500 7B88     		ldrh	r3, [r7, #2]	@ movhi
 4055 1502 4FEA0333 		lsl	r3, r3, #12
 4056 1506 9AB2     		uxth	r2, r3
 4057 1508 FB89     		ldrh	r3, [r7, #14]	@ movhi
 4058 150a 1343     		orrs	r3, r3, r2
 4059 150c FB81     		strh	r3, [r7, #14]	@ movhi
1957:../lib/STM32F10x_StdPeriph_Driver/src/stm32f10x_tim.c ****   /* Write to TIMx CCER register */
1958:../lib/STM32F10x_StdPeriph_Driver/src/stm32f10x_tim.c ****   TIMx->CCER = tmpccer;
 4060              		.loc 1 1958 0
 4061 150e 7B68     		ldr	r3, [r7, #4]
 4062 1510 FA89     		ldrh	r2, [r7, #14]	@ movhi
 4063 1512 1A84     		strh	r2, [r3, #32]	@ movhi
1959:../lib/STM32F10x_StdPeriph_Driver/src/stm32f10x_tim.c **** }
 4064              		.loc 1 1959 0
 4065 1514 07F11407 		add	r7, r7, #20
 4066 1518 BD46     		mov	sp, r7
 4067 151a 80BC     		pop	{r7}
 4068 151c 7047     		bx	lr
 4069              		.cfi_endproc
 4070              	.LFE84:
 4072 151e 00BF     		.align	2
 4073              		.global	TIM_CCxCmd
 4074              		.thumb
 4075              		.thumb_func
 4077              	TIM_CCxCmd:
 4078              	.LFB85:
1960:../lib/STM32F10x_StdPeriph_Driver/src/stm32f10x_tim.c **** 
1961:../lib/STM32F10x_StdPeriph_Driver/src/stm32f10x_tim.c **** /**
1962:../lib/STM32F10x_StdPeriph_Driver/src/stm32f10x_tim.c ****   * @brief  Enables or disables the TIM Capture Compare Channel x.
1963:../lib/STM32F10x_StdPeriph_Driver/src/stm32f10x_tim.c ****   * @param  TIMx: where x can be 1 to 17 except 6 and 7 to select the TIM peripheral.
1964:../lib/STM32F10x_StdPeriph_Driver/src/stm32f10x_tim.c ****   * @param  TIM_Channel: specifies the TIM Channel
1965:../lib/STM32F10x_StdPeriph_Driver/src/stm32f10x_tim.c ****   *   This parameter can be one of the following values:
1966:../lib/STM32F10x_StdPeriph_Driver/src/stm32f10x_tim.c ****   *     @arg TIM_Channel_1: TIM Channel 1
1967:../lib/STM32F10x_StdPeriph_Driver/src/stm32f10x_tim.c ****   *     @arg TIM_Channel_2: TIM Channel 2
1968:../lib/STM32F10x_StdPeriph_Driver/src/stm32f10x_tim.c ****   *     @arg TIM_Channel_3: TIM Channel 3
1969:../lib/STM32F10x_StdPeriph_Driver/src/stm32f10x_tim.c ****   *     @arg TIM_Channel_4: TIM Channel 4
1970:../lib/STM32F10x_StdPeriph_Driver/src/stm32f10x_tim.c ****   * @param  TIM_CCx: specifies the TIM Channel CCxE bit new state.
1971:../lib/STM32F10x_StdPeriph_Driver/src/stm32f10x_tim.c ****   *   This parameter can be: TIM_CCx_Enable or TIM_CCx_Disable. 
1972:../lib/STM32F10x_StdPeriph_Driver/src/stm32f10x_tim.c ****   * @retval None
1973:../lib/STM32F10x_StdPeriph_Driver/src/stm32f10x_tim.c ****   */
1974:../lib/STM32F10x_StdPeriph_Driver/src/stm32f10x_tim.c **** void TIM_CCxCmd(TIM_TypeDef* TIMx, uint16_t TIM_Channel, uint16_t TIM_CCx)
1975:../lib/STM32F10x_StdPeriph_Driver/src/stm32f10x_tim.c **** {
 4079              		.loc 1 1975 0
 4080              		.cfi_startproc
 4081              		@ args = 0, pretend = 0, frame = 16
 4082              		@ frame_needed = 1, uses_anonymous_args = 0
 4083              		@ link register save eliminated.
 4084 1520 80B4     		push	{r7}
 4085              	.LCFI168:
 4086              		.cfi_def_cfa_offset 4
 4087              		.cfi_offset 7, -4
 4088 1522 85B0     		sub	sp, sp, #20
 4089              	.LCFI169:
 4090              		.cfi_def_cfa_offset 24
 4091 1524 00AF     		add	r7, sp, #0
 4092              	.LCFI170:
 4093              		.cfi_def_cfa_register 7
 4094 1526 7860     		str	r0, [r7, #4]
 4095 1528 1346     		mov	r3, r2
 4096 152a 0A46     		mov	r2, r1	@ movhi
 4097 152c 7A80     		strh	r2, [r7, #2]	@ movhi
 4098 152e 3B80     		strh	r3, [r7, #0]	@ movhi
1976:../lib/STM32F10x_StdPeriph_Driver/src/stm32f10x_tim.c ****   uint16_t tmp = 0;
 4099              		.loc 1 1976 0
 4100 1530 4FF00003 		mov	r3, #0
 4101 1534 FB81     		strh	r3, [r7, #14]	@ movhi
1977:../lib/STM32F10x_StdPeriph_Driver/src/stm32f10x_tim.c **** 
1978:../lib/STM32F10x_StdPeriph_Driver/src/stm32f10x_tim.c ****   /* Check the parameters */
1979:../lib/STM32F10x_StdPeriph_Driver/src/stm32f10x_tim.c ****   assert_param(IS_TIM_LIST8_PERIPH(TIMx));
1980:../lib/STM32F10x_StdPeriph_Driver/src/stm32f10x_tim.c ****   assert_param(IS_TIM_CHANNEL(TIM_Channel));
1981:../lib/STM32F10x_StdPeriph_Driver/src/stm32f10x_tim.c ****   assert_param(IS_TIM_CCX(TIM_CCx));
1982:../lib/STM32F10x_StdPeriph_Driver/src/stm32f10x_tim.c **** 
1983:../lib/STM32F10x_StdPeriph_Driver/src/stm32f10x_tim.c ****   tmp = CCER_CCE_Set << TIM_Channel;
 4102              		.loc 1 1983 0
 4103 1536 7B88     		ldrh	r3, [r7, #2]
 4104 1538 4FF00102 		mov	r2, #1
 4105 153c 02FA03F3 		lsl	r3, r2, r3
 4106 1540 FB81     		strh	r3, [r7, #14]	@ movhi
1984:../lib/STM32F10x_StdPeriph_Driver/src/stm32f10x_tim.c **** 
1985:../lib/STM32F10x_StdPeriph_Driver/src/stm32f10x_tim.c ****   /* Reset the CCxE Bit */
1986:../lib/STM32F10x_StdPeriph_Driver/src/stm32f10x_tim.c ****   TIMx->CCER &= (uint16_t)~ tmp;
 4107              		.loc 1 1986 0
 4108 1542 7B68     		ldr	r3, [r7, #4]
 4109 1544 1B8C     		ldrh	r3, [r3, #32]	@ movhi
 4110 1546 9AB2     		uxth	r2, r3
 4111 1548 FB89     		ldrh	r3, [r7, #14]	@ movhi
 4112 154a 6FEA0303 		mvn	r3, r3
 4113 154e 9BB2     		uxth	r3, r3
 4114 1550 1340     		ands	r3, r3, r2
 4115 1552 9AB2     		uxth	r2, r3
 4116 1554 7B68     		ldr	r3, [r7, #4]
 4117 1556 1A84     		strh	r2, [r3, #32]	@ movhi
1987:../lib/STM32F10x_StdPeriph_Driver/src/stm32f10x_tim.c **** 
1988:../lib/STM32F10x_StdPeriph_Driver/src/stm32f10x_tim.c ****   /* Set or reset the CCxE Bit */ 
1989:../lib/STM32F10x_StdPeriph_Driver/src/stm32f10x_tim.c ****   TIMx->CCER |=  (uint16_t)(TIM_CCx << TIM_Channel);
 4118              		.loc 1 1989 0
 4119 1558 7B68     		ldr	r3, [r7, #4]
 4120 155a 1B8C     		ldrh	r3, [r3, #32]	@ movhi
 4121 155c 9AB2     		uxth	r2, r3
 4122 155e 3988     		ldrh	r1, [r7, #0]
 4123 1560 7B88     		ldrh	r3, [r7, #2]
 4124 1562 01FA03F3 		lsl	r3, r1, r3
 4125 1566 9BB2     		uxth	r3, r3
 4126 1568 1343     		orrs	r3, r3, r2
 4127 156a 9AB2     		uxth	r2, r3
 4128 156c 7B68     		ldr	r3, [r7, #4]
 4129 156e 1A84     		strh	r2, [r3, #32]	@ movhi
1990:../lib/STM32F10x_StdPeriph_Driver/src/stm32f10x_tim.c **** }
 4130              		.loc 1 1990 0
 4131 1570 07F11407 		add	r7, r7, #20
 4132 1574 BD46     		mov	sp, r7
 4133 1576 80BC     		pop	{r7}
 4134 1578 7047     		bx	lr
 4135              		.cfi_endproc
 4136              	.LFE85:
 4138 157a 00BF     		.align	2
 4139              		.global	TIM_CCxNCmd
 4140              		.thumb
 4141              		.thumb_func
 4143              	TIM_CCxNCmd:
 4144              	.LFB86:
1991:../lib/STM32F10x_StdPeriph_Driver/src/stm32f10x_tim.c **** 
1992:../lib/STM32F10x_StdPeriph_Driver/src/stm32f10x_tim.c **** /**
1993:../lib/STM32F10x_StdPeriph_Driver/src/stm32f10x_tim.c ****   * @brief  Enables or disables the TIM Capture Compare Channel xN.
1994:../lib/STM32F10x_StdPeriph_Driver/src/stm32f10x_tim.c ****   * @param  TIMx: where x can be 1, 8, 15, 16 or 17 to select the TIM peripheral.
1995:../lib/STM32F10x_StdPeriph_Driver/src/stm32f10x_tim.c ****   * @param  TIM_Channel: specifies the TIM Channel
1996:../lib/STM32F10x_StdPeriph_Driver/src/stm32f10x_tim.c ****   *   This parameter can be one of the following values:
1997:../lib/STM32F10x_StdPeriph_Driver/src/stm32f10x_tim.c ****   *     @arg TIM_Channel_1: TIM Channel 1
1998:../lib/STM32F10x_StdPeriph_Driver/src/stm32f10x_tim.c ****   *     @arg TIM_Channel_2: TIM Channel 2
1999:../lib/STM32F10x_StdPeriph_Driver/src/stm32f10x_tim.c ****   *     @arg TIM_Channel_3: TIM Channel 3
2000:../lib/STM32F10x_StdPeriph_Driver/src/stm32f10x_tim.c ****   * @param  TIM_CCxN: specifies the TIM Channel CCxNE bit new state.
2001:../lib/STM32F10x_StdPeriph_Driver/src/stm32f10x_tim.c ****   *   This parameter can be: TIM_CCxN_Enable or TIM_CCxN_Disable. 
2002:../lib/STM32F10x_StdPeriph_Driver/src/stm32f10x_tim.c ****   * @retval None
2003:../lib/STM32F10x_StdPeriph_Driver/src/stm32f10x_tim.c ****   */
2004:../lib/STM32F10x_StdPeriph_Driver/src/stm32f10x_tim.c **** void TIM_CCxNCmd(TIM_TypeDef* TIMx, uint16_t TIM_Channel, uint16_t TIM_CCxN)
2005:../lib/STM32F10x_StdPeriph_Driver/src/stm32f10x_tim.c **** {
 4145              		.loc 1 2005 0
 4146              		.cfi_startproc
 4147              		@ args = 0, pretend = 0, frame = 16
 4148              		@ frame_needed = 1, uses_anonymous_args = 0
 4149              		@ link register save eliminated.
 4150 157c 80B4     		push	{r7}
 4151              	.LCFI171:
 4152              		.cfi_def_cfa_offset 4
 4153              		.cfi_offset 7, -4
 4154 157e 85B0     		sub	sp, sp, #20
 4155              	.LCFI172:
 4156              		.cfi_def_cfa_offset 24
 4157 1580 00AF     		add	r7, sp, #0
 4158              	.LCFI173:
 4159              		.cfi_def_cfa_register 7
 4160 1582 7860     		str	r0, [r7, #4]
 4161 1584 1346     		mov	r3, r2
 4162 1586 0A46     		mov	r2, r1	@ movhi
 4163 1588 7A80     		strh	r2, [r7, #2]	@ movhi
 4164 158a 3B80     		strh	r3, [r7, #0]	@ movhi
2006:../lib/STM32F10x_StdPeriph_Driver/src/stm32f10x_tim.c ****   uint16_t tmp = 0;
 4165              		.loc 1 2006 0
 4166 158c 4FF00003 		mov	r3, #0
 4167 1590 FB81     		strh	r3, [r7, #14]	@ movhi
2007:../lib/STM32F10x_StdPeriph_Driver/src/stm32f10x_tim.c **** 
2008:../lib/STM32F10x_StdPeriph_Driver/src/stm32f10x_tim.c ****   /* Check the parameters */
2009:../lib/STM32F10x_StdPeriph_Driver/src/stm32f10x_tim.c ****   assert_param(IS_TIM_LIST2_PERIPH(TIMx));
2010:../lib/STM32F10x_StdPeriph_Driver/src/stm32f10x_tim.c ****   assert_param(IS_TIM_COMPLEMENTARY_CHANNEL(TIM_Channel));
2011:../lib/STM32F10x_StdPeriph_Driver/src/stm32f10x_tim.c ****   assert_param(IS_TIM_CCXN(TIM_CCxN));
2012:../lib/STM32F10x_StdPeriph_Driver/src/stm32f10x_tim.c **** 
2013:../lib/STM32F10x_StdPeriph_Driver/src/stm32f10x_tim.c ****   tmp = CCER_CCNE_Set << TIM_Channel;
 4168              		.loc 1 2013 0
 4169 1592 7B88     		ldrh	r3, [r7, #2]
 4170 1594 4FF00402 		mov	r2, #4
 4171 1598 02FA03F3 		lsl	r3, r2, r3
 4172 159c FB81     		strh	r3, [r7, #14]	@ movhi
2014:../lib/STM32F10x_StdPeriph_Driver/src/stm32f10x_tim.c **** 
2015:../lib/STM32F10x_StdPeriph_Driver/src/stm32f10x_tim.c ****   /* Reset the CCxNE Bit */
2016:../lib/STM32F10x_StdPeriph_Driver/src/stm32f10x_tim.c ****   TIMx->CCER &= (uint16_t) ~tmp;
 4173              		.loc 1 2016 0
 4174 159e 7B68     		ldr	r3, [r7, #4]
 4175 15a0 1B8C     		ldrh	r3, [r3, #32]	@ movhi
 4176 15a2 9AB2     		uxth	r2, r3
 4177 15a4 FB89     		ldrh	r3, [r7, #14]	@ movhi
 4178 15a6 6FEA0303 		mvn	r3, r3
 4179 15aa 9BB2     		uxth	r3, r3
 4180 15ac 1340     		ands	r3, r3, r2
 4181 15ae 9AB2     		uxth	r2, r3
 4182 15b0 7B68     		ldr	r3, [r7, #4]
 4183 15b2 1A84     		strh	r2, [r3, #32]	@ movhi
2017:../lib/STM32F10x_StdPeriph_Driver/src/stm32f10x_tim.c **** 
2018:../lib/STM32F10x_StdPeriph_Driver/src/stm32f10x_tim.c ****   /* Set or reset the CCxNE Bit */ 
2019:../lib/STM32F10x_StdPeriph_Driver/src/stm32f10x_tim.c ****   TIMx->CCER |=  (uint16_t)(TIM_CCxN << TIM_Channel);
 4184              		.loc 1 2019 0
 4185 15b4 7B68     		ldr	r3, [r7, #4]
 4186 15b6 1B8C     		ldrh	r3, [r3, #32]	@ movhi
 4187 15b8 9AB2     		uxth	r2, r3
 4188 15ba 3988     		ldrh	r1, [r7, #0]
 4189 15bc 7B88     		ldrh	r3, [r7, #2]
 4190 15be 01FA03F3 		lsl	r3, r1, r3
 4191 15c2 9BB2     		uxth	r3, r3
 4192 15c4 1343     		orrs	r3, r3, r2
 4193 15c6 9AB2     		uxth	r2, r3
 4194 15c8 7B68     		ldr	r3, [r7, #4]
 4195 15ca 1A84     		strh	r2, [r3, #32]	@ movhi
2020:../lib/STM32F10x_StdPeriph_Driver/src/stm32f10x_tim.c **** }
 4196              		.loc 1 2020 0
 4197 15cc 07F11407 		add	r7, r7, #20
 4198 15d0 BD46     		mov	sp, r7
 4199 15d2 80BC     		pop	{r7}
 4200 15d4 7047     		bx	lr
 4201              		.cfi_endproc
 4202              	.LFE86:
 4204 15d6 00BF     		.align	2
 4205              		.global	TIM_SelectOCxM
 4206              		.thumb
 4207              		.thumb_func
 4209              	TIM_SelectOCxM:
 4210              	.LFB87:
2021:../lib/STM32F10x_StdPeriph_Driver/src/stm32f10x_tim.c **** 
2022:../lib/STM32F10x_StdPeriph_Driver/src/stm32f10x_tim.c **** /**
2023:../lib/STM32F10x_StdPeriph_Driver/src/stm32f10x_tim.c ****   * @brief  Selects the TIM Output Compare Mode.
2024:../lib/STM32F10x_StdPeriph_Driver/src/stm32f10x_tim.c ****   * @note   This function disables the selected channel before changing the Output
2025:../lib/STM32F10x_StdPeriph_Driver/src/stm32f10x_tim.c ****   *         Compare Mode.
2026:../lib/STM32F10x_StdPeriph_Driver/src/stm32f10x_tim.c ****   *         User has to enable this channel using TIM_CCxCmd and TIM_CCxNCmd functions.
2027:../lib/STM32F10x_StdPeriph_Driver/src/stm32f10x_tim.c ****   * @param  TIMx: where x can be 1 to 17 except 6 and 7 to select the TIM peripheral.
2028:../lib/STM32F10x_StdPeriph_Driver/src/stm32f10x_tim.c ****   * @param  TIM_Channel: specifies the TIM Channel
2029:../lib/STM32F10x_StdPeriph_Driver/src/stm32f10x_tim.c ****   *   This parameter can be one of the following values:
2030:../lib/STM32F10x_StdPeriph_Driver/src/stm32f10x_tim.c ****   *     @arg TIM_Channel_1: TIM Channel 1
2031:../lib/STM32F10x_StdPeriph_Driver/src/stm32f10x_tim.c ****   *     @arg TIM_Channel_2: TIM Channel 2
2032:../lib/STM32F10x_StdPeriph_Driver/src/stm32f10x_tim.c ****   *     @arg TIM_Channel_3: TIM Channel 3
2033:../lib/STM32F10x_StdPeriph_Driver/src/stm32f10x_tim.c ****   *     @arg TIM_Channel_4: TIM Channel 4
2034:../lib/STM32F10x_StdPeriph_Driver/src/stm32f10x_tim.c ****   * @param  TIM_OCMode: specifies the TIM Output Compare Mode.
2035:../lib/STM32F10x_StdPeriph_Driver/src/stm32f10x_tim.c ****   *   This parameter can be one of the following values:
2036:../lib/STM32F10x_StdPeriph_Driver/src/stm32f10x_tim.c ****   *     @arg TIM_OCMode_Timing
2037:../lib/STM32F10x_StdPeriph_Driver/src/stm32f10x_tim.c ****   *     @arg TIM_OCMode_Active
2038:../lib/STM32F10x_StdPeriph_Driver/src/stm32f10x_tim.c ****   *     @arg TIM_OCMode_Toggle
2039:../lib/STM32F10x_StdPeriph_Driver/src/stm32f10x_tim.c ****   *     @arg TIM_OCMode_PWM1
2040:../lib/STM32F10x_StdPeriph_Driver/src/stm32f10x_tim.c ****   *     @arg TIM_OCMode_PWM2
2041:../lib/STM32F10x_StdPeriph_Driver/src/stm32f10x_tim.c ****   *     @arg TIM_ForcedAction_Active
2042:../lib/STM32F10x_StdPeriph_Driver/src/stm32f10x_tim.c ****   *     @arg TIM_ForcedAction_InActive
2043:../lib/STM32F10x_StdPeriph_Driver/src/stm32f10x_tim.c ****   * @retval None
2044:../lib/STM32F10x_StdPeriph_Driver/src/stm32f10x_tim.c ****   */
2045:../lib/STM32F10x_StdPeriph_Driver/src/stm32f10x_tim.c **** void TIM_SelectOCxM(TIM_TypeDef* TIMx, uint16_t TIM_Channel, uint16_t TIM_OCMode)
2046:../lib/STM32F10x_StdPeriph_Driver/src/stm32f10x_tim.c **** {
 4211              		.loc 1 2046 0
 4212              		.cfi_startproc
 4213              		@ args = 0, pretend = 0, frame = 16
 4214              		@ frame_needed = 1, uses_anonymous_args = 0
 4215              		@ link register save eliminated.
 4216 15d8 80B4     		push	{r7}
 4217              	.LCFI174:
 4218              		.cfi_def_cfa_offset 4
 4219              		.cfi_offset 7, -4
 4220 15da 85B0     		sub	sp, sp, #20
 4221              	.LCFI175:
 4222              		.cfi_def_cfa_offset 24
 4223 15dc 00AF     		add	r7, sp, #0
 4224              	.LCFI176:
 4225              		.cfi_def_cfa_register 7
 4226 15de 7860     		str	r0, [r7, #4]
 4227 15e0 1346     		mov	r3, r2
 4228 15e2 0A46     		mov	r2, r1	@ movhi
 4229 15e4 7A80     		strh	r2, [r7, #2]	@ movhi
 4230 15e6 3B80     		strh	r3, [r7, #0]	@ movhi
2047:../lib/STM32F10x_StdPeriph_Driver/src/stm32f10x_tim.c ****   uint32_t tmp = 0;
 4231              		.loc 1 2047 0
 4232 15e8 4FF00003 		mov	r3, #0
 4233 15ec FB60     		str	r3, [r7, #12]
2048:../lib/STM32F10x_StdPeriph_Driver/src/stm32f10x_tim.c ****   uint16_t tmp1 = 0;
 4234              		.loc 1 2048 0
 4235 15ee 4FF00003 		mov	r3, #0
 4236 15f2 7B81     		strh	r3, [r7, #10]	@ movhi
2049:../lib/STM32F10x_StdPeriph_Driver/src/stm32f10x_tim.c **** 
2050:../lib/STM32F10x_StdPeriph_Driver/src/stm32f10x_tim.c ****   /* Check the parameters */
2051:../lib/STM32F10x_StdPeriph_Driver/src/stm32f10x_tim.c ****   assert_param(IS_TIM_LIST8_PERIPH(TIMx));
2052:../lib/STM32F10x_StdPeriph_Driver/src/stm32f10x_tim.c ****   assert_param(IS_TIM_CHANNEL(TIM_Channel));
2053:../lib/STM32F10x_StdPeriph_Driver/src/stm32f10x_tim.c ****   assert_param(IS_TIM_OCM(TIM_OCMode));
2054:../lib/STM32F10x_StdPeriph_Driver/src/stm32f10x_tim.c **** 
2055:../lib/STM32F10x_StdPeriph_Driver/src/stm32f10x_tim.c ****   tmp = (uint32_t) TIMx;
 4237              		.loc 1 2055 0
 4238 15f4 7B68     		ldr	r3, [r7, #4]
 4239 15f6 FB60     		str	r3, [r7, #12]
2056:../lib/STM32F10x_StdPeriph_Driver/src/stm32f10x_tim.c ****   tmp += CCMR_Offset;
 4240              		.loc 1 2056 0
 4241 15f8 FB68     		ldr	r3, [r7, #12]
 4242 15fa 03F11803 		add	r3, r3, #24
 4243 15fe FB60     		str	r3, [r7, #12]
2057:../lib/STM32F10x_StdPeriph_Driver/src/stm32f10x_tim.c **** 
2058:../lib/STM32F10x_StdPeriph_Driver/src/stm32f10x_tim.c ****   tmp1 = CCER_CCE_Set << (uint16_t)TIM_Channel;
 4244              		.loc 1 2058 0
 4245 1600 7B88     		ldrh	r3, [r7, #2]
 4246 1602 4FF00102 		mov	r2, #1
 4247 1606 02FA03F3 		lsl	r3, r2, r3
 4248 160a 7B81     		strh	r3, [r7, #10]	@ movhi
2059:../lib/STM32F10x_StdPeriph_Driver/src/stm32f10x_tim.c **** 
2060:../lib/STM32F10x_StdPeriph_Driver/src/stm32f10x_tim.c ****   /* Disable the Channel: Reset the CCxE Bit */
2061:../lib/STM32F10x_StdPeriph_Driver/src/stm32f10x_tim.c ****   TIMx->CCER &= (uint16_t) ~tmp1;
 4249              		.loc 1 2061 0
 4250 160c 7B68     		ldr	r3, [r7, #4]
 4251 160e 1B8C     		ldrh	r3, [r3, #32]	@ movhi
 4252 1610 9AB2     		uxth	r2, r3
 4253 1612 7B89     		ldrh	r3, [r7, #10]	@ movhi
 4254 1614 6FEA0303 		mvn	r3, r3
 4255 1618 9BB2     		uxth	r3, r3
 4256 161a 1340     		ands	r3, r3, r2
 4257 161c 9AB2     		uxth	r2, r3
 4258 161e 7B68     		ldr	r3, [r7, #4]
 4259 1620 1A84     		strh	r2, [r3, #32]	@ movhi
2062:../lib/STM32F10x_StdPeriph_Driver/src/stm32f10x_tim.c **** 
2063:../lib/STM32F10x_StdPeriph_Driver/src/stm32f10x_tim.c ****   if((TIM_Channel == TIM_Channel_1) ||(TIM_Channel == TIM_Channel_3))
 4260              		.loc 1 2063 0
 4261 1622 7B88     		ldrh	r3, [r7, #2]
 4262 1624 002B     		cmp	r3, #0
 4263 1626 02D0     		beq	.L130
 4264              		.loc 1 2063 0 is_stmt 0 discriminator 1
 4265 1628 7B88     		ldrh	r3, [r7, #2]
 4266 162a 082B     		cmp	r3, #8
 4267 162c 13D1     		bne	.L131
 4268              	.L130:
2064:../lib/STM32F10x_StdPeriph_Driver/src/stm32f10x_tim.c ****   {
2065:../lib/STM32F10x_StdPeriph_Driver/src/stm32f10x_tim.c ****     tmp += (TIM_Channel>>1);
 4269              		.loc 1 2065 0 is_stmt 1
 4270 162e 7B88     		ldrh	r3, [r7, #2]
 4271 1630 4FEA5303 		lsr	r3, r3, #1
 4272 1634 9BB2     		uxth	r3, r3
 4273 1636 FA68     		ldr	r2, [r7, #12]
 4274 1638 D318     		adds	r3, r2, r3
 4275 163a FB60     		str	r3, [r7, #12]
2066:../lib/STM32F10x_StdPeriph_Driver/src/stm32f10x_tim.c **** 
2067:../lib/STM32F10x_StdPeriph_Driver/src/stm32f10x_tim.c ****     /* Reset the OCxM bits in the CCMRx register */
2068:../lib/STM32F10x_StdPeriph_Driver/src/stm32f10x_tim.c ****     *(__IO uint32_t *) tmp &= (uint32_t)~((uint32_t)TIM_CCMR1_OC1M);
 4276              		.loc 1 2068 0
 4277 163c FB68     		ldr	r3, [r7, #12]
 4278 163e FA68     		ldr	r2, [r7, #12]
 4279 1640 1268     		ldr	r2, [r2, #0]
 4280 1642 22F07002 		bic	r2, r2, #112
 4281 1646 1A60     		str	r2, [r3, #0]
2069:../lib/STM32F10x_StdPeriph_Driver/src/stm32f10x_tim.c ****    
2070:../lib/STM32F10x_StdPeriph_Driver/src/stm32f10x_tim.c ****     /* Configure the OCxM bits in the CCMRx register */
2071:../lib/STM32F10x_StdPeriph_Driver/src/stm32f10x_tim.c ****     *(__IO uint32_t *) tmp |= TIM_OCMode;
 4282              		.loc 1 2071 0
 4283 1648 FB68     		ldr	r3, [r7, #12]
 4284 164a FA68     		ldr	r2, [r7, #12]
 4285 164c 1168     		ldr	r1, [r2, #0]
 4286 164e 3A88     		ldrh	r2, [r7, #0]
 4287 1650 0A43     		orrs	r2, r2, r1
 4288 1652 1A60     		str	r2, [r3, #0]
 4289 1654 18E0     		b	.L129
 4290              	.L131:
2072:../lib/STM32F10x_StdPeriph_Driver/src/stm32f10x_tim.c ****   }
2073:../lib/STM32F10x_StdPeriph_Driver/src/stm32f10x_tim.c ****   else
2074:../lib/STM32F10x_StdPeriph_Driver/src/stm32f10x_tim.c ****   {
2075:../lib/STM32F10x_StdPeriph_Driver/src/stm32f10x_tim.c ****     tmp += (uint16_t)(TIM_Channel - (uint16_t)4)>> (uint16_t)1;
 4291              		.loc 1 2075 0
 4292 1656 7B88     		ldrh	r3, [r7, #2]	@ movhi
 4293 1658 A3F10403 		sub	r3, r3, #4
 4294 165c 9BB2     		uxth	r3, r3
 4295 165e 4FEA5303 		lsr	r3, r3, #1
 4296 1662 9BB2     		uxth	r3, r3
 4297 1664 FA68     		ldr	r2, [r7, #12]
 4298 1666 D318     		adds	r3, r2, r3
 4299 1668 FB60     		str	r3, [r7, #12]
2076:../lib/STM32F10x_StdPeriph_Driver/src/stm32f10x_tim.c **** 
2077:../lib/STM32F10x_StdPeriph_Driver/src/stm32f10x_tim.c ****     /* Reset the OCxM bits in the CCMRx register */
2078:../lib/STM32F10x_StdPeriph_Driver/src/stm32f10x_tim.c ****     *(__IO uint32_t *) tmp &= (uint32_t)~((uint32_t)TIM_CCMR1_OC2M);
 4300              		.loc 1 2078 0
 4301 166a FB68     		ldr	r3, [r7, #12]
 4302 166c FA68     		ldr	r2, [r7, #12]
 4303 166e 1268     		ldr	r2, [r2, #0]
 4304 1670 22F4E042 		bic	r2, r2, #28672
 4305 1674 1A60     		str	r2, [r3, #0]
2079:../lib/STM32F10x_StdPeriph_Driver/src/stm32f10x_tim.c ****     
2080:../lib/STM32F10x_StdPeriph_Driver/src/stm32f10x_tim.c ****     /* Configure the OCxM bits in the CCMRx register */
2081:../lib/STM32F10x_StdPeriph_Driver/src/stm32f10x_tim.c ****     *(__IO uint32_t *) tmp |= (uint16_t)(TIM_OCMode << 8);
 4306              		.loc 1 2081 0
 4307 1676 FB68     		ldr	r3, [r7, #12]
 4308 1678 FA68     		ldr	r2, [r7, #12]
 4309 167a 1168     		ldr	r1, [r2, #0]
 4310 167c 3A88     		ldrh	r2, [r7, #0]	@ movhi
 4311 167e 4FEA0222 		lsl	r2, r2, #8
 4312 1682 92B2     		uxth	r2, r2
 4313 1684 0A43     		orrs	r2, r2, r1
 4314 1686 1A60     		str	r2, [r3, #0]
 4315              	.L129:
2082:../lib/STM32F10x_StdPeriph_Driver/src/stm32f10x_tim.c ****   }
2083:../lib/STM32F10x_StdPeriph_Driver/src/stm32f10x_tim.c **** }
 4316              		.loc 1 2083 0
 4317 1688 07F11407 		add	r7, r7, #20
 4318 168c BD46     		mov	sp, r7
 4319 168e 80BC     		pop	{r7}
 4320 1690 7047     		bx	lr
 4321              		.cfi_endproc
 4322              	.LFE87:
 4324 1692 00BF     		.align	2
 4325              		.global	TIM_UpdateDisableConfig
 4326              		.thumb
 4327              		.thumb_func
 4329              	TIM_UpdateDisableConfig:
 4330              	.LFB88:
2084:../lib/STM32F10x_StdPeriph_Driver/src/stm32f10x_tim.c **** 
2085:../lib/STM32F10x_StdPeriph_Driver/src/stm32f10x_tim.c **** /**
2086:../lib/STM32F10x_StdPeriph_Driver/src/stm32f10x_tim.c ****   * @brief  Enables or Disables the TIMx Update event.
2087:../lib/STM32F10x_StdPeriph_Driver/src/stm32f10x_tim.c ****   * @param  TIMx: where x can be 1 to 17 to select the TIM peripheral.
2088:../lib/STM32F10x_StdPeriph_Driver/src/stm32f10x_tim.c ****   * @param  NewState: new state of the TIMx UDIS bit
2089:../lib/STM32F10x_StdPeriph_Driver/src/stm32f10x_tim.c ****   *   This parameter can be: ENABLE or DISABLE.
2090:../lib/STM32F10x_StdPeriph_Driver/src/stm32f10x_tim.c ****   * @retval None
2091:../lib/STM32F10x_StdPeriph_Driver/src/stm32f10x_tim.c ****   */
2092:../lib/STM32F10x_StdPeriph_Driver/src/stm32f10x_tim.c **** void TIM_UpdateDisableConfig(TIM_TypeDef* TIMx, FunctionalState NewState)
2093:../lib/STM32F10x_StdPeriph_Driver/src/stm32f10x_tim.c **** {
 4331              		.loc 1 2093 0
 4332              		.cfi_startproc
 4333              		@ args = 0, pretend = 0, frame = 8
 4334              		@ frame_needed = 1, uses_anonymous_args = 0
 4335              		@ link register save eliminated.
 4336 1694 80B4     		push	{r7}
 4337              	.LCFI177:
 4338              		.cfi_def_cfa_offset 4
 4339              		.cfi_offset 7, -4
 4340 1696 83B0     		sub	sp, sp, #12
 4341              	.LCFI178:
 4342              		.cfi_def_cfa_offset 16
 4343 1698 00AF     		add	r7, sp, #0
 4344              	.LCFI179:
 4345              		.cfi_def_cfa_register 7
 4346 169a 7860     		str	r0, [r7, #4]
 4347 169c 0B46     		mov	r3, r1
 4348 169e FB70     		strb	r3, [r7, #3]
2094:../lib/STM32F10x_StdPeriph_Driver/src/stm32f10x_tim.c ****   /* Check the parameters */
2095:../lib/STM32F10x_StdPeriph_Driver/src/stm32f10x_tim.c ****   assert_param(IS_TIM_ALL_PERIPH(TIMx));
2096:../lib/STM32F10x_StdPeriph_Driver/src/stm32f10x_tim.c ****   assert_param(IS_FUNCTIONAL_STATE(NewState));
2097:../lib/STM32F10x_StdPeriph_Driver/src/stm32f10x_tim.c ****   if (NewState != DISABLE)
 4349              		.loc 1 2097 0
 4350 16a0 FB78     		ldrb	r3, [r7, #3]	@ zero_extendqisi2
 4351 16a2 002B     		cmp	r3, #0
 4352 16a4 08D0     		beq	.L134
2098:../lib/STM32F10x_StdPeriph_Driver/src/stm32f10x_tim.c ****   {
2099:../lib/STM32F10x_StdPeriph_Driver/src/stm32f10x_tim.c ****     /* Set the Update Disable Bit */
2100:../lib/STM32F10x_StdPeriph_Driver/src/stm32f10x_tim.c ****     TIMx->CR1 |= TIM_CR1_UDIS;
 4353              		.loc 1 2100 0
 4354 16a6 7B68     		ldr	r3, [r7, #4]
 4355 16a8 1B88     		ldrh	r3, [r3, #0]	@ movhi
 4356 16aa 9BB2     		uxth	r3, r3
 4357 16ac 43F00203 		orr	r3, r3, #2
 4358 16b0 9AB2     		uxth	r2, r3
 4359 16b2 7B68     		ldr	r3, [r7, #4]
 4360 16b4 1A80     		strh	r2, [r3, #0]	@ movhi
 4361 16b6 07E0     		b	.L133
 4362              	.L134:
2101:../lib/STM32F10x_StdPeriph_Driver/src/stm32f10x_tim.c ****   }
2102:../lib/STM32F10x_StdPeriph_Driver/src/stm32f10x_tim.c ****   else
2103:../lib/STM32F10x_StdPeriph_Driver/src/stm32f10x_tim.c ****   {
2104:../lib/STM32F10x_StdPeriph_Driver/src/stm32f10x_tim.c ****     /* Reset the Update Disable Bit */
2105:../lib/STM32F10x_StdPeriph_Driver/src/stm32f10x_tim.c ****     TIMx->CR1 &= (uint16_t)~((uint16_t)TIM_CR1_UDIS);
 4363              		.loc 1 2105 0
 4364 16b8 7B68     		ldr	r3, [r7, #4]
 4365 16ba 1B88     		ldrh	r3, [r3, #0]	@ movhi
 4366 16bc 9BB2     		uxth	r3, r3
 4367 16be 23F00203 		bic	r3, r3, #2
 4368 16c2 9AB2     		uxth	r2, r3
 4369 16c4 7B68     		ldr	r3, [r7, #4]
 4370 16c6 1A80     		strh	r2, [r3, #0]	@ movhi
 4371              	.L133:
2106:../lib/STM32F10x_StdPeriph_Driver/src/stm32f10x_tim.c ****   }
2107:../lib/STM32F10x_StdPeriph_Driver/src/stm32f10x_tim.c **** }
 4372              		.loc 1 2107 0
 4373 16c8 07F10C07 		add	r7, r7, #12
 4374 16cc BD46     		mov	sp, r7
 4375 16ce 80BC     		pop	{r7}
 4376 16d0 7047     		bx	lr
 4377              		.cfi_endproc
 4378              	.LFE88:
 4380 16d2 00BF     		.align	2
 4381              		.global	TIM_UpdateRequestConfig
 4382              		.thumb
 4383              		.thumb_func
 4385              	TIM_UpdateRequestConfig:
 4386              	.LFB89:
2108:../lib/STM32F10x_StdPeriph_Driver/src/stm32f10x_tim.c **** 
2109:../lib/STM32F10x_StdPeriph_Driver/src/stm32f10x_tim.c **** /**
2110:../lib/STM32F10x_StdPeriph_Driver/src/stm32f10x_tim.c ****   * @brief  Configures the TIMx Update Request Interrupt source.
2111:../lib/STM32F10x_StdPeriph_Driver/src/stm32f10x_tim.c ****   * @param  TIMx: where x can be 1 to 17 to select the TIM peripheral.
2112:../lib/STM32F10x_StdPeriph_Driver/src/stm32f10x_tim.c ****   * @param  TIM_UpdateSource: specifies the Update source.
2113:../lib/STM32F10x_StdPeriph_Driver/src/stm32f10x_tim.c ****   *   This parameter can be one of the following values:
2114:../lib/STM32F10x_StdPeriph_Driver/src/stm32f10x_tim.c ****   *     @arg TIM_UpdateSource_Regular: Source of update is the counter overflow/underflow
2115:../lib/STM32F10x_StdPeriph_Driver/src/stm32f10x_tim.c ****                                        or the setting of UG bit, or an update generation
2116:../lib/STM32F10x_StdPeriph_Driver/src/stm32f10x_tim.c ****                                        through the slave mode controller.
2117:../lib/STM32F10x_StdPeriph_Driver/src/stm32f10x_tim.c ****   *     @arg TIM_UpdateSource_Global: Source of update is counter overflow/underflow.
2118:../lib/STM32F10x_StdPeriph_Driver/src/stm32f10x_tim.c ****   * @retval None
2119:../lib/STM32F10x_StdPeriph_Driver/src/stm32f10x_tim.c ****   */
2120:../lib/STM32F10x_StdPeriph_Driver/src/stm32f10x_tim.c **** void TIM_UpdateRequestConfig(TIM_TypeDef* TIMx, uint16_t TIM_UpdateSource)
2121:../lib/STM32F10x_StdPeriph_Driver/src/stm32f10x_tim.c **** {
 4387              		.loc 1 2121 0
 4388              		.cfi_startproc
 4389              		@ args = 0, pretend = 0, frame = 8
 4390              		@ frame_needed = 1, uses_anonymous_args = 0
 4391              		@ link register save eliminated.
 4392 16d4 80B4     		push	{r7}
 4393              	.LCFI180:
 4394              		.cfi_def_cfa_offset 4
 4395              		.cfi_offset 7, -4
 4396 16d6 83B0     		sub	sp, sp, #12
 4397              	.LCFI181:
 4398              		.cfi_def_cfa_offset 16
 4399 16d8 00AF     		add	r7, sp, #0
 4400              	.LCFI182:
 4401              		.cfi_def_cfa_register 7
 4402 16da 7860     		str	r0, [r7, #4]
 4403 16dc 0B46     		mov	r3, r1
 4404 16de 7B80     		strh	r3, [r7, #2]	@ movhi
2122:../lib/STM32F10x_StdPeriph_Driver/src/stm32f10x_tim.c ****   /* Check the parameters */
2123:../lib/STM32F10x_StdPeriph_Driver/src/stm32f10x_tim.c ****   assert_param(IS_TIM_ALL_PERIPH(TIMx));
2124:../lib/STM32F10x_StdPeriph_Driver/src/stm32f10x_tim.c ****   assert_param(IS_TIM_UPDATE_SOURCE(TIM_UpdateSource));
2125:../lib/STM32F10x_StdPeriph_Driver/src/stm32f10x_tim.c ****   if (TIM_UpdateSource != TIM_UpdateSource_Global)
 4405              		.loc 1 2125 0
 4406 16e0 7B88     		ldrh	r3, [r7, #2]
 4407 16e2 002B     		cmp	r3, #0
 4408 16e4 08D0     		beq	.L137
2126:../lib/STM32F10x_StdPeriph_Driver/src/stm32f10x_tim.c ****   {
2127:../lib/STM32F10x_StdPeriph_Driver/src/stm32f10x_tim.c ****     /* Set the URS Bit */
2128:../lib/STM32F10x_StdPeriph_Driver/src/stm32f10x_tim.c ****     TIMx->CR1 |= TIM_CR1_URS;
 4409              		.loc 1 2128 0
 4410 16e6 7B68     		ldr	r3, [r7, #4]
 4411 16e8 1B88     		ldrh	r3, [r3, #0]	@ movhi
 4412 16ea 9BB2     		uxth	r3, r3
 4413 16ec 43F00403 		orr	r3, r3, #4
 4414 16f0 9AB2     		uxth	r2, r3
 4415 16f2 7B68     		ldr	r3, [r7, #4]
 4416 16f4 1A80     		strh	r2, [r3, #0]	@ movhi
 4417 16f6 07E0     		b	.L136
 4418              	.L137:
2129:../lib/STM32F10x_StdPeriph_Driver/src/stm32f10x_tim.c ****   }
2130:../lib/STM32F10x_StdPeriph_Driver/src/stm32f10x_tim.c ****   else
2131:../lib/STM32F10x_StdPeriph_Driver/src/stm32f10x_tim.c ****   {
2132:../lib/STM32F10x_StdPeriph_Driver/src/stm32f10x_tim.c ****     /* Reset the URS Bit */
2133:../lib/STM32F10x_StdPeriph_Driver/src/stm32f10x_tim.c ****     TIMx->CR1 &= (uint16_t)~((uint16_t)TIM_CR1_URS);
 4419              		.loc 1 2133 0
 4420 16f8 7B68     		ldr	r3, [r7, #4]
 4421 16fa 1B88     		ldrh	r3, [r3, #0]	@ movhi
 4422 16fc 9BB2     		uxth	r3, r3
 4423 16fe 23F00403 		bic	r3, r3, #4
 4424 1702 9AB2     		uxth	r2, r3
 4425 1704 7B68     		ldr	r3, [r7, #4]
 4426 1706 1A80     		strh	r2, [r3, #0]	@ movhi
 4427              	.L136:
2134:../lib/STM32F10x_StdPeriph_Driver/src/stm32f10x_tim.c ****   }
2135:../lib/STM32F10x_StdPeriph_Driver/src/stm32f10x_tim.c **** }
 4428              		.loc 1 2135 0
 4429 1708 07F10C07 		add	r7, r7, #12
 4430 170c BD46     		mov	sp, r7
 4431 170e 80BC     		pop	{r7}
 4432 1710 7047     		bx	lr
 4433              		.cfi_endproc
 4434              	.LFE89:
 4436 1712 00BF     		.align	2
 4437              		.global	TIM_SelectHallSensor
 4438              		.thumb
 4439              		.thumb_func
 4441              	TIM_SelectHallSensor:
 4442              	.LFB90:
2136:../lib/STM32F10x_StdPeriph_Driver/src/stm32f10x_tim.c **** 
2137:../lib/STM32F10x_StdPeriph_Driver/src/stm32f10x_tim.c **** /**
2138:../lib/STM32F10x_StdPeriph_Driver/src/stm32f10x_tim.c ****   * @brief  Enables or disables the TIMx's Hall sensor interface.
2139:../lib/STM32F10x_StdPeriph_Driver/src/stm32f10x_tim.c ****   * @param  TIMx: where x can be 1, 2, 3, 4, 5 or 8 to select the TIM peripheral.
2140:../lib/STM32F10x_StdPeriph_Driver/src/stm32f10x_tim.c ****   * @param  NewState: new state of the TIMx Hall sensor interface.
2141:../lib/STM32F10x_StdPeriph_Driver/src/stm32f10x_tim.c ****   *   This parameter can be: ENABLE or DISABLE.
2142:../lib/STM32F10x_StdPeriph_Driver/src/stm32f10x_tim.c ****   * @retval None
2143:../lib/STM32F10x_StdPeriph_Driver/src/stm32f10x_tim.c ****   */
2144:../lib/STM32F10x_StdPeriph_Driver/src/stm32f10x_tim.c **** void TIM_SelectHallSensor(TIM_TypeDef* TIMx, FunctionalState NewState)
2145:../lib/STM32F10x_StdPeriph_Driver/src/stm32f10x_tim.c **** {
 4443              		.loc 1 2145 0
 4444              		.cfi_startproc
 4445              		@ args = 0, pretend = 0, frame = 8
 4446              		@ frame_needed = 1, uses_anonymous_args = 0
 4447              		@ link register save eliminated.
 4448 1714 80B4     		push	{r7}
 4449              	.LCFI183:
 4450              		.cfi_def_cfa_offset 4
 4451              		.cfi_offset 7, -4
 4452 1716 83B0     		sub	sp, sp, #12
 4453              	.LCFI184:
 4454              		.cfi_def_cfa_offset 16
 4455 1718 00AF     		add	r7, sp, #0
 4456              	.LCFI185:
 4457              		.cfi_def_cfa_register 7
 4458 171a 7860     		str	r0, [r7, #4]
 4459 171c 0B46     		mov	r3, r1
 4460 171e FB70     		strb	r3, [r7, #3]
2146:../lib/STM32F10x_StdPeriph_Driver/src/stm32f10x_tim.c ****   /* Check the parameters */
2147:../lib/STM32F10x_StdPeriph_Driver/src/stm32f10x_tim.c ****   assert_param(IS_TIM_LIST6_PERIPH(TIMx));
2148:../lib/STM32F10x_StdPeriph_Driver/src/stm32f10x_tim.c ****   assert_param(IS_FUNCTIONAL_STATE(NewState));
2149:../lib/STM32F10x_StdPeriph_Driver/src/stm32f10x_tim.c ****   if (NewState != DISABLE)
 4461              		.loc 1 2149 0
 4462 1720 FB78     		ldrb	r3, [r7, #3]	@ zero_extendqisi2
 4463 1722 002B     		cmp	r3, #0
 4464 1724 08D0     		beq	.L140
2150:../lib/STM32F10x_StdPeriph_Driver/src/stm32f10x_tim.c ****   {
2151:../lib/STM32F10x_StdPeriph_Driver/src/stm32f10x_tim.c ****     /* Set the TI1S Bit */
2152:../lib/STM32F10x_StdPeriph_Driver/src/stm32f10x_tim.c ****     TIMx->CR2 |= TIM_CR2_TI1S;
 4465              		.loc 1 2152 0
 4466 1726 7B68     		ldr	r3, [r7, #4]
 4467 1728 9B88     		ldrh	r3, [r3, #4]	@ movhi
 4468 172a 9BB2     		uxth	r3, r3
 4469 172c 43F08003 		orr	r3, r3, #128
 4470 1730 9AB2     		uxth	r2, r3
 4471 1732 7B68     		ldr	r3, [r7, #4]
 4472 1734 9A80     		strh	r2, [r3, #4]	@ movhi
 4473 1736 07E0     		b	.L139
 4474              	.L140:
2153:../lib/STM32F10x_StdPeriph_Driver/src/stm32f10x_tim.c ****   }
2154:../lib/STM32F10x_StdPeriph_Driver/src/stm32f10x_tim.c ****   else
2155:../lib/STM32F10x_StdPeriph_Driver/src/stm32f10x_tim.c ****   {
2156:../lib/STM32F10x_StdPeriph_Driver/src/stm32f10x_tim.c ****     /* Reset the TI1S Bit */
2157:../lib/STM32F10x_StdPeriph_Driver/src/stm32f10x_tim.c ****     TIMx->CR2 &= (uint16_t)~((uint16_t)TIM_CR2_TI1S);
 4475              		.loc 1 2157 0
 4476 1738 7B68     		ldr	r3, [r7, #4]
 4477 173a 9B88     		ldrh	r3, [r3, #4]	@ movhi
 4478 173c 9BB2     		uxth	r3, r3
 4479 173e 23F08003 		bic	r3, r3, #128
 4480 1742 9AB2     		uxth	r2, r3
 4481 1744 7B68     		ldr	r3, [r7, #4]
 4482 1746 9A80     		strh	r2, [r3, #4]	@ movhi
 4483              	.L139:
2158:../lib/STM32F10x_StdPeriph_Driver/src/stm32f10x_tim.c ****   }
2159:../lib/STM32F10x_StdPeriph_Driver/src/stm32f10x_tim.c **** }
 4484              		.loc 1 2159 0
 4485 1748 07F10C07 		add	r7, r7, #12
 4486 174c BD46     		mov	sp, r7
 4487 174e 80BC     		pop	{r7}
 4488 1750 7047     		bx	lr
 4489              		.cfi_endproc
 4490              	.LFE90:
 4492 1752 00BF     		.align	2
 4493              		.global	TIM_SelectOnePulseMode
 4494              		.thumb
 4495              		.thumb_func
 4497              	TIM_SelectOnePulseMode:
 4498              	.LFB91:
2160:../lib/STM32F10x_StdPeriph_Driver/src/stm32f10x_tim.c **** 
2161:../lib/STM32F10x_StdPeriph_Driver/src/stm32f10x_tim.c **** /**
2162:../lib/STM32F10x_StdPeriph_Driver/src/stm32f10x_tim.c ****   * @brief  Selects the TIMx's One Pulse Mode.
2163:../lib/STM32F10x_StdPeriph_Driver/src/stm32f10x_tim.c ****   * @param  TIMx: where x can be 1 to 17 to select the TIM peripheral.
2164:../lib/STM32F10x_StdPeriph_Driver/src/stm32f10x_tim.c ****   * @param  TIM_OPMode: specifies the OPM Mode to be used.
2165:../lib/STM32F10x_StdPeriph_Driver/src/stm32f10x_tim.c ****   *   This parameter can be one of the following values:
2166:../lib/STM32F10x_StdPeriph_Driver/src/stm32f10x_tim.c ****   *     @arg TIM_OPMode_Single
2167:../lib/STM32F10x_StdPeriph_Driver/src/stm32f10x_tim.c ****   *     @arg TIM_OPMode_Repetitive
2168:../lib/STM32F10x_StdPeriph_Driver/src/stm32f10x_tim.c ****   * @retval None
2169:../lib/STM32F10x_StdPeriph_Driver/src/stm32f10x_tim.c ****   */
2170:../lib/STM32F10x_StdPeriph_Driver/src/stm32f10x_tim.c **** void TIM_SelectOnePulseMode(TIM_TypeDef* TIMx, uint16_t TIM_OPMode)
2171:../lib/STM32F10x_StdPeriph_Driver/src/stm32f10x_tim.c **** {
 4499              		.loc 1 2171 0
 4500              		.cfi_startproc
 4501              		@ args = 0, pretend = 0, frame = 8
 4502              		@ frame_needed = 1, uses_anonymous_args = 0
 4503              		@ link register save eliminated.
 4504 1754 80B4     		push	{r7}
 4505              	.LCFI186:
 4506              		.cfi_def_cfa_offset 4
 4507              		.cfi_offset 7, -4
 4508 1756 83B0     		sub	sp, sp, #12
 4509              	.LCFI187:
 4510              		.cfi_def_cfa_offset 16
 4511 1758 00AF     		add	r7, sp, #0
 4512              	.LCFI188:
 4513              		.cfi_def_cfa_register 7
 4514 175a 7860     		str	r0, [r7, #4]
 4515 175c 0B46     		mov	r3, r1
 4516 175e 7B80     		strh	r3, [r7, #2]	@ movhi
2172:../lib/STM32F10x_StdPeriph_Driver/src/stm32f10x_tim.c ****   /* Check the parameters */
2173:../lib/STM32F10x_StdPeriph_Driver/src/stm32f10x_tim.c ****   assert_param(IS_TIM_ALL_PERIPH(TIMx));
2174:../lib/STM32F10x_StdPeriph_Driver/src/stm32f10x_tim.c ****   assert_param(IS_TIM_OPM_MODE(TIM_OPMode));
2175:../lib/STM32F10x_StdPeriph_Driver/src/stm32f10x_tim.c ****   /* Reset the OPM Bit */
2176:../lib/STM32F10x_StdPeriph_Driver/src/stm32f10x_tim.c ****   TIMx->CR1 &= (uint16_t)~((uint16_t)TIM_CR1_OPM);
 4517              		.loc 1 2176 0
 4518 1760 7B68     		ldr	r3, [r7, #4]
 4519 1762 1B88     		ldrh	r3, [r3, #0]	@ movhi
 4520 1764 9BB2     		uxth	r3, r3
 4521 1766 23F00803 		bic	r3, r3, #8
 4522 176a 9AB2     		uxth	r2, r3
 4523 176c 7B68     		ldr	r3, [r7, #4]
 4524 176e 1A80     		strh	r2, [r3, #0]	@ movhi
2177:../lib/STM32F10x_StdPeriph_Driver/src/stm32f10x_tim.c ****   /* Configure the OPM Mode */
2178:../lib/STM32F10x_StdPeriph_Driver/src/stm32f10x_tim.c ****   TIMx->CR1 |= TIM_OPMode;
 4525              		.loc 1 2178 0
 4526 1770 7B68     		ldr	r3, [r7, #4]
 4527 1772 1B88     		ldrh	r3, [r3, #0]	@ movhi
 4528 1774 9AB2     		uxth	r2, r3
 4529 1776 7B88     		ldrh	r3, [r7, #2]	@ movhi
 4530 1778 1343     		orrs	r3, r3, r2
 4531 177a 9AB2     		uxth	r2, r3
 4532 177c 7B68     		ldr	r3, [r7, #4]
 4533 177e 1A80     		strh	r2, [r3, #0]	@ movhi
2179:../lib/STM32F10x_StdPeriph_Driver/src/stm32f10x_tim.c **** }
 4534              		.loc 1 2179 0
 4535 1780 07F10C07 		add	r7, r7, #12
 4536 1784 BD46     		mov	sp, r7
 4537 1786 80BC     		pop	{r7}
 4538 1788 7047     		bx	lr
 4539              		.cfi_endproc
 4540              	.LFE91:
 4542 178a 00BF     		.align	2
 4543              		.global	TIM_SelectOutputTrigger
 4544              		.thumb
 4545              		.thumb_func
 4547              	TIM_SelectOutputTrigger:
 4548              	.LFB92:
2180:../lib/STM32F10x_StdPeriph_Driver/src/stm32f10x_tim.c **** 
2181:../lib/STM32F10x_StdPeriph_Driver/src/stm32f10x_tim.c **** /**
2182:../lib/STM32F10x_StdPeriph_Driver/src/stm32f10x_tim.c ****   * @brief  Selects the TIMx Trigger Output Mode.
2183:../lib/STM32F10x_StdPeriph_Driver/src/stm32f10x_tim.c ****   * @param  TIMx: where x can be 1, 2, 3, 4, 5, 6, 7, 8, 9, 12 or 15 to select the TIM peripheral.
2184:../lib/STM32F10x_StdPeriph_Driver/src/stm32f10x_tim.c ****   * @param  TIM_TRGOSource: specifies the Trigger Output source.
2185:../lib/STM32F10x_StdPeriph_Driver/src/stm32f10x_tim.c ****   *   This paramter can be one of the following values:
2186:../lib/STM32F10x_StdPeriph_Driver/src/stm32f10x_tim.c ****   *
2187:../lib/STM32F10x_StdPeriph_Driver/src/stm32f10x_tim.c ****   *  - For all TIMx
2188:../lib/STM32F10x_StdPeriph_Driver/src/stm32f10x_tim.c ****   *     @arg TIM_TRGOSource_Reset:  The UG bit in the TIM_EGR register is used as the trigger outpu
2189:../lib/STM32F10x_StdPeriph_Driver/src/stm32f10x_tim.c ****   *     @arg TIM_TRGOSource_Enable: The Counter Enable CEN is used as the trigger output (TRGO).
2190:../lib/STM32F10x_StdPeriph_Driver/src/stm32f10x_tim.c ****   *     @arg TIM_TRGOSource_Update: The update event is selected as the trigger output (TRGO).
2191:../lib/STM32F10x_StdPeriph_Driver/src/stm32f10x_tim.c ****   *
2192:../lib/STM32F10x_StdPeriph_Driver/src/stm32f10x_tim.c ****   *  - For all TIMx except TIM6 and TIM7
2193:../lib/STM32F10x_StdPeriph_Driver/src/stm32f10x_tim.c ****   *     @arg TIM_TRGOSource_OC1: The trigger output sends a positive pulse when the CC1IF flag
2194:../lib/STM32F10x_StdPeriph_Driver/src/stm32f10x_tim.c ****   *                              is to be set, as soon as a capture or compare match occurs (TRGO).
2195:../lib/STM32F10x_StdPeriph_Driver/src/stm32f10x_tim.c ****   *     @arg TIM_TRGOSource_OC1Ref: OC1REF signal is used as the trigger output (TRGO).
2196:../lib/STM32F10x_StdPeriph_Driver/src/stm32f10x_tim.c ****   *     @arg TIM_TRGOSource_OC2Ref: OC2REF signal is used as the trigger output (TRGO).
2197:../lib/STM32F10x_StdPeriph_Driver/src/stm32f10x_tim.c ****   *     @arg TIM_TRGOSource_OC3Ref: OC3REF signal is used as the trigger output (TRGO).
2198:../lib/STM32F10x_StdPeriph_Driver/src/stm32f10x_tim.c ****   *     @arg TIM_TRGOSource_OC4Ref: OC4REF signal is used as the trigger output (TRGO).
2199:../lib/STM32F10x_StdPeriph_Driver/src/stm32f10x_tim.c ****   *
2200:../lib/STM32F10x_StdPeriph_Driver/src/stm32f10x_tim.c ****   * @retval None
2201:../lib/STM32F10x_StdPeriph_Driver/src/stm32f10x_tim.c ****   */
2202:../lib/STM32F10x_StdPeriph_Driver/src/stm32f10x_tim.c **** void TIM_SelectOutputTrigger(TIM_TypeDef* TIMx, uint16_t TIM_TRGOSource)
2203:../lib/STM32F10x_StdPeriph_Driver/src/stm32f10x_tim.c **** {
 4549              		.loc 1 2203 0
 4550              		.cfi_startproc
 4551              		@ args = 0, pretend = 0, frame = 8
 4552              		@ frame_needed = 1, uses_anonymous_args = 0
 4553              		@ link register save eliminated.
 4554 178c 80B4     		push	{r7}
 4555              	.LCFI189:
 4556              		.cfi_def_cfa_offset 4
 4557              		.cfi_offset 7, -4
 4558 178e 83B0     		sub	sp, sp, #12
 4559              	.LCFI190:
 4560              		.cfi_def_cfa_offset 16
 4561 1790 00AF     		add	r7, sp, #0
 4562              	.LCFI191:
 4563              		.cfi_def_cfa_register 7
 4564 1792 7860     		str	r0, [r7, #4]
 4565 1794 0B46     		mov	r3, r1
 4566 1796 7B80     		strh	r3, [r7, #2]	@ movhi
2204:../lib/STM32F10x_StdPeriph_Driver/src/stm32f10x_tim.c ****   /* Check the parameters */
2205:../lib/STM32F10x_StdPeriph_Driver/src/stm32f10x_tim.c ****   assert_param(IS_TIM_LIST7_PERIPH(TIMx));
2206:../lib/STM32F10x_StdPeriph_Driver/src/stm32f10x_tim.c ****   assert_param(IS_TIM_TRGO_SOURCE(TIM_TRGOSource));
2207:../lib/STM32F10x_StdPeriph_Driver/src/stm32f10x_tim.c ****   /* Reset the MMS Bits */
2208:../lib/STM32F10x_StdPeriph_Driver/src/stm32f10x_tim.c ****   TIMx->CR2 &= (uint16_t)~((uint16_t)TIM_CR2_MMS);
 4567              		.loc 1 2208 0
 4568 1798 7B68     		ldr	r3, [r7, #4]
 4569 179a 9B88     		ldrh	r3, [r3, #4]	@ movhi
 4570 179c 9BB2     		uxth	r3, r3
 4571 179e 23F07003 		bic	r3, r3, #112
 4572 17a2 9AB2     		uxth	r2, r3
 4573 17a4 7B68     		ldr	r3, [r7, #4]
 4574 17a6 9A80     		strh	r2, [r3, #4]	@ movhi
2209:../lib/STM32F10x_StdPeriph_Driver/src/stm32f10x_tim.c ****   /* Select the TRGO source */
2210:../lib/STM32F10x_StdPeriph_Driver/src/stm32f10x_tim.c ****   TIMx->CR2 |=  TIM_TRGOSource;
 4575              		.loc 1 2210 0
 4576 17a8 7B68     		ldr	r3, [r7, #4]
 4577 17aa 9B88     		ldrh	r3, [r3, #4]	@ movhi
 4578 17ac 9AB2     		uxth	r2, r3
 4579 17ae 7B88     		ldrh	r3, [r7, #2]	@ movhi
 4580 17b0 1343     		orrs	r3, r3, r2
 4581 17b2 9AB2     		uxth	r2, r3
 4582 17b4 7B68     		ldr	r3, [r7, #4]
 4583 17b6 9A80     		strh	r2, [r3, #4]	@ movhi
2211:../lib/STM32F10x_StdPeriph_Driver/src/stm32f10x_tim.c **** }
 4584              		.loc 1 2211 0
 4585 17b8 07F10C07 		add	r7, r7, #12
 4586 17bc BD46     		mov	sp, r7
 4587 17be 80BC     		pop	{r7}
 4588 17c0 7047     		bx	lr
 4589              		.cfi_endproc
 4590              	.LFE92:
 4592 17c2 00BF     		.align	2
 4593              		.global	TIM_SelectSlaveMode
 4594              		.thumb
 4595              		.thumb_func
 4597              	TIM_SelectSlaveMode:
 4598              	.LFB93:
2212:../lib/STM32F10x_StdPeriph_Driver/src/stm32f10x_tim.c **** 
2213:../lib/STM32F10x_StdPeriph_Driver/src/stm32f10x_tim.c **** /**
2214:../lib/STM32F10x_StdPeriph_Driver/src/stm32f10x_tim.c ****   * @brief  Selects the TIMx Slave Mode.
2215:../lib/STM32F10x_StdPeriph_Driver/src/stm32f10x_tim.c ****   * @param  TIMx: where x can be 1, 2, 3, 4, 5, 8, 9, 12 or 15 to select the TIM peripheral.
2216:../lib/STM32F10x_StdPeriph_Driver/src/stm32f10x_tim.c ****   * @param  TIM_SlaveMode: specifies the Timer Slave Mode.
2217:../lib/STM32F10x_StdPeriph_Driver/src/stm32f10x_tim.c ****   *   This parameter can be one of the following values:
2218:../lib/STM32F10x_StdPeriph_Driver/src/stm32f10x_tim.c ****   *     @arg TIM_SlaveMode_Reset: Rising edge of the selected trigger signal (TRGI) re-initializes
2219:../lib/STM32F10x_StdPeriph_Driver/src/stm32f10x_tim.c ****   *                               the counter and triggers an update of the registers.
2220:../lib/STM32F10x_StdPeriph_Driver/src/stm32f10x_tim.c ****   *     @arg TIM_SlaveMode_Gated:     The counter clock is enabled when the trigger signal (TRGI) i
2221:../lib/STM32F10x_StdPeriph_Driver/src/stm32f10x_tim.c ****   *     @arg TIM_SlaveMode_Trigger:   The counter starts at a rising edge of the trigger TRGI.
2222:../lib/STM32F10x_StdPeriph_Driver/src/stm32f10x_tim.c ****   *     @arg TIM_SlaveMode_External1: Rising edges of the selected trigger (TRGI) clock the counter
2223:../lib/STM32F10x_StdPeriph_Driver/src/stm32f10x_tim.c ****   * @retval None
2224:../lib/STM32F10x_StdPeriph_Driver/src/stm32f10x_tim.c ****   */
2225:../lib/STM32F10x_StdPeriph_Driver/src/stm32f10x_tim.c **** void TIM_SelectSlaveMode(TIM_TypeDef* TIMx, uint16_t TIM_SlaveMode)
2226:../lib/STM32F10x_StdPeriph_Driver/src/stm32f10x_tim.c **** {
 4599              		.loc 1 2226 0
 4600              		.cfi_startproc
 4601              		@ args = 0, pretend = 0, frame = 8
 4602              		@ frame_needed = 1, uses_anonymous_args = 0
 4603              		@ link register save eliminated.
 4604 17c4 80B4     		push	{r7}
 4605              	.LCFI192:
 4606              		.cfi_def_cfa_offset 4
 4607              		.cfi_offset 7, -4
 4608 17c6 83B0     		sub	sp, sp, #12
 4609              	.LCFI193:
 4610              		.cfi_def_cfa_offset 16
 4611 17c8 00AF     		add	r7, sp, #0
 4612              	.LCFI194:
 4613              		.cfi_def_cfa_register 7
 4614 17ca 7860     		str	r0, [r7, #4]
 4615 17cc 0B46     		mov	r3, r1
 4616 17ce 7B80     		strh	r3, [r7, #2]	@ movhi
2227:../lib/STM32F10x_StdPeriph_Driver/src/stm32f10x_tim.c ****   /* Check the parameters */
2228:../lib/STM32F10x_StdPeriph_Driver/src/stm32f10x_tim.c ****   assert_param(IS_TIM_LIST6_PERIPH(TIMx));
2229:../lib/STM32F10x_StdPeriph_Driver/src/stm32f10x_tim.c ****   assert_param(IS_TIM_SLAVE_MODE(TIM_SlaveMode));
2230:../lib/STM32F10x_StdPeriph_Driver/src/stm32f10x_tim.c ****  /* Reset the SMS Bits */
2231:../lib/STM32F10x_StdPeriph_Driver/src/stm32f10x_tim.c ****   TIMx->SMCR &= (uint16_t)~((uint16_t)TIM_SMCR_SMS);
 4617              		.loc 1 2231 0
 4618 17d0 7B68     		ldr	r3, [r7, #4]
 4619 17d2 1B89     		ldrh	r3, [r3, #8]	@ movhi
 4620 17d4 9BB2     		uxth	r3, r3
 4621 17d6 23F00703 		bic	r3, r3, #7
 4622 17da 9AB2     		uxth	r2, r3
 4623 17dc 7B68     		ldr	r3, [r7, #4]
 4624 17de 1A81     		strh	r2, [r3, #8]	@ movhi
2232:../lib/STM32F10x_StdPeriph_Driver/src/stm32f10x_tim.c ****   /* Select the Slave Mode */
2233:../lib/STM32F10x_StdPeriph_Driver/src/stm32f10x_tim.c ****   TIMx->SMCR |= TIM_SlaveMode;
 4625              		.loc 1 2233 0
 4626 17e0 7B68     		ldr	r3, [r7, #4]
 4627 17e2 1B89     		ldrh	r3, [r3, #8]	@ movhi
 4628 17e4 9AB2     		uxth	r2, r3
 4629 17e6 7B88     		ldrh	r3, [r7, #2]	@ movhi
 4630 17e8 1343     		orrs	r3, r3, r2
 4631 17ea 9AB2     		uxth	r2, r3
 4632 17ec 7B68     		ldr	r3, [r7, #4]
 4633 17ee 1A81     		strh	r2, [r3, #8]	@ movhi
2234:../lib/STM32F10x_StdPeriph_Driver/src/stm32f10x_tim.c **** }
 4634              		.loc 1 2234 0
 4635 17f0 07F10C07 		add	r7, r7, #12
 4636 17f4 BD46     		mov	sp, r7
 4637 17f6 80BC     		pop	{r7}
 4638 17f8 7047     		bx	lr
 4639              		.cfi_endproc
 4640              	.LFE93:
 4642 17fa 00BF     		.align	2
 4643              		.global	TIM_SelectMasterSlaveMode
 4644              		.thumb
 4645              		.thumb_func
 4647              	TIM_SelectMasterSlaveMode:
 4648              	.LFB94:
2235:../lib/STM32F10x_StdPeriph_Driver/src/stm32f10x_tim.c **** 
2236:../lib/STM32F10x_StdPeriph_Driver/src/stm32f10x_tim.c **** /**
2237:../lib/STM32F10x_StdPeriph_Driver/src/stm32f10x_tim.c ****   * @brief  Sets or Resets the TIMx Master/Slave Mode.
2238:../lib/STM32F10x_StdPeriph_Driver/src/stm32f10x_tim.c ****   * @param  TIMx: where x can be 1, 2, 3, 4, 5, 8, 9, 12 or 15 to select the TIM peripheral.
2239:../lib/STM32F10x_StdPeriph_Driver/src/stm32f10x_tim.c ****   * @param  TIM_MasterSlaveMode: specifies the Timer Master Slave Mode.
2240:../lib/STM32F10x_StdPeriph_Driver/src/stm32f10x_tim.c ****   *   This parameter can be one of the following values:
2241:../lib/STM32F10x_StdPeriph_Driver/src/stm32f10x_tim.c ****   *     @arg TIM_MasterSlaveMode_Enable: synchronization between the current timer
2242:../lib/STM32F10x_StdPeriph_Driver/src/stm32f10x_tim.c ****   *                                      and its slaves (through TRGO).
2243:../lib/STM32F10x_StdPeriph_Driver/src/stm32f10x_tim.c ****   *     @arg TIM_MasterSlaveMode_Disable: No action
2244:../lib/STM32F10x_StdPeriph_Driver/src/stm32f10x_tim.c ****   * @retval None
2245:../lib/STM32F10x_StdPeriph_Driver/src/stm32f10x_tim.c ****   */
2246:../lib/STM32F10x_StdPeriph_Driver/src/stm32f10x_tim.c **** void TIM_SelectMasterSlaveMode(TIM_TypeDef* TIMx, uint16_t TIM_MasterSlaveMode)
2247:../lib/STM32F10x_StdPeriph_Driver/src/stm32f10x_tim.c **** {
 4649              		.loc 1 2247 0
 4650              		.cfi_startproc
 4651              		@ args = 0, pretend = 0, frame = 8
 4652              		@ frame_needed = 1, uses_anonymous_args = 0
 4653              		@ link register save eliminated.
 4654 17fc 80B4     		push	{r7}
 4655              	.LCFI195:
 4656              		.cfi_def_cfa_offset 4
 4657              		.cfi_offset 7, -4
 4658 17fe 83B0     		sub	sp, sp, #12
 4659              	.LCFI196:
 4660              		.cfi_def_cfa_offset 16
 4661 1800 00AF     		add	r7, sp, #0
 4662              	.LCFI197:
 4663              		.cfi_def_cfa_register 7
 4664 1802 7860     		str	r0, [r7, #4]
 4665 1804 0B46     		mov	r3, r1
 4666 1806 7B80     		strh	r3, [r7, #2]	@ movhi
2248:../lib/STM32F10x_StdPeriph_Driver/src/stm32f10x_tim.c ****   /* Check the parameters */
2249:../lib/STM32F10x_StdPeriph_Driver/src/stm32f10x_tim.c ****   assert_param(IS_TIM_LIST6_PERIPH(TIMx));
2250:../lib/STM32F10x_StdPeriph_Driver/src/stm32f10x_tim.c ****   assert_param(IS_TIM_MSM_STATE(TIM_MasterSlaveMode));
2251:../lib/STM32F10x_StdPeriph_Driver/src/stm32f10x_tim.c ****   /* Reset the MSM Bit */
2252:../lib/STM32F10x_StdPeriph_Driver/src/stm32f10x_tim.c ****   TIMx->SMCR &= (uint16_t)~((uint16_t)TIM_SMCR_MSM);
 4667              		.loc 1 2252 0
 4668 1808 7B68     		ldr	r3, [r7, #4]
 4669 180a 1B89     		ldrh	r3, [r3, #8]	@ movhi
 4670 180c 9BB2     		uxth	r3, r3
 4671 180e 23F08003 		bic	r3, r3, #128
 4672 1812 9AB2     		uxth	r2, r3
 4673 1814 7B68     		ldr	r3, [r7, #4]
 4674 1816 1A81     		strh	r2, [r3, #8]	@ movhi
2253:../lib/STM32F10x_StdPeriph_Driver/src/stm32f10x_tim.c ****   
2254:../lib/STM32F10x_StdPeriph_Driver/src/stm32f10x_tim.c ****   /* Set or Reset the MSM Bit */
2255:../lib/STM32F10x_StdPeriph_Driver/src/stm32f10x_tim.c ****   TIMx->SMCR |= TIM_MasterSlaveMode;
 4675              		.loc 1 2255 0
 4676 1818 7B68     		ldr	r3, [r7, #4]
 4677 181a 1B89     		ldrh	r3, [r3, #8]	@ movhi
 4678 181c 9AB2     		uxth	r2, r3
 4679 181e 7B88     		ldrh	r3, [r7, #2]	@ movhi
 4680 1820 1343     		orrs	r3, r3, r2
 4681 1822 9AB2     		uxth	r2, r3
 4682 1824 7B68     		ldr	r3, [r7, #4]
 4683 1826 1A81     		strh	r2, [r3, #8]	@ movhi
2256:../lib/STM32F10x_StdPeriph_Driver/src/stm32f10x_tim.c **** }
 4684              		.loc 1 2256 0
 4685 1828 07F10C07 		add	r7, r7, #12
 4686 182c BD46     		mov	sp, r7
 4687 182e 80BC     		pop	{r7}
 4688 1830 7047     		bx	lr
 4689              		.cfi_endproc
 4690              	.LFE94:
 4692 1832 00BF     		.align	2
 4693              		.global	TIM_SetCounter
 4694              		.thumb
 4695              		.thumb_func
 4697              	TIM_SetCounter:
 4698              	.LFB95:
2257:../lib/STM32F10x_StdPeriph_Driver/src/stm32f10x_tim.c **** 
2258:../lib/STM32F10x_StdPeriph_Driver/src/stm32f10x_tim.c **** /**
2259:../lib/STM32F10x_StdPeriph_Driver/src/stm32f10x_tim.c ****   * @brief  Sets the TIMx Counter Register value
2260:../lib/STM32F10x_StdPeriph_Driver/src/stm32f10x_tim.c ****   * @param  TIMx: where x can be 1 to 17 to select the TIM peripheral.
2261:../lib/STM32F10x_StdPeriph_Driver/src/stm32f10x_tim.c ****   * @param  Counter: specifies the Counter register new value.
2262:../lib/STM32F10x_StdPeriph_Driver/src/stm32f10x_tim.c ****   * @retval None
2263:../lib/STM32F10x_StdPeriph_Driver/src/stm32f10x_tim.c ****   */
2264:../lib/STM32F10x_StdPeriph_Driver/src/stm32f10x_tim.c **** void TIM_SetCounter(TIM_TypeDef* TIMx, uint16_t Counter)
2265:../lib/STM32F10x_StdPeriph_Driver/src/stm32f10x_tim.c **** {
 4699              		.loc 1 2265 0
 4700              		.cfi_startproc
 4701              		@ args = 0, pretend = 0, frame = 8
 4702              		@ frame_needed = 1, uses_anonymous_args = 0
 4703              		@ link register save eliminated.
 4704 1834 80B4     		push	{r7}
 4705              	.LCFI198:
 4706              		.cfi_def_cfa_offset 4
 4707              		.cfi_offset 7, -4
 4708 1836 83B0     		sub	sp, sp, #12
 4709              	.LCFI199:
 4710              		.cfi_def_cfa_offset 16
 4711 1838 00AF     		add	r7, sp, #0
 4712              	.LCFI200:
 4713              		.cfi_def_cfa_register 7
 4714 183a 7860     		str	r0, [r7, #4]
 4715 183c 0B46     		mov	r3, r1
 4716 183e 7B80     		strh	r3, [r7, #2]	@ movhi
2266:../lib/STM32F10x_StdPeriph_Driver/src/stm32f10x_tim.c ****   /* Check the parameters */
2267:../lib/STM32F10x_StdPeriph_Driver/src/stm32f10x_tim.c ****   assert_param(IS_TIM_ALL_PERIPH(TIMx));
2268:../lib/STM32F10x_StdPeriph_Driver/src/stm32f10x_tim.c ****   /* Set the Counter Register value */
2269:../lib/STM32F10x_StdPeriph_Driver/src/stm32f10x_tim.c ****   TIMx->CNT = Counter;
 4717              		.loc 1 2269 0
 4718 1840 7B68     		ldr	r3, [r7, #4]
 4719 1842 7A88     		ldrh	r2, [r7, #2]	@ movhi
 4720 1844 9A84     		strh	r2, [r3, #36]	@ movhi
2270:../lib/STM32F10x_StdPeriph_Driver/src/stm32f10x_tim.c **** }
 4721              		.loc 1 2270 0
 4722 1846 07F10C07 		add	r7, r7, #12
 4723 184a BD46     		mov	sp, r7
 4724 184c 80BC     		pop	{r7}
 4725 184e 7047     		bx	lr
 4726              		.cfi_endproc
 4727              	.LFE95:
 4729              		.align	2
 4730              		.global	TIM_SetAutoreload
 4731              		.thumb
 4732              		.thumb_func
 4734              	TIM_SetAutoreload:
 4735              	.LFB96:
2271:../lib/STM32F10x_StdPeriph_Driver/src/stm32f10x_tim.c **** 
2272:../lib/STM32F10x_StdPeriph_Driver/src/stm32f10x_tim.c **** /**
2273:../lib/STM32F10x_StdPeriph_Driver/src/stm32f10x_tim.c ****   * @brief  Sets the TIMx Autoreload Register value
2274:../lib/STM32F10x_StdPeriph_Driver/src/stm32f10x_tim.c ****   * @param  TIMx: where x can be 1 to 17 to select the TIM peripheral.
2275:../lib/STM32F10x_StdPeriph_Driver/src/stm32f10x_tim.c ****   * @param  Autoreload: specifies the Autoreload register new value.
2276:../lib/STM32F10x_StdPeriph_Driver/src/stm32f10x_tim.c ****   * @retval None
2277:../lib/STM32F10x_StdPeriph_Driver/src/stm32f10x_tim.c ****   */
2278:../lib/STM32F10x_StdPeriph_Driver/src/stm32f10x_tim.c **** void TIM_SetAutoreload(TIM_TypeDef* TIMx, uint16_t Autoreload)
2279:../lib/STM32F10x_StdPeriph_Driver/src/stm32f10x_tim.c **** {
 4736              		.loc 1 2279 0
 4737              		.cfi_startproc
 4738              		@ args = 0, pretend = 0, frame = 8
 4739              		@ frame_needed = 1, uses_anonymous_args = 0
 4740              		@ link register save eliminated.
 4741 1850 80B4     		push	{r7}
 4742              	.LCFI201:
 4743              		.cfi_def_cfa_offset 4
 4744              		.cfi_offset 7, -4
 4745 1852 83B0     		sub	sp, sp, #12
 4746              	.LCFI202:
 4747              		.cfi_def_cfa_offset 16
 4748 1854 00AF     		add	r7, sp, #0
 4749              	.LCFI203:
 4750              		.cfi_def_cfa_register 7
 4751 1856 7860     		str	r0, [r7, #4]
 4752 1858 0B46     		mov	r3, r1
 4753 185a 7B80     		strh	r3, [r7, #2]	@ movhi
2280:../lib/STM32F10x_StdPeriph_Driver/src/stm32f10x_tim.c ****   /* Check the parameters */
2281:../lib/STM32F10x_StdPeriph_Driver/src/stm32f10x_tim.c ****   assert_param(IS_TIM_ALL_PERIPH(TIMx));
2282:../lib/STM32F10x_StdPeriph_Driver/src/stm32f10x_tim.c ****   /* Set the Autoreload Register value */
2283:../lib/STM32F10x_StdPeriph_Driver/src/stm32f10x_tim.c ****   TIMx->ARR = Autoreload;
 4754              		.loc 1 2283 0
 4755 185c 7B68     		ldr	r3, [r7, #4]
 4756 185e 7A88     		ldrh	r2, [r7, #2]	@ movhi
 4757 1860 9A85     		strh	r2, [r3, #44]	@ movhi
2284:../lib/STM32F10x_StdPeriph_Driver/src/stm32f10x_tim.c **** }
 4758              		.loc 1 2284 0
 4759 1862 07F10C07 		add	r7, r7, #12
 4760 1866 BD46     		mov	sp, r7
 4761 1868 80BC     		pop	{r7}
 4762 186a 7047     		bx	lr
 4763              		.cfi_endproc
 4764              	.LFE96:
 4766              		.align	2
 4767              		.global	TIM_SetCompare1
 4768              		.thumb
 4769              		.thumb_func
 4771              	TIM_SetCompare1:
 4772              	.LFB97:
2285:../lib/STM32F10x_StdPeriph_Driver/src/stm32f10x_tim.c **** 
2286:../lib/STM32F10x_StdPeriph_Driver/src/stm32f10x_tim.c **** /**
2287:../lib/STM32F10x_StdPeriph_Driver/src/stm32f10x_tim.c ****   * @brief  Sets the TIMx Capture Compare1 Register value
2288:../lib/STM32F10x_StdPeriph_Driver/src/stm32f10x_tim.c ****   * @param  TIMx: where x can be 1 to 17 except 6 and 7 to select the TIM peripheral.
2289:../lib/STM32F10x_StdPeriph_Driver/src/stm32f10x_tim.c ****   * @param  Compare1: specifies the Capture Compare1 register new value.
2290:../lib/STM32F10x_StdPeriph_Driver/src/stm32f10x_tim.c ****   * @retval None
2291:../lib/STM32F10x_StdPeriph_Driver/src/stm32f10x_tim.c ****   */
2292:../lib/STM32F10x_StdPeriph_Driver/src/stm32f10x_tim.c **** void TIM_SetCompare1(TIM_TypeDef* TIMx, uint16_t Compare1)
2293:../lib/STM32F10x_StdPeriph_Driver/src/stm32f10x_tim.c **** {
 4773              		.loc 1 2293 0
 4774              		.cfi_startproc
 4775              		@ args = 0, pretend = 0, frame = 8
 4776              		@ frame_needed = 1, uses_anonymous_args = 0
 4777              		@ link register save eliminated.
 4778 186c 80B4     		push	{r7}
 4779              	.LCFI204:
 4780              		.cfi_def_cfa_offset 4
 4781              		.cfi_offset 7, -4
 4782 186e 83B0     		sub	sp, sp, #12
 4783              	.LCFI205:
 4784              		.cfi_def_cfa_offset 16
 4785 1870 00AF     		add	r7, sp, #0
 4786              	.LCFI206:
 4787              		.cfi_def_cfa_register 7
 4788 1872 7860     		str	r0, [r7, #4]
 4789 1874 0B46     		mov	r3, r1
 4790 1876 7B80     		strh	r3, [r7, #2]	@ movhi
2294:../lib/STM32F10x_StdPeriph_Driver/src/stm32f10x_tim.c ****   /* Check the parameters */
2295:../lib/STM32F10x_StdPeriph_Driver/src/stm32f10x_tim.c ****   assert_param(IS_TIM_LIST8_PERIPH(TIMx));
2296:../lib/STM32F10x_StdPeriph_Driver/src/stm32f10x_tim.c ****   /* Set the Capture Compare1 Register value */
2297:../lib/STM32F10x_StdPeriph_Driver/src/stm32f10x_tim.c ****   TIMx->CCR1 = Compare1;
 4791              		.loc 1 2297 0
 4792 1878 7B68     		ldr	r3, [r7, #4]
 4793 187a 7A88     		ldrh	r2, [r7, #2]	@ movhi
 4794 187c 9A86     		strh	r2, [r3, #52]	@ movhi
2298:../lib/STM32F10x_StdPeriph_Driver/src/stm32f10x_tim.c **** }
 4795              		.loc 1 2298 0
 4796 187e 07F10C07 		add	r7, r7, #12
 4797 1882 BD46     		mov	sp, r7
 4798 1884 80BC     		pop	{r7}
 4799 1886 7047     		bx	lr
 4800              		.cfi_endproc
 4801              	.LFE97:
 4803              		.align	2
 4804              		.global	TIM_SetCompare2
 4805              		.thumb
 4806              		.thumb_func
 4808              	TIM_SetCompare2:
 4809              	.LFB98:
2299:../lib/STM32F10x_StdPeriph_Driver/src/stm32f10x_tim.c **** 
2300:../lib/STM32F10x_StdPeriph_Driver/src/stm32f10x_tim.c **** /**
2301:../lib/STM32F10x_StdPeriph_Driver/src/stm32f10x_tim.c ****   * @brief  Sets the TIMx Capture Compare2 Register value
2302:../lib/STM32F10x_StdPeriph_Driver/src/stm32f10x_tim.c ****   * @param  TIMx: where x can be 1, 2, 3, 4, 5, 8, 9, 12 or 15 to select the TIM peripheral.
2303:../lib/STM32F10x_StdPeriph_Driver/src/stm32f10x_tim.c ****   * @param  Compare2: specifies the Capture Compare2 register new value.
2304:../lib/STM32F10x_StdPeriph_Driver/src/stm32f10x_tim.c ****   * @retval None
2305:../lib/STM32F10x_StdPeriph_Driver/src/stm32f10x_tim.c ****   */
2306:../lib/STM32F10x_StdPeriph_Driver/src/stm32f10x_tim.c **** void TIM_SetCompare2(TIM_TypeDef* TIMx, uint16_t Compare2)
2307:../lib/STM32F10x_StdPeriph_Driver/src/stm32f10x_tim.c **** {
 4810              		.loc 1 2307 0
 4811              		.cfi_startproc
 4812              		@ args = 0, pretend = 0, frame = 8
 4813              		@ frame_needed = 1, uses_anonymous_args = 0
 4814              		@ link register save eliminated.
 4815 1888 80B4     		push	{r7}
 4816              	.LCFI207:
 4817              		.cfi_def_cfa_offset 4
 4818              		.cfi_offset 7, -4
 4819 188a 83B0     		sub	sp, sp, #12
 4820              	.LCFI208:
 4821              		.cfi_def_cfa_offset 16
 4822 188c 00AF     		add	r7, sp, #0
 4823              	.LCFI209:
 4824              		.cfi_def_cfa_register 7
 4825 188e 7860     		str	r0, [r7, #4]
 4826 1890 0B46     		mov	r3, r1
 4827 1892 7B80     		strh	r3, [r7, #2]	@ movhi
2308:../lib/STM32F10x_StdPeriph_Driver/src/stm32f10x_tim.c ****   /* Check the parameters */
2309:../lib/STM32F10x_StdPeriph_Driver/src/stm32f10x_tim.c ****   assert_param(IS_TIM_LIST6_PERIPH(TIMx));
2310:../lib/STM32F10x_StdPeriph_Driver/src/stm32f10x_tim.c ****   /* Set the Capture Compare2 Register value */
2311:../lib/STM32F10x_StdPeriph_Driver/src/stm32f10x_tim.c ****   TIMx->CCR2 = Compare2;
 4828              		.loc 1 2311 0
 4829 1894 7B68     		ldr	r3, [r7, #4]
 4830 1896 7A88     		ldrh	r2, [r7, #2]	@ movhi
 4831 1898 1A87     		strh	r2, [r3, #56]	@ movhi
2312:../lib/STM32F10x_StdPeriph_Driver/src/stm32f10x_tim.c **** }
 4832              		.loc 1 2312 0
 4833 189a 07F10C07 		add	r7, r7, #12
 4834 189e BD46     		mov	sp, r7
 4835 18a0 80BC     		pop	{r7}
 4836 18a2 7047     		bx	lr
 4837              		.cfi_endproc
 4838              	.LFE98:
 4840              		.align	2
 4841              		.global	TIM_SetCompare3
 4842              		.thumb
 4843              		.thumb_func
 4845              	TIM_SetCompare3:
 4846              	.LFB99:
2313:../lib/STM32F10x_StdPeriph_Driver/src/stm32f10x_tim.c **** 
2314:../lib/STM32F10x_StdPeriph_Driver/src/stm32f10x_tim.c **** /**
2315:../lib/STM32F10x_StdPeriph_Driver/src/stm32f10x_tim.c ****   * @brief  Sets the TIMx Capture Compare3 Register value
2316:../lib/STM32F10x_StdPeriph_Driver/src/stm32f10x_tim.c ****   * @param  TIMx: where x can be 1, 2, 3, 4, 5 or 8 to select the TIM peripheral.
2317:../lib/STM32F10x_StdPeriph_Driver/src/stm32f10x_tim.c ****   * @param  Compare3: specifies the Capture Compare3 register new value.
2318:../lib/STM32F10x_StdPeriph_Driver/src/stm32f10x_tim.c ****   * @retval None
2319:../lib/STM32F10x_StdPeriph_Driver/src/stm32f10x_tim.c ****   */
2320:../lib/STM32F10x_StdPeriph_Driver/src/stm32f10x_tim.c **** void TIM_SetCompare3(TIM_TypeDef* TIMx, uint16_t Compare3)
2321:../lib/STM32F10x_StdPeriph_Driver/src/stm32f10x_tim.c **** {
 4847              		.loc 1 2321 0
 4848              		.cfi_startproc
 4849              		@ args = 0, pretend = 0, frame = 8
 4850              		@ frame_needed = 1, uses_anonymous_args = 0
 4851              		@ link register save eliminated.
 4852 18a4 80B4     		push	{r7}
 4853              	.LCFI210:
 4854              		.cfi_def_cfa_offset 4
 4855              		.cfi_offset 7, -4
 4856 18a6 83B0     		sub	sp, sp, #12
 4857              	.LCFI211:
 4858              		.cfi_def_cfa_offset 16
 4859 18a8 00AF     		add	r7, sp, #0
 4860              	.LCFI212:
 4861              		.cfi_def_cfa_register 7
 4862 18aa 7860     		str	r0, [r7, #4]
 4863 18ac 0B46     		mov	r3, r1
 4864 18ae 7B80     		strh	r3, [r7, #2]	@ movhi
2322:../lib/STM32F10x_StdPeriph_Driver/src/stm32f10x_tim.c ****   /* Check the parameters */
2323:../lib/STM32F10x_StdPeriph_Driver/src/stm32f10x_tim.c ****   assert_param(IS_TIM_LIST3_PERIPH(TIMx));
2324:../lib/STM32F10x_StdPeriph_Driver/src/stm32f10x_tim.c ****   /* Set the Capture Compare3 Register value */
2325:../lib/STM32F10x_StdPeriph_Driver/src/stm32f10x_tim.c ****   TIMx->CCR3 = Compare3;
 4865              		.loc 1 2325 0
 4866 18b0 7B68     		ldr	r3, [r7, #4]
 4867 18b2 7A88     		ldrh	r2, [r7, #2]	@ movhi
 4868 18b4 9A87     		strh	r2, [r3, #60]	@ movhi
2326:../lib/STM32F10x_StdPeriph_Driver/src/stm32f10x_tim.c **** }
 4869              		.loc 1 2326 0
 4870 18b6 07F10C07 		add	r7, r7, #12
 4871 18ba BD46     		mov	sp, r7
 4872 18bc 80BC     		pop	{r7}
 4873 18be 7047     		bx	lr
 4874              		.cfi_endproc
 4875              	.LFE99:
 4877              		.align	2
 4878              		.global	TIM_SetCompare4
 4879              		.thumb
 4880              		.thumb_func
 4882              	TIM_SetCompare4:
 4883              	.LFB100:
2327:../lib/STM32F10x_StdPeriph_Driver/src/stm32f10x_tim.c **** 
2328:../lib/STM32F10x_StdPeriph_Driver/src/stm32f10x_tim.c **** /**
2329:../lib/STM32F10x_StdPeriph_Driver/src/stm32f10x_tim.c ****   * @brief  Sets the TIMx Capture Compare4 Register value
2330:../lib/STM32F10x_StdPeriph_Driver/src/stm32f10x_tim.c ****   * @param  TIMx: where x can be 1, 2, 3, 4, 5 or 8 to select the TIM peripheral.
2331:../lib/STM32F10x_StdPeriph_Driver/src/stm32f10x_tim.c ****   * @param  Compare4: specifies the Capture Compare4 register new value.
2332:../lib/STM32F10x_StdPeriph_Driver/src/stm32f10x_tim.c ****   * @retval None
2333:../lib/STM32F10x_StdPeriph_Driver/src/stm32f10x_tim.c ****   */
2334:../lib/STM32F10x_StdPeriph_Driver/src/stm32f10x_tim.c **** void TIM_SetCompare4(TIM_TypeDef* TIMx, uint16_t Compare4)
2335:../lib/STM32F10x_StdPeriph_Driver/src/stm32f10x_tim.c **** {
 4884              		.loc 1 2335 0
 4885              		.cfi_startproc
 4886              		@ args = 0, pretend = 0, frame = 8
 4887              		@ frame_needed = 1, uses_anonymous_args = 0
 4888              		@ link register save eliminated.
 4889 18c0 80B4     		push	{r7}
 4890              	.LCFI213:
 4891              		.cfi_def_cfa_offset 4
 4892              		.cfi_offset 7, -4
 4893 18c2 83B0     		sub	sp, sp, #12
 4894              	.LCFI214:
 4895              		.cfi_def_cfa_offset 16
 4896 18c4 00AF     		add	r7, sp, #0
 4897              	.LCFI215:
 4898              		.cfi_def_cfa_register 7
 4899 18c6 7860     		str	r0, [r7, #4]
 4900 18c8 0B46     		mov	r3, r1
 4901 18ca 7B80     		strh	r3, [r7, #2]	@ movhi
2336:../lib/STM32F10x_StdPeriph_Driver/src/stm32f10x_tim.c ****   /* Check the parameters */
2337:../lib/STM32F10x_StdPeriph_Driver/src/stm32f10x_tim.c ****   assert_param(IS_TIM_LIST3_PERIPH(TIMx));
2338:../lib/STM32F10x_StdPeriph_Driver/src/stm32f10x_tim.c ****   /* Set the Capture Compare4 Register value */
2339:../lib/STM32F10x_StdPeriph_Driver/src/stm32f10x_tim.c ****   TIMx->CCR4 = Compare4;
 4902              		.loc 1 2339 0
 4903 18cc 7B68     		ldr	r3, [r7, #4]
 4904 18ce 7A88     		ldrh	r2, [r7, #2]	@ movhi
 4905 18d0 A3F84020 		strh	r2, [r3, #64]	@ movhi
2340:../lib/STM32F10x_StdPeriph_Driver/src/stm32f10x_tim.c **** }
 4906              		.loc 1 2340 0
 4907 18d4 07F10C07 		add	r7, r7, #12
 4908 18d8 BD46     		mov	sp, r7
 4909 18da 80BC     		pop	{r7}
 4910 18dc 7047     		bx	lr
 4911              		.cfi_endproc
 4912              	.LFE100:
 4914 18de 00BF     		.align	2
 4915              		.global	TIM_SetIC1Prescaler
 4916              		.thumb
 4917              		.thumb_func
 4919              	TIM_SetIC1Prescaler:
 4920              	.LFB101:
2341:../lib/STM32F10x_StdPeriph_Driver/src/stm32f10x_tim.c **** 
2342:../lib/STM32F10x_StdPeriph_Driver/src/stm32f10x_tim.c **** /**
2343:../lib/STM32F10x_StdPeriph_Driver/src/stm32f10x_tim.c ****   * @brief  Sets the TIMx Input Capture 1 prescaler.
2344:../lib/STM32F10x_StdPeriph_Driver/src/stm32f10x_tim.c ****   * @param  TIMx: where x can be 1 to 17 except 6 and 7 to select the TIM peripheral.
2345:../lib/STM32F10x_StdPeriph_Driver/src/stm32f10x_tim.c ****   * @param  TIM_ICPSC: specifies the Input Capture1 prescaler new value.
2346:../lib/STM32F10x_StdPeriph_Driver/src/stm32f10x_tim.c ****   *   This parameter can be one of the following values:
2347:../lib/STM32F10x_StdPeriph_Driver/src/stm32f10x_tim.c ****   *     @arg TIM_ICPSC_DIV1: no prescaler
2348:../lib/STM32F10x_StdPeriph_Driver/src/stm32f10x_tim.c ****   *     @arg TIM_ICPSC_DIV2: capture is done once every 2 events
2349:../lib/STM32F10x_StdPeriph_Driver/src/stm32f10x_tim.c ****   *     @arg TIM_ICPSC_DIV4: capture is done once every 4 events
2350:../lib/STM32F10x_StdPeriph_Driver/src/stm32f10x_tim.c ****   *     @arg TIM_ICPSC_DIV8: capture is done once every 8 events
2351:../lib/STM32F10x_StdPeriph_Driver/src/stm32f10x_tim.c ****   * @retval None
2352:../lib/STM32F10x_StdPeriph_Driver/src/stm32f10x_tim.c ****   */
2353:../lib/STM32F10x_StdPeriph_Driver/src/stm32f10x_tim.c **** void TIM_SetIC1Prescaler(TIM_TypeDef* TIMx, uint16_t TIM_ICPSC)
2354:../lib/STM32F10x_StdPeriph_Driver/src/stm32f10x_tim.c **** {
 4921              		.loc 1 2354 0
 4922              		.cfi_startproc
 4923              		@ args = 0, pretend = 0, frame = 8
 4924              		@ frame_needed = 1, uses_anonymous_args = 0
 4925              		@ link register save eliminated.
 4926 18e0 80B4     		push	{r7}
 4927              	.LCFI216:
 4928              		.cfi_def_cfa_offset 4
 4929              		.cfi_offset 7, -4
 4930 18e2 83B0     		sub	sp, sp, #12
 4931              	.LCFI217:
 4932              		.cfi_def_cfa_offset 16
 4933 18e4 00AF     		add	r7, sp, #0
 4934              	.LCFI218:
 4935              		.cfi_def_cfa_register 7
 4936 18e6 7860     		str	r0, [r7, #4]
 4937 18e8 0B46     		mov	r3, r1
 4938 18ea 7B80     		strh	r3, [r7, #2]	@ movhi
2355:../lib/STM32F10x_StdPeriph_Driver/src/stm32f10x_tim.c ****   /* Check the parameters */
2356:../lib/STM32F10x_StdPeriph_Driver/src/stm32f10x_tim.c ****   assert_param(IS_TIM_LIST8_PERIPH(TIMx));
2357:../lib/STM32F10x_StdPeriph_Driver/src/stm32f10x_tim.c ****   assert_param(IS_TIM_IC_PRESCALER(TIM_ICPSC));
2358:../lib/STM32F10x_StdPeriph_Driver/src/stm32f10x_tim.c ****   /* Reset the IC1PSC Bits */
2359:../lib/STM32F10x_StdPeriph_Driver/src/stm32f10x_tim.c ****   TIMx->CCMR1 &= (uint16_t)~((uint16_t)TIM_CCMR1_IC1PSC);
 4939              		.loc 1 2359 0
 4940 18ec 7B68     		ldr	r3, [r7, #4]
 4941 18ee 1B8B     		ldrh	r3, [r3, #24]	@ movhi
 4942 18f0 9BB2     		uxth	r3, r3
 4943 18f2 23F00C03 		bic	r3, r3, #12
 4944 18f6 9AB2     		uxth	r2, r3
 4945 18f8 7B68     		ldr	r3, [r7, #4]
 4946 18fa 1A83     		strh	r2, [r3, #24]	@ movhi
2360:../lib/STM32F10x_StdPeriph_Driver/src/stm32f10x_tim.c ****   /* Set the IC1PSC value */
2361:../lib/STM32F10x_StdPeriph_Driver/src/stm32f10x_tim.c ****   TIMx->CCMR1 |= TIM_ICPSC;
 4947              		.loc 1 2361 0
 4948 18fc 7B68     		ldr	r3, [r7, #4]
 4949 18fe 1B8B     		ldrh	r3, [r3, #24]	@ movhi
 4950 1900 9AB2     		uxth	r2, r3
 4951 1902 7B88     		ldrh	r3, [r7, #2]	@ movhi
 4952 1904 1343     		orrs	r3, r3, r2
 4953 1906 9AB2     		uxth	r2, r3
 4954 1908 7B68     		ldr	r3, [r7, #4]
 4955 190a 1A83     		strh	r2, [r3, #24]	@ movhi
2362:../lib/STM32F10x_StdPeriph_Driver/src/stm32f10x_tim.c **** }
 4956              		.loc 1 2362 0
 4957 190c 07F10C07 		add	r7, r7, #12
 4958 1910 BD46     		mov	sp, r7
 4959 1912 80BC     		pop	{r7}
 4960 1914 7047     		bx	lr
 4961              		.cfi_endproc
 4962              	.LFE101:
 4964 1916 00BF     		.align	2
 4965              		.global	TIM_SetIC2Prescaler
 4966              		.thumb
 4967              		.thumb_func
 4969              	TIM_SetIC2Prescaler:
 4970              	.LFB102:
2363:../lib/STM32F10x_StdPeriph_Driver/src/stm32f10x_tim.c **** 
2364:../lib/STM32F10x_StdPeriph_Driver/src/stm32f10x_tim.c **** /**
2365:../lib/STM32F10x_StdPeriph_Driver/src/stm32f10x_tim.c ****   * @brief  Sets the TIMx Input Capture 2 prescaler.
2366:../lib/STM32F10x_StdPeriph_Driver/src/stm32f10x_tim.c ****   * @param  TIMx: where x can be 1, 2, 3, 4, 5, 8, 9, 12 or 15 to select the TIM peripheral.
2367:../lib/STM32F10x_StdPeriph_Driver/src/stm32f10x_tim.c ****   * @param  TIM_ICPSC: specifies the Input Capture2 prescaler new value.
2368:../lib/STM32F10x_StdPeriph_Driver/src/stm32f10x_tim.c ****   *   This parameter can be one of the following values:
2369:../lib/STM32F10x_StdPeriph_Driver/src/stm32f10x_tim.c ****   *     @arg TIM_ICPSC_DIV1: no prescaler
2370:../lib/STM32F10x_StdPeriph_Driver/src/stm32f10x_tim.c ****   *     @arg TIM_ICPSC_DIV2: capture is done once every 2 events
2371:../lib/STM32F10x_StdPeriph_Driver/src/stm32f10x_tim.c ****   *     @arg TIM_ICPSC_DIV4: capture is done once every 4 events
2372:../lib/STM32F10x_StdPeriph_Driver/src/stm32f10x_tim.c ****   *     @arg TIM_ICPSC_DIV8: capture is done once every 8 events
2373:../lib/STM32F10x_StdPeriph_Driver/src/stm32f10x_tim.c ****   * @retval None
2374:../lib/STM32F10x_StdPeriph_Driver/src/stm32f10x_tim.c ****   */
2375:../lib/STM32F10x_StdPeriph_Driver/src/stm32f10x_tim.c **** void TIM_SetIC2Prescaler(TIM_TypeDef* TIMx, uint16_t TIM_ICPSC)
2376:../lib/STM32F10x_StdPeriph_Driver/src/stm32f10x_tim.c **** {
 4971              		.loc 1 2376 0
 4972              		.cfi_startproc
 4973              		@ args = 0, pretend = 0, frame = 8
 4974              		@ frame_needed = 1, uses_anonymous_args = 0
 4975              		@ link register save eliminated.
 4976 1918 80B4     		push	{r7}
 4977              	.LCFI219:
 4978              		.cfi_def_cfa_offset 4
 4979              		.cfi_offset 7, -4
 4980 191a 83B0     		sub	sp, sp, #12
 4981              	.LCFI220:
 4982              		.cfi_def_cfa_offset 16
 4983 191c 00AF     		add	r7, sp, #0
 4984              	.LCFI221:
 4985              		.cfi_def_cfa_register 7
 4986 191e 7860     		str	r0, [r7, #4]
 4987 1920 0B46     		mov	r3, r1
 4988 1922 7B80     		strh	r3, [r7, #2]	@ movhi
2377:../lib/STM32F10x_StdPeriph_Driver/src/stm32f10x_tim.c ****   /* Check the parameters */
2378:../lib/STM32F10x_StdPeriph_Driver/src/stm32f10x_tim.c ****   assert_param(IS_TIM_LIST6_PERIPH(TIMx));
2379:../lib/STM32F10x_StdPeriph_Driver/src/stm32f10x_tim.c ****   assert_param(IS_TIM_IC_PRESCALER(TIM_ICPSC));
2380:../lib/STM32F10x_StdPeriph_Driver/src/stm32f10x_tim.c ****   /* Reset the IC2PSC Bits */
2381:../lib/STM32F10x_StdPeriph_Driver/src/stm32f10x_tim.c ****   TIMx->CCMR1 &= (uint16_t)~((uint16_t)TIM_CCMR1_IC2PSC);
 4989              		.loc 1 2381 0
 4990 1924 7B68     		ldr	r3, [r7, #4]
 4991 1926 1B8B     		ldrh	r3, [r3, #24]	@ movhi
 4992 1928 9BB2     		uxth	r3, r3
 4993 192a 23F44063 		bic	r3, r3, #3072
 4994 192e 9AB2     		uxth	r2, r3
 4995 1930 7B68     		ldr	r3, [r7, #4]
 4996 1932 1A83     		strh	r2, [r3, #24]	@ movhi
2382:../lib/STM32F10x_StdPeriph_Driver/src/stm32f10x_tim.c ****   /* Set the IC2PSC value */
2383:../lib/STM32F10x_StdPeriph_Driver/src/stm32f10x_tim.c ****   TIMx->CCMR1 |= (uint16_t)(TIM_ICPSC << 8);
 4997              		.loc 1 2383 0
 4998 1934 7B68     		ldr	r3, [r7, #4]
 4999 1936 1B8B     		ldrh	r3, [r3, #24]	@ movhi
 5000 1938 9AB2     		uxth	r2, r3
 5001 193a 7B88     		ldrh	r3, [r7, #2]	@ movhi
 5002 193c 4FEA0323 		lsl	r3, r3, #8
 5003 1940 9BB2     		uxth	r3, r3
 5004 1942 1343     		orrs	r3, r3, r2
 5005 1944 9AB2     		uxth	r2, r3
 5006 1946 7B68     		ldr	r3, [r7, #4]
 5007 1948 1A83     		strh	r2, [r3, #24]	@ movhi
2384:../lib/STM32F10x_StdPeriph_Driver/src/stm32f10x_tim.c **** }
 5008              		.loc 1 2384 0
 5009 194a 07F10C07 		add	r7, r7, #12
 5010 194e BD46     		mov	sp, r7
 5011 1950 80BC     		pop	{r7}
 5012 1952 7047     		bx	lr
 5013              		.cfi_endproc
 5014              	.LFE102:
 5016              		.align	2
 5017              		.global	TIM_SetIC3Prescaler
 5018              		.thumb
 5019              		.thumb_func
 5021              	TIM_SetIC3Prescaler:
 5022              	.LFB103:
2385:../lib/STM32F10x_StdPeriph_Driver/src/stm32f10x_tim.c **** 
2386:../lib/STM32F10x_StdPeriph_Driver/src/stm32f10x_tim.c **** /**
2387:../lib/STM32F10x_StdPeriph_Driver/src/stm32f10x_tim.c ****   * @brief  Sets the TIMx Input Capture 3 prescaler.
2388:../lib/STM32F10x_StdPeriph_Driver/src/stm32f10x_tim.c ****   * @param  TIMx: where x can be 1, 2, 3, 4, 5 or 8 to select the TIM peripheral.
2389:../lib/STM32F10x_StdPeriph_Driver/src/stm32f10x_tim.c ****   * @param  TIM_ICPSC: specifies the Input Capture3 prescaler new value.
2390:../lib/STM32F10x_StdPeriph_Driver/src/stm32f10x_tim.c ****   *   This parameter can be one of the following values:
2391:../lib/STM32F10x_StdPeriph_Driver/src/stm32f10x_tim.c ****   *     @arg TIM_ICPSC_DIV1: no prescaler
2392:../lib/STM32F10x_StdPeriph_Driver/src/stm32f10x_tim.c ****   *     @arg TIM_ICPSC_DIV2: capture is done once every 2 events
2393:../lib/STM32F10x_StdPeriph_Driver/src/stm32f10x_tim.c ****   *     @arg TIM_ICPSC_DIV4: capture is done once every 4 events
2394:../lib/STM32F10x_StdPeriph_Driver/src/stm32f10x_tim.c ****   *     @arg TIM_ICPSC_DIV8: capture is done once every 8 events
2395:../lib/STM32F10x_StdPeriph_Driver/src/stm32f10x_tim.c ****   * @retval None
2396:../lib/STM32F10x_StdPeriph_Driver/src/stm32f10x_tim.c ****   */
2397:../lib/STM32F10x_StdPeriph_Driver/src/stm32f10x_tim.c **** void TIM_SetIC3Prescaler(TIM_TypeDef* TIMx, uint16_t TIM_ICPSC)
2398:../lib/STM32F10x_StdPeriph_Driver/src/stm32f10x_tim.c **** {
 5023              		.loc 1 2398 0
 5024              		.cfi_startproc
 5025              		@ args = 0, pretend = 0, frame = 8
 5026              		@ frame_needed = 1, uses_anonymous_args = 0
 5027              		@ link register save eliminated.
 5028 1954 80B4     		push	{r7}
 5029              	.LCFI222:
 5030              		.cfi_def_cfa_offset 4
 5031              		.cfi_offset 7, -4
 5032 1956 83B0     		sub	sp, sp, #12
 5033              	.LCFI223:
 5034              		.cfi_def_cfa_offset 16
 5035 1958 00AF     		add	r7, sp, #0
 5036              	.LCFI224:
 5037              		.cfi_def_cfa_register 7
 5038 195a 7860     		str	r0, [r7, #4]
 5039 195c 0B46     		mov	r3, r1
 5040 195e 7B80     		strh	r3, [r7, #2]	@ movhi
2399:../lib/STM32F10x_StdPeriph_Driver/src/stm32f10x_tim.c ****   /* Check the parameters */
2400:../lib/STM32F10x_StdPeriph_Driver/src/stm32f10x_tim.c ****   assert_param(IS_TIM_LIST3_PERIPH(TIMx));
2401:../lib/STM32F10x_StdPeriph_Driver/src/stm32f10x_tim.c ****   assert_param(IS_TIM_IC_PRESCALER(TIM_ICPSC));
2402:../lib/STM32F10x_StdPeriph_Driver/src/stm32f10x_tim.c ****   /* Reset the IC3PSC Bits */
2403:../lib/STM32F10x_StdPeriph_Driver/src/stm32f10x_tim.c ****   TIMx->CCMR2 &= (uint16_t)~((uint16_t)TIM_CCMR2_IC3PSC);
 5041              		.loc 1 2403 0
 5042 1960 7B68     		ldr	r3, [r7, #4]
 5043 1962 9B8B     		ldrh	r3, [r3, #28]	@ movhi
 5044 1964 9BB2     		uxth	r3, r3
 5045 1966 23F00C03 		bic	r3, r3, #12
 5046 196a 9AB2     		uxth	r2, r3
 5047 196c 7B68     		ldr	r3, [r7, #4]
 5048 196e 9A83     		strh	r2, [r3, #28]	@ movhi
2404:../lib/STM32F10x_StdPeriph_Driver/src/stm32f10x_tim.c ****   /* Set the IC3PSC value */
2405:../lib/STM32F10x_StdPeriph_Driver/src/stm32f10x_tim.c ****   TIMx->CCMR2 |= TIM_ICPSC;
 5049              		.loc 1 2405 0
 5050 1970 7B68     		ldr	r3, [r7, #4]
 5051 1972 9B8B     		ldrh	r3, [r3, #28]	@ movhi
 5052 1974 9AB2     		uxth	r2, r3
 5053 1976 7B88     		ldrh	r3, [r7, #2]	@ movhi
 5054 1978 1343     		orrs	r3, r3, r2
 5055 197a 9AB2     		uxth	r2, r3
 5056 197c 7B68     		ldr	r3, [r7, #4]
 5057 197e 9A83     		strh	r2, [r3, #28]	@ movhi
2406:../lib/STM32F10x_StdPeriph_Driver/src/stm32f10x_tim.c **** }
 5058              		.loc 1 2406 0
 5059 1980 07F10C07 		add	r7, r7, #12
 5060 1984 BD46     		mov	sp, r7
 5061 1986 80BC     		pop	{r7}
 5062 1988 7047     		bx	lr
 5063              		.cfi_endproc
 5064              	.LFE103:
 5066 198a 00BF     		.align	2
 5067              		.global	TIM_SetIC4Prescaler
 5068              		.thumb
 5069              		.thumb_func
 5071              	TIM_SetIC4Prescaler:
 5072              	.LFB104:
2407:../lib/STM32F10x_StdPeriph_Driver/src/stm32f10x_tim.c **** 
2408:../lib/STM32F10x_StdPeriph_Driver/src/stm32f10x_tim.c **** /**
2409:../lib/STM32F10x_StdPeriph_Driver/src/stm32f10x_tim.c ****   * @brief  Sets the TIMx Input Capture 4 prescaler.
2410:../lib/STM32F10x_StdPeriph_Driver/src/stm32f10x_tim.c ****   * @param  TIMx: where x can be 1, 2, 3, 4, 5 or 8 to select the TIM peripheral.
2411:../lib/STM32F10x_StdPeriph_Driver/src/stm32f10x_tim.c ****   * @param  TIM_ICPSC: specifies the Input Capture4 prescaler new value.
2412:../lib/STM32F10x_StdPeriph_Driver/src/stm32f10x_tim.c ****   *   This parameter can be one of the following values:
2413:../lib/STM32F10x_StdPeriph_Driver/src/stm32f10x_tim.c ****   *     @arg TIM_ICPSC_DIV1: no prescaler
2414:../lib/STM32F10x_StdPeriph_Driver/src/stm32f10x_tim.c ****   *     @arg TIM_ICPSC_DIV2: capture is done once every 2 events
2415:../lib/STM32F10x_StdPeriph_Driver/src/stm32f10x_tim.c ****   *     @arg TIM_ICPSC_DIV4: capture is done once every 4 events
2416:../lib/STM32F10x_StdPeriph_Driver/src/stm32f10x_tim.c ****   *     @arg TIM_ICPSC_DIV8: capture is done once every 8 events
2417:../lib/STM32F10x_StdPeriph_Driver/src/stm32f10x_tim.c ****   * @retval None
2418:../lib/STM32F10x_StdPeriph_Driver/src/stm32f10x_tim.c ****   */
2419:../lib/STM32F10x_StdPeriph_Driver/src/stm32f10x_tim.c **** void TIM_SetIC4Prescaler(TIM_TypeDef* TIMx, uint16_t TIM_ICPSC)
2420:../lib/STM32F10x_StdPeriph_Driver/src/stm32f10x_tim.c **** {  
 5073              		.loc 1 2420 0
 5074              		.cfi_startproc
 5075              		@ args = 0, pretend = 0, frame = 8
 5076              		@ frame_needed = 1, uses_anonymous_args = 0
 5077              		@ link register save eliminated.
 5078 198c 80B4     		push	{r7}
 5079              	.LCFI225:
 5080              		.cfi_def_cfa_offset 4
 5081              		.cfi_offset 7, -4
 5082 198e 83B0     		sub	sp, sp, #12
 5083              	.LCFI226:
 5084              		.cfi_def_cfa_offset 16
 5085 1990 00AF     		add	r7, sp, #0
 5086              	.LCFI227:
 5087              		.cfi_def_cfa_register 7
 5088 1992 7860     		str	r0, [r7, #4]
 5089 1994 0B46     		mov	r3, r1
 5090 1996 7B80     		strh	r3, [r7, #2]	@ movhi
2421:../lib/STM32F10x_StdPeriph_Driver/src/stm32f10x_tim.c ****   /* Check the parameters */
2422:../lib/STM32F10x_StdPeriph_Driver/src/stm32f10x_tim.c ****   assert_param(IS_TIM_LIST3_PERIPH(TIMx));
2423:../lib/STM32F10x_StdPeriph_Driver/src/stm32f10x_tim.c ****   assert_param(IS_TIM_IC_PRESCALER(TIM_ICPSC));
2424:../lib/STM32F10x_StdPeriph_Driver/src/stm32f10x_tim.c ****   /* Reset the IC4PSC Bits */
2425:../lib/STM32F10x_StdPeriph_Driver/src/stm32f10x_tim.c ****   TIMx->CCMR2 &= (uint16_t)~((uint16_t)TIM_CCMR2_IC4PSC);
 5091              		.loc 1 2425 0
 5092 1998 7B68     		ldr	r3, [r7, #4]
 5093 199a 9B8B     		ldrh	r3, [r3, #28]	@ movhi
 5094 199c 9BB2     		uxth	r3, r3
 5095 199e 23F44063 		bic	r3, r3, #3072
 5096 19a2 9AB2     		uxth	r2, r3
 5097 19a4 7B68     		ldr	r3, [r7, #4]
 5098 19a6 9A83     		strh	r2, [r3, #28]	@ movhi
2426:../lib/STM32F10x_StdPeriph_Driver/src/stm32f10x_tim.c ****   /* Set the IC4PSC value */
2427:../lib/STM32F10x_StdPeriph_Driver/src/stm32f10x_tim.c ****   TIMx->CCMR2 |= (uint16_t)(TIM_ICPSC << 8);
 5099              		.loc 1 2427 0
 5100 19a8 7B68     		ldr	r3, [r7, #4]
 5101 19aa 9B8B     		ldrh	r3, [r3, #28]	@ movhi
 5102 19ac 9AB2     		uxth	r2, r3
 5103 19ae 7B88     		ldrh	r3, [r7, #2]	@ movhi
 5104 19b0 4FEA0323 		lsl	r3, r3, #8
 5105 19b4 9BB2     		uxth	r3, r3
 5106 19b6 1343     		orrs	r3, r3, r2
 5107 19b8 9AB2     		uxth	r2, r3
 5108 19ba 7B68     		ldr	r3, [r7, #4]
 5109 19bc 9A83     		strh	r2, [r3, #28]	@ movhi
2428:../lib/STM32F10x_StdPeriph_Driver/src/stm32f10x_tim.c **** }
 5110              		.loc 1 2428 0
 5111 19be 07F10C07 		add	r7, r7, #12
 5112 19c2 BD46     		mov	sp, r7
 5113 19c4 80BC     		pop	{r7}
 5114 19c6 7047     		bx	lr
 5115              		.cfi_endproc
 5116              	.LFE104:
 5118              		.align	2
 5119              		.global	TIM_SetClockDivision
 5120              		.thumb
 5121              		.thumb_func
 5123              	TIM_SetClockDivision:
 5124              	.LFB105:
2429:../lib/STM32F10x_StdPeriph_Driver/src/stm32f10x_tim.c **** 
2430:../lib/STM32F10x_StdPeriph_Driver/src/stm32f10x_tim.c **** /**
2431:../lib/STM32F10x_StdPeriph_Driver/src/stm32f10x_tim.c ****   * @brief  Sets the TIMx Clock Division value.
2432:../lib/STM32F10x_StdPeriph_Driver/src/stm32f10x_tim.c ****   * @param  TIMx: where x can be  1 to 17 except 6 and 7 to select 
2433:../lib/STM32F10x_StdPeriph_Driver/src/stm32f10x_tim.c ****   *   the TIM peripheral.
2434:../lib/STM32F10x_StdPeriph_Driver/src/stm32f10x_tim.c ****   * @param  TIM_CKD: specifies the clock division value.
2435:../lib/STM32F10x_StdPeriph_Driver/src/stm32f10x_tim.c ****   *   This parameter can be one of the following value:
2436:../lib/STM32F10x_StdPeriph_Driver/src/stm32f10x_tim.c ****   *     @arg TIM_CKD_DIV1: TDTS = Tck_tim
2437:../lib/STM32F10x_StdPeriph_Driver/src/stm32f10x_tim.c ****   *     @arg TIM_CKD_DIV2: TDTS = 2*Tck_tim
2438:../lib/STM32F10x_StdPeriph_Driver/src/stm32f10x_tim.c ****   *     @arg TIM_CKD_DIV4: TDTS = 4*Tck_tim
2439:../lib/STM32F10x_StdPeriph_Driver/src/stm32f10x_tim.c ****   * @retval None
2440:../lib/STM32F10x_StdPeriph_Driver/src/stm32f10x_tim.c ****   */
2441:../lib/STM32F10x_StdPeriph_Driver/src/stm32f10x_tim.c **** void TIM_SetClockDivision(TIM_TypeDef* TIMx, uint16_t TIM_CKD)
2442:../lib/STM32F10x_StdPeriph_Driver/src/stm32f10x_tim.c **** {
 5125              		.loc 1 2442 0
 5126              		.cfi_startproc
 5127              		@ args = 0, pretend = 0, frame = 8
 5128              		@ frame_needed = 1, uses_anonymous_args = 0
 5129              		@ link register save eliminated.
 5130 19c8 80B4     		push	{r7}
 5131              	.LCFI228:
 5132              		.cfi_def_cfa_offset 4
 5133              		.cfi_offset 7, -4
 5134 19ca 83B0     		sub	sp, sp, #12
 5135              	.LCFI229:
 5136              		.cfi_def_cfa_offset 16
 5137 19cc 00AF     		add	r7, sp, #0
 5138              	.LCFI230:
 5139              		.cfi_def_cfa_register 7
 5140 19ce 7860     		str	r0, [r7, #4]
 5141 19d0 0B46     		mov	r3, r1
 5142 19d2 7B80     		strh	r3, [r7, #2]	@ movhi
2443:../lib/STM32F10x_StdPeriph_Driver/src/stm32f10x_tim.c ****   /* Check the parameters */
2444:../lib/STM32F10x_StdPeriph_Driver/src/stm32f10x_tim.c ****   assert_param(IS_TIM_LIST8_PERIPH(TIMx));
2445:../lib/STM32F10x_StdPeriph_Driver/src/stm32f10x_tim.c ****   assert_param(IS_TIM_CKD_DIV(TIM_CKD));
2446:../lib/STM32F10x_StdPeriph_Driver/src/stm32f10x_tim.c ****   /* Reset the CKD Bits */
2447:../lib/STM32F10x_StdPeriph_Driver/src/stm32f10x_tim.c ****   TIMx->CR1 &= (uint16_t)~((uint16_t)TIM_CR1_CKD);
 5143              		.loc 1 2447 0
 5144 19d4 7B68     		ldr	r3, [r7, #4]
 5145 19d6 1B88     		ldrh	r3, [r3, #0]	@ movhi
 5146 19d8 9BB2     		uxth	r3, r3
 5147 19da 23F44073 		bic	r3, r3, #768
 5148 19de 9AB2     		uxth	r2, r3
 5149 19e0 7B68     		ldr	r3, [r7, #4]
 5150 19e2 1A80     		strh	r2, [r3, #0]	@ movhi
2448:../lib/STM32F10x_StdPeriph_Driver/src/stm32f10x_tim.c ****   /* Set the CKD value */
2449:../lib/STM32F10x_StdPeriph_Driver/src/stm32f10x_tim.c ****   TIMx->CR1 |= TIM_CKD;
 5151              		.loc 1 2449 0
 5152 19e4 7B68     		ldr	r3, [r7, #4]
 5153 19e6 1B88     		ldrh	r3, [r3, #0]	@ movhi
 5154 19e8 9AB2     		uxth	r2, r3
 5155 19ea 7B88     		ldrh	r3, [r7, #2]	@ movhi
 5156 19ec 1343     		orrs	r3, r3, r2
 5157 19ee 9AB2     		uxth	r2, r3
 5158 19f0 7B68     		ldr	r3, [r7, #4]
 5159 19f2 1A80     		strh	r2, [r3, #0]	@ movhi
2450:../lib/STM32F10x_StdPeriph_Driver/src/stm32f10x_tim.c **** }
 5160              		.loc 1 2450 0
 5161 19f4 07F10C07 		add	r7, r7, #12
 5162 19f8 BD46     		mov	sp, r7
 5163 19fa 80BC     		pop	{r7}
 5164 19fc 7047     		bx	lr
 5165              		.cfi_endproc
 5166              	.LFE105:
 5168 19fe 00BF     		.align	2
 5169              		.global	TIM_GetCapture1
 5170              		.thumb
 5171              		.thumb_func
 5173              	TIM_GetCapture1:
 5174              	.LFB106:
2451:../lib/STM32F10x_StdPeriph_Driver/src/stm32f10x_tim.c **** 
2452:../lib/STM32F10x_StdPeriph_Driver/src/stm32f10x_tim.c **** /**
2453:../lib/STM32F10x_StdPeriph_Driver/src/stm32f10x_tim.c ****   * @brief  Gets the TIMx Input Capture 1 value.
2454:../lib/STM32F10x_StdPeriph_Driver/src/stm32f10x_tim.c ****   * @param  TIMx: where x can be 1 to 17 except 6 and 7 to select the TIM peripheral.
2455:../lib/STM32F10x_StdPeriph_Driver/src/stm32f10x_tim.c ****   * @retval Capture Compare 1 Register value.
2456:../lib/STM32F10x_StdPeriph_Driver/src/stm32f10x_tim.c ****   */
2457:../lib/STM32F10x_StdPeriph_Driver/src/stm32f10x_tim.c **** uint16_t TIM_GetCapture1(TIM_TypeDef* TIMx)
2458:../lib/STM32F10x_StdPeriph_Driver/src/stm32f10x_tim.c **** {
 5175              		.loc 1 2458 0
 5176              		.cfi_startproc
 5177              		@ args = 0, pretend = 0, frame = 8
 5178              		@ frame_needed = 1, uses_anonymous_args = 0
 5179              		@ link register save eliminated.
 5180 1a00 80B4     		push	{r7}
 5181              	.LCFI231:
 5182              		.cfi_def_cfa_offset 4
 5183              		.cfi_offset 7, -4
 5184 1a02 83B0     		sub	sp, sp, #12
 5185              	.LCFI232:
 5186              		.cfi_def_cfa_offset 16
 5187 1a04 00AF     		add	r7, sp, #0
 5188              	.LCFI233:
 5189              		.cfi_def_cfa_register 7
 5190 1a06 7860     		str	r0, [r7, #4]
2459:../lib/STM32F10x_StdPeriph_Driver/src/stm32f10x_tim.c ****   /* Check the parameters */
2460:../lib/STM32F10x_StdPeriph_Driver/src/stm32f10x_tim.c ****   assert_param(IS_TIM_LIST8_PERIPH(TIMx));
2461:../lib/STM32F10x_StdPeriph_Driver/src/stm32f10x_tim.c ****   /* Get the Capture 1 Register value */
2462:../lib/STM32F10x_StdPeriph_Driver/src/stm32f10x_tim.c ****   return TIMx->CCR1;
 5191              		.loc 1 2462 0
 5192 1a08 7B68     		ldr	r3, [r7, #4]
 5193 1a0a 9B8E     		ldrh	r3, [r3, #52]	@ movhi
 5194 1a0c 9BB2     		uxth	r3, r3
2463:../lib/STM32F10x_StdPeriph_Driver/src/stm32f10x_tim.c **** }
 5195              		.loc 1 2463 0
 5196 1a0e 1846     		mov	r0, r3
 5197 1a10 07F10C07 		add	r7, r7, #12
 5198 1a14 BD46     		mov	sp, r7
 5199 1a16 80BC     		pop	{r7}
 5200 1a18 7047     		bx	lr
 5201              		.cfi_endproc
 5202              	.LFE106:
 5204 1a1a 00BF     		.align	2
 5205              		.global	TIM_GetCapture2
 5206              		.thumb
 5207              		.thumb_func
 5209              	TIM_GetCapture2:
 5210              	.LFB107:
2464:../lib/STM32F10x_StdPeriph_Driver/src/stm32f10x_tim.c **** 
2465:../lib/STM32F10x_StdPeriph_Driver/src/stm32f10x_tim.c **** /**
2466:../lib/STM32F10x_StdPeriph_Driver/src/stm32f10x_tim.c ****   * @brief  Gets the TIMx Input Capture 2 value.
2467:../lib/STM32F10x_StdPeriph_Driver/src/stm32f10x_tim.c ****   * @param  TIMx: where x can be 1, 2, 3, 4, 5, 8, 9, 12 or 15 to select the TIM peripheral.
2468:../lib/STM32F10x_StdPeriph_Driver/src/stm32f10x_tim.c ****   * @retval Capture Compare 2 Register value.
2469:../lib/STM32F10x_StdPeriph_Driver/src/stm32f10x_tim.c ****   */
2470:../lib/STM32F10x_StdPeriph_Driver/src/stm32f10x_tim.c **** uint16_t TIM_GetCapture2(TIM_TypeDef* TIMx)
2471:../lib/STM32F10x_StdPeriph_Driver/src/stm32f10x_tim.c **** {
 5211              		.loc 1 2471 0
 5212              		.cfi_startproc
 5213              		@ args = 0, pretend = 0, frame = 8
 5214              		@ frame_needed = 1, uses_anonymous_args = 0
 5215              		@ link register save eliminated.
 5216 1a1c 80B4     		push	{r7}
 5217              	.LCFI234:
 5218              		.cfi_def_cfa_offset 4
 5219              		.cfi_offset 7, -4
 5220 1a1e 83B0     		sub	sp, sp, #12
 5221              	.LCFI235:
 5222              		.cfi_def_cfa_offset 16
 5223 1a20 00AF     		add	r7, sp, #0
 5224              	.LCFI236:
 5225              		.cfi_def_cfa_register 7
 5226 1a22 7860     		str	r0, [r7, #4]
2472:../lib/STM32F10x_StdPeriph_Driver/src/stm32f10x_tim.c ****   /* Check the parameters */
2473:../lib/STM32F10x_StdPeriph_Driver/src/stm32f10x_tim.c ****   assert_param(IS_TIM_LIST6_PERIPH(TIMx));
2474:../lib/STM32F10x_StdPeriph_Driver/src/stm32f10x_tim.c ****   /* Get the Capture 2 Register value */
2475:../lib/STM32F10x_StdPeriph_Driver/src/stm32f10x_tim.c ****   return TIMx->CCR2;
 5227              		.loc 1 2475 0
 5228 1a24 7B68     		ldr	r3, [r7, #4]
 5229 1a26 1B8F     		ldrh	r3, [r3, #56]	@ movhi
 5230 1a28 9BB2     		uxth	r3, r3
2476:../lib/STM32F10x_StdPeriph_Driver/src/stm32f10x_tim.c **** }
 5231              		.loc 1 2476 0
 5232 1a2a 1846     		mov	r0, r3
 5233 1a2c 07F10C07 		add	r7, r7, #12
 5234 1a30 BD46     		mov	sp, r7
 5235 1a32 80BC     		pop	{r7}
 5236 1a34 7047     		bx	lr
 5237              		.cfi_endproc
 5238              	.LFE107:
 5240 1a36 00BF     		.align	2
 5241              		.global	TIM_GetCapture3
 5242              		.thumb
 5243              		.thumb_func
 5245              	TIM_GetCapture3:
 5246              	.LFB108:
2477:../lib/STM32F10x_StdPeriph_Driver/src/stm32f10x_tim.c **** 
2478:../lib/STM32F10x_StdPeriph_Driver/src/stm32f10x_tim.c **** /**
2479:../lib/STM32F10x_StdPeriph_Driver/src/stm32f10x_tim.c ****   * @brief  Gets the TIMx Input Capture 3 value.
2480:../lib/STM32F10x_StdPeriph_Driver/src/stm32f10x_tim.c ****   * @param  TIMx: where x can be 1, 2, 3, 4, 5 or 8 to select the TIM peripheral.
2481:../lib/STM32F10x_StdPeriph_Driver/src/stm32f10x_tim.c ****   * @retval Capture Compare 3 Register value.
2482:../lib/STM32F10x_StdPeriph_Driver/src/stm32f10x_tim.c ****   */
2483:../lib/STM32F10x_StdPeriph_Driver/src/stm32f10x_tim.c **** uint16_t TIM_GetCapture3(TIM_TypeDef* TIMx)
2484:../lib/STM32F10x_StdPeriph_Driver/src/stm32f10x_tim.c **** {
 5247              		.loc 1 2484 0
 5248              		.cfi_startproc
 5249              		@ args = 0, pretend = 0, frame = 8
 5250              		@ frame_needed = 1, uses_anonymous_args = 0
 5251              		@ link register save eliminated.
 5252 1a38 80B4     		push	{r7}
 5253              	.LCFI237:
 5254              		.cfi_def_cfa_offset 4
 5255              		.cfi_offset 7, -4
 5256 1a3a 83B0     		sub	sp, sp, #12
 5257              	.LCFI238:
 5258              		.cfi_def_cfa_offset 16
 5259 1a3c 00AF     		add	r7, sp, #0
 5260              	.LCFI239:
 5261              		.cfi_def_cfa_register 7
 5262 1a3e 7860     		str	r0, [r7, #4]
2485:../lib/STM32F10x_StdPeriph_Driver/src/stm32f10x_tim.c ****   /* Check the parameters */
2486:../lib/STM32F10x_StdPeriph_Driver/src/stm32f10x_tim.c ****   assert_param(IS_TIM_LIST3_PERIPH(TIMx)); 
2487:../lib/STM32F10x_StdPeriph_Driver/src/stm32f10x_tim.c ****   /* Get the Capture 3 Register value */
2488:../lib/STM32F10x_StdPeriph_Driver/src/stm32f10x_tim.c ****   return TIMx->CCR3;
 5263              		.loc 1 2488 0
 5264 1a40 7B68     		ldr	r3, [r7, #4]
 5265 1a42 9B8F     		ldrh	r3, [r3, #60]	@ movhi
 5266 1a44 9BB2     		uxth	r3, r3
2489:../lib/STM32F10x_StdPeriph_Driver/src/stm32f10x_tim.c **** }
 5267              		.loc 1 2489 0
 5268 1a46 1846     		mov	r0, r3
 5269 1a48 07F10C07 		add	r7, r7, #12
 5270 1a4c BD46     		mov	sp, r7
 5271 1a4e 80BC     		pop	{r7}
 5272 1a50 7047     		bx	lr
 5273              		.cfi_endproc
 5274              	.LFE108:
 5276 1a52 00BF     		.align	2
 5277              		.global	TIM_GetCapture4
 5278              		.thumb
 5279              		.thumb_func
 5281              	TIM_GetCapture4:
 5282              	.LFB109:
2490:../lib/STM32F10x_StdPeriph_Driver/src/stm32f10x_tim.c **** 
2491:../lib/STM32F10x_StdPeriph_Driver/src/stm32f10x_tim.c **** /**
2492:../lib/STM32F10x_StdPeriph_Driver/src/stm32f10x_tim.c ****   * @brief  Gets the TIMx Input Capture 4 value.
2493:../lib/STM32F10x_StdPeriph_Driver/src/stm32f10x_tim.c ****   * @param  TIMx: where x can be 1, 2, 3, 4, 5 or 8 to select the TIM peripheral.
2494:../lib/STM32F10x_StdPeriph_Driver/src/stm32f10x_tim.c ****   * @retval Capture Compare 4 Register value.
2495:../lib/STM32F10x_StdPeriph_Driver/src/stm32f10x_tim.c ****   */
2496:../lib/STM32F10x_StdPeriph_Driver/src/stm32f10x_tim.c **** uint16_t TIM_GetCapture4(TIM_TypeDef* TIMx)
2497:../lib/STM32F10x_StdPeriph_Driver/src/stm32f10x_tim.c **** {
 5283              		.loc 1 2497 0
 5284              		.cfi_startproc
 5285              		@ args = 0, pretend = 0, frame = 8
 5286              		@ frame_needed = 1, uses_anonymous_args = 0
 5287              		@ link register save eliminated.
 5288 1a54 80B4     		push	{r7}
 5289              	.LCFI240:
 5290              		.cfi_def_cfa_offset 4
 5291              		.cfi_offset 7, -4
 5292 1a56 83B0     		sub	sp, sp, #12
 5293              	.LCFI241:
 5294              		.cfi_def_cfa_offset 16
 5295 1a58 00AF     		add	r7, sp, #0
 5296              	.LCFI242:
 5297              		.cfi_def_cfa_register 7
 5298 1a5a 7860     		str	r0, [r7, #4]
2498:../lib/STM32F10x_StdPeriph_Driver/src/stm32f10x_tim.c ****   /* Check the parameters */
2499:../lib/STM32F10x_StdPeriph_Driver/src/stm32f10x_tim.c ****   assert_param(IS_TIM_LIST3_PERIPH(TIMx));
2500:../lib/STM32F10x_StdPeriph_Driver/src/stm32f10x_tim.c ****   /* Get the Capture 4 Register value */
2501:../lib/STM32F10x_StdPeriph_Driver/src/stm32f10x_tim.c ****   return TIMx->CCR4;
 5299              		.loc 1 2501 0
 5300 1a5c 7B68     		ldr	r3, [r7, #4]
 5301 1a5e B3F84030 		ldrh	r3, [r3, #64]	@ movhi
 5302 1a62 9BB2     		uxth	r3, r3
2502:../lib/STM32F10x_StdPeriph_Driver/src/stm32f10x_tim.c **** }
 5303              		.loc 1 2502 0
 5304 1a64 1846     		mov	r0, r3
 5305 1a66 07F10C07 		add	r7, r7, #12
 5306 1a6a BD46     		mov	sp, r7
 5307 1a6c 80BC     		pop	{r7}
 5308 1a6e 7047     		bx	lr
 5309              		.cfi_endproc
 5310              	.LFE109:
 5312              		.align	2
 5313              		.global	TIM_GetCounter
 5314              		.thumb
 5315              		.thumb_func
 5317              	TIM_GetCounter:
 5318              	.LFB110:
2503:../lib/STM32F10x_StdPeriph_Driver/src/stm32f10x_tim.c **** 
2504:../lib/STM32F10x_StdPeriph_Driver/src/stm32f10x_tim.c **** /**
2505:../lib/STM32F10x_StdPeriph_Driver/src/stm32f10x_tim.c ****   * @brief  Gets the TIMx Counter value.
2506:../lib/STM32F10x_StdPeriph_Driver/src/stm32f10x_tim.c ****   * @param  TIMx: where x can be 1 to 17 to select the TIM peripheral.
2507:../lib/STM32F10x_StdPeriph_Driver/src/stm32f10x_tim.c ****   * @retval Counter Register value.
2508:../lib/STM32F10x_StdPeriph_Driver/src/stm32f10x_tim.c ****   */
2509:../lib/STM32F10x_StdPeriph_Driver/src/stm32f10x_tim.c **** uint16_t TIM_GetCounter(TIM_TypeDef* TIMx)
2510:../lib/STM32F10x_StdPeriph_Driver/src/stm32f10x_tim.c **** {
 5319              		.loc 1 2510 0
 5320              		.cfi_startproc
 5321              		@ args = 0, pretend = 0, frame = 8
 5322              		@ frame_needed = 1, uses_anonymous_args = 0
 5323              		@ link register save eliminated.
 5324 1a70 80B4     		push	{r7}
 5325              	.LCFI243:
 5326              		.cfi_def_cfa_offset 4
 5327              		.cfi_offset 7, -4
 5328 1a72 83B0     		sub	sp, sp, #12
 5329              	.LCFI244:
 5330              		.cfi_def_cfa_offset 16
 5331 1a74 00AF     		add	r7, sp, #0
 5332              	.LCFI245:
 5333              		.cfi_def_cfa_register 7
 5334 1a76 7860     		str	r0, [r7, #4]
2511:../lib/STM32F10x_StdPeriph_Driver/src/stm32f10x_tim.c ****   /* Check the parameters */
2512:../lib/STM32F10x_StdPeriph_Driver/src/stm32f10x_tim.c ****   assert_param(IS_TIM_ALL_PERIPH(TIMx));
2513:../lib/STM32F10x_StdPeriph_Driver/src/stm32f10x_tim.c ****   /* Get the Counter Register value */
2514:../lib/STM32F10x_StdPeriph_Driver/src/stm32f10x_tim.c ****   return TIMx->CNT;
 5335              		.loc 1 2514 0
 5336 1a78 7B68     		ldr	r3, [r7, #4]
 5337 1a7a 9B8C     		ldrh	r3, [r3, #36]	@ movhi
 5338 1a7c 9BB2     		uxth	r3, r3
2515:../lib/STM32F10x_StdPeriph_Driver/src/stm32f10x_tim.c **** }
 5339              		.loc 1 2515 0
 5340 1a7e 1846     		mov	r0, r3
 5341 1a80 07F10C07 		add	r7, r7, #12
 5342 1a84 BD46     		mov	sp, r7
 5343 1a86 80BC     		pop	{r7}
 5344 1a88 7047     		bx	lr
 5345              		.cfi_endproc
 5346              	.LFE110:
 5348 1a8a 00BF     		.align	2
 5349              		.global	TIM_GetPrescaler
 5350              		.thumb
 5351              		.thumb_func
 5353              	TIM_GetPrescaler:
 5354              	.LFB111:
2516:../lib/STM32F10x_StdPeriph_Driver/src/stm32f10x_tim.c **** 
2517:../lib/STM32F10x_StdPeriph_Driver/src/stm32f10x_tim.c **** /**
2518:../lib/STM32F10x_StdPeriph_Driver/src/stm32f10x_tim.c ****   * @brief  Gets the TIMx Prescaler value.
2519:../lib/STM32F10x_StdPeriph_Driver/src/stm32f10x_tim.c ****   * @param  TIMx: where x can be 1 to 17 to select the TIM peripheral.
2520:../lib/STM32F10x_StdPeriph_Driver/src/stm32f10x_tim.c ****   * @retval Prescaler Register value.
2521:../lib/STM32F10x_StdPeriph_Driver/src/stm32f10x_tim.c ****   */
2522:../lib/STM32F10x_StdPeriph_Driver/src/stm32f10x_tim.c **** uint16_t TIM_GetPrescaler(TIM_TypeDef* TIMx)
2523:../lib/STM32F10x_StdPeriph_Driver/src/stm32f10x_tim.c **** {
 5355              		.loc 1 2523 0
 5356              		.cfi_startproc
 5357              		@ args = 0, pretend = 0, frame = 8
 5358              		@ frame_needed = 1, uses_anonymous_args = 0
 5359              		@ link register save eliminated.
 5360 1a8c 80B4     		push	{r7}
 5361              	.LCFI246:
 5362              		.cfi_def_cfa_offset 4
 5363              		.cfi_offset 7, -4
 5364 1a8e 83B0     		sub	sp, sp, #12
 5365              	.LCFI247:
 5366              		.cfi_def_cfa_offset 16
 5367 1a90 00AF     		add	r7, sp, #0
 5368              	.LCFI248:
 5369              		.cfi_def_cfa_register 7
 5370 1a92 7860     		str	r0, [r7, #4]
2524:../lib/STM32F10x_StdPeriph_Driver/src/stm32f10x_tim.c ****   /* Check the parameters */
2525:../lib/STM32F10x_StdPeriph_Driver/src/stm32f10x_tim.c ****   assert_param(IS_TIM_ALL_PERIPH(TIMx));
2526:../lib/STM32F10x_StdPeriph_Driver/src/stm32f10x_tim.c ****   /* Get the Prescaler Register value */
2527:../lib/STM32F10x_StdPeriph_Driver/src/stm32f10x_tim.c ****   return TIMx->PSC;
 5371              		.loc 1 2527 0
 5372 1a94 7B68     		ldr	r3, [r7, #4]
 5373 1a96 1B8D     		ldrh	r3, [r3, #40]	@ movhi
 5374 1a98 9BB2     		uxth	r3, r3
2528:../lib/STM32F10x_StdPeriph_Driver/src/stm32f10x_tim.c **** }
 5375              		.loc 1 2528 0
 5376 1a9a 1846     		mov	r0, r3
 5377 1a9c 07F10C07 		add	r7, r7, #12
 5378 1aa0 BD46     		mov	sp, r7
 5379 1aa2 80BC     		pop	{r7}
 5380 1aa4 7047     		bx	lr
 5381              		.cfi_endproc
 5382              	.LFE111:
 5384 1aa6 00BF     		.align	2
 5385              		.global	TIM_GetFlagStatus
 5386              		.thumb
 5387              		.thumb_func
 5389              	TIM_GetFlagStatus:
 5390              	.LFB112:
2529:../lib/STM32F10x_StdPeriph_Driver/src/stm32f10x_tim.c **** 
2530:../lib/STM32F10x_StdPeriph_Driver/src/stm32f10x_tim.c **** /**
2531:../lib/STM32F10x_StdPeriph_Driver/src/stm32f10x_tim.c ****   * @brief  Checks whether the specified TIM flag is set or not.
2532:../lib/STM32F10x_StdPeriph_Driver/src/stm32f10x_tim.c ****   * @param  TIMx: where x can be 1 to 17 to select the TIM peripheral.
2533:../lib/STM32F10x_StdPeriph_Driver/src/stm32f10x_tim.c ****   * @param  TIM_FLAG: specifies the flag to check.
2534:../lib/STM32F10x_StdPeriph_Driver/src/stm32f10x_tim.c ****   *   This parameter can be one of the following values:
2535:../lib/STM32F10x_StdPeriph_Driver/src/stm32f10x_tim.c ****   *     @arg TIM_FLAG_Update: TIM update Flag
2536:../lib/STM32F10x_StdPeriph_Driver/src/stm32f10x_tim.c ****   *     @arg TIM_FLAG_CC1: TIM Capture Compare 1 Flag
2537:../lib/STM32F10x_StdPeriph_Driver/src/stm32f10x_tim.c ****   *     @arg TIM_FLAG_CC2: TIM Capture Compare 2 Flag
2538:../lib/STM32F10x_StdPeriph_Driver/src/stm32f10x_tim.c ****   *     @arg TIM_FLAG_CC3: TIM Capture Compare 3 Flag
2539:../lib/STM32F10x_StdPeriph_Driver/src/stm32f10x_tim.c ****   *     @arg TIM_FLAG_CC4: TIM Capture Compare 4 Flag
2540:../lib/STM32F10x_StdPeriph_Driver/src/stm32f10x_tim.c ****   *     @arg TIM_FLAG_COM: TIM Commutation Flag
2541:../lib/STM32F10x_StdPeriph_Driver/src/stm32f10x_tim.c ****   *     @arg TIM_FLAG_Trigger: TIM Trigger Flag
2542:../lib/STM32F10x_StdPeriph_Driver/src/stm32f10x_tim.c ****   *     @arg TIM_FLAG_Break: TIM Break Flag
2543:../lib/STM32F10x_StdPeriph_Driver/src/stm32f10x_tim.c ****   *     @arg TIM_FLAG_CC1OF: TIM Capture Compare 1 overcapture Flag
2544:../lib/STM32F10x_StdPeriph_Driver/src/stm32f10x_tim.c ****   *     @arg TIM_FLAG_CC2OF: TIM Capture Compare 2 overcapture Flag
2545:../lib/STM32F10x_StdPeriph_Driver/src/stm32f10x_tim.c ****   *     @arg TIM_FLAG_CC3OF: TIM Capture Compare 3 overcapture Flag
2546:../lib/STM32F10x_StdPeriph_Driver/src/stm32f10x_tim.c ****   *     @arg TIM_FLAG_CC4OF: TIM Capture Compare 4 overcapture Flag
2547:../lib/STM32F10x_StdPeriph_Driver/src/stm32f10x_tim.c ****   * @note
2548:../lib/STM32F10x_StdPeriph_Driver/src/stm32f10x_tim.c ****   *   - TIM6 and TIM7 can have only one update flag. 
2549:../lib/STM32F10x_StdPeriph_Driver/src/stm32f10x_tim.c ****   *   - TIM9, TIM12 and TIM15 can have only TIM_FLAG_Update, TIM_FLAG_CC1,
2550:../lib/STM32F10x_StdPeriph_Driver/src/stm32f10x_tim.c ****   *      TIM_FLAG_CC2 or TIM_FLAG_Trigger. 
2551:../lib/STM32F10x_StdPeriph_Driver/src/stm32f10x_tim.c ****   *   - TIM10, TIM11, TIM13, TIM14, TIM16 and TIM17 can have TIM_FLAG_Update or TIM_FLAG_CC1.   
2552:../lib/STM32F10x_StdPeriph_Driver/src/stm32f10x_tim.c ****   *   - TIM_FLAG_Break is used only with TIM1, TIM8 and TIM15. 
2553:../lib/STM32F10x_StdPeriph_Driver/src/stm32f10x_tim.c ****   *   - TIM_FLAG_COM is used only with TIM1, TIM8, TIM15, TIM16 and TIM17.    
2554:../lib/STM32F10x_StdPeriph_Driver/src/stm32f10x_tim.c ****   * @retval The new state of TIM_FLAG (SET or RESET).
2555:../lib/STM32F10x_StdPeriph_Driver/src/stm32f10x_tim.c ****   */
2556:../lib/STM32F10x_StdPeriph_Driver/src/stm32f10x_tim.c **** FlagStatus TIM_GetFlagStatus(TIM_TypeDef* TIMx, uint16_t TIM_FLAG)
2557:../lib/STM32F10x_StdPeriph_Driver/src/stm32f10x_tim.c **** { 
 5391              		.loc 1 2557 0
 5392              		.cfi_startproc
 5393              		@ args = 0, pretend = 0, frame = 16
 5394              		@ frame_needed = 1, uses_anonymous_args = 0
 5395              		@ link register save eliminated.
 5396 1aa8 80B4     		push	{r7}
 5397              	.LCFI249:
 5398              		.cfi_def_cfa_offset 4
 5399              		.cfi_offset 7, -4
 5400 1aaa 85B0     		sub	sp, sp, #20
 5401              	.LCFI250:
 5402              		.cfi_def_cfa_offset 24
 5403 1aac 00AF     		add	r7, sp, #0
 5404              	.LCFI251:
 5405              		.cfi_def_cfa_register 7
 5406 1aae 7860     		str	r0, [r7, #4]
 5407 1ab0 0B46     		mov	r3, r1
 5408 1ab2 7B80     		strh	r3, [r7, #2]	@ movhi
2558:../lib/STM32F10x_StdPeriph_Driver/src/stm32f10x_tim.c ****   ITStatus bitstatus = RESET;  
 5409              		.loc 1 2558 0
 5410 1ab4 4FF00003 		mov	r3, #0
 5411 1ab8 FB73     		strb	r3, [r7, #15]
2559:../lib/STM32F10x_StdPeriph_Driver/src/stm32f10x_tim.c ****   /* Check the parameters */
2560:../lib/STM32F10x_StdPeriph_Driver/src/stm32f10x_tim.c ****   assert_param(IS_TIM_ALL_PERIPH(TIMx));
2561:../lib/STM32F10x_StdPeriph_Driver/src/stm32f10x_tim.c ****   assert_param(IS_TIM_GET_FLAG(TIM_FLAG));
2562:../lib/STM32F10x_StdPeriph_Driver/src/stm32f10x_tim.c ****   
2563:../lib/STM32F10x_StdPeriph_Driver/src/stm32f10x_tim.c ****   if ((TIMx->SR & TIM_FLAG) != (uint16_t)RESET)
 5412              		.loc 1 2563 0
 5413 1aba 7B68     		ldr	r3, [r7, #4]
 5414 1abc 1B8A     		ldrh	r3, [r3, #16]	@ movhi
 5415 1abe 9AB2     		uxth	r2, r3
 5416 1ac0 7B88     		ldrh	r3, [r7, #2]	@ movhi
 5417 1ac2 1340     		ands	r3, r3, r2
 5418 1ac4 9BB2     		uxth	r3, r3
 5419 1ac6 002B     		cmp	r3, #0
 5420 1ac8 03D0     		beq	.L170
2564:../lib/STM32F10x_StdPeriph_Driver/src/stm32f10x_tim.c ****   {
2565:../lib/STM32F10x_StdPeriph_Driver/src/stm32f10x_tim.c ****     bitstatus = SET;
 5421              		.loc 1 2565 0
 5422 1aca 4FF00103 		mov	r3, #1
 5423 1ace FB73     		strb	r3, [r7, #15]
 5424 1ad0 02E0     		b	.L171
 5425              	.L170:
2566:../lib/STM32F10x_StdPeriph_Driver/src/stm32f10x_tim.c ****   }
2567:../lib/STM32F10x_StdPeriph_Driver/src/stm32f10x_tim.c ****   else
2568:../lib/STM32F10x_StdPeriph_Driver/src/stm32f10x_tim.c ****   {
2569:../lib/STM32F10x_StdPeriph_Driver/src/stm32f10x_tim.c ****     bitstatus = RESET;
 5426              		.loc 1 2569 0
 5427 1ad2 4FF00003 		mov	r3, #0
 5428 1ad6 FB73     		strb	r3, [r7, #15]
 5429              	.L171:
2570:../lib/STM32F10x_StdPeriph_Driver/src/stm32f10x_tim.c ****   }
2571:../lib/STM32F10x_StdPeriph_Driver/src/stm32f10x_tim.c ****   return bitstatus;
 5430              		.loc 1 2571 0
 5431 1ad8 FB7B     		ldrb	r3, [r7, #15]	@ zero_extendqisi2
2572:../lib/STM32F10x_StdPeriph_Driver/src/stm32f10x_tim.c **** }
 5432              		.loc 1 2572 0
 5433 1ada 1846     		mov	r0, r3
 5434 1adc 07F11407 		add	r7, r7, #20
 5435 1ae0 BD46     		mov	sp, r7
 5436 1ae2 80BC     		pop	{r7}
 5437 1ae4 7047     		bx	lr
 5438              		.cfi_endproc
 5439              	.LFE112:
 5441 1ae6 00BF     		.align	2
 5442              		.global	TIM_ClearFlag
 5443              		.thumb
 5444              		.thumb_func
 5446              	TIM_ClearFlag:
 5447              	.LFB113:
2573:../lib/STM32F10x_StdPeriph_Driver/src/stm32f10x_tim.c **** 
2574:../lib/STM32F10x_StdPeriph_Driver/src/stm32f10x_tim.c **** /**
2575:../lib/STM32F10x_StdPeriph_Driver/src/stm32f10x_tim.c ****   * @brief  Clears the TIMx's pending flags.
2576:../lib/STM32F10x_StdPeriph_Driver/src/stm32f10x_tim.c ****   * @param  TIMx: where x can be 1 to 17 to select the TIM peripheral.
2577:../lib/STM32F10x_StdPeriph_Driver/src/stm32f10x_tim.c ****   * @param  TIM_FLAG: specifies the flag bit to clear.
2578:../lib/STM32F10x_StdPeriph_Driver/src/stm32f10x_tim.c ****   *   This parameter can be any combination of the following values:
2579:../lib/STM32F10x_StdPeriph_Driver/src/stm32f10x_tim.c ****   *     @arg TIM_FLAG_Update: TIM update Flag
2580:../lib/STM32F10x_StdPeriph_Driver/src/stm32f10x_tim.c ****   *     @arg TIM_FLAG_CC1: TIM Capture Compare 1 Flag
2581:../lib/STM32F10x_StdPeriph_Driver/src/stm32f10x_tim.c ****   *     @arg TIM_FLAG_CC2: TIM Capture Compare 2 Flag
2582:../lib/STM32F10x_StdPeriph_Driver/src/stm32f10x_tim.c ****   *     @arg TIM_FLAG_CC3: TIM Capture Compare 3 Flag
2583:../lib/STM32F10x_StdPeriph_Driver/src/stm32f10x_tim.c ****   *     @arg TIM_FLAG_CC4: TIM Capture Compare 4 Flag
2584:../lib/STM32F10x_StdPeriph_Driver/src/stm32f10x_tim.c ****   *     @arg TIM_FLAG_COM: TIM Commutation Flag
2585:../lib/STM32F10x_StdPeriph_Driver/src/stm32f10x_tim.c ****   *     @arg TIM_FLAG_Trigger: TIM Trigger Flag
2586:../lib/STM32F10x_StdPeriph_Driver/src/stm32f10x_tim.c ****   *     @arg TIM_FLAG_Break: TIM Break Flag
2587:../lib/STM32F10x_StdPeriph_Driver/src/stm32f10x_tim.c ****   *     @arg TIM_FLAG_CC1OF: TIM Capture Compare 1 overcapture Flag
2588:../lib/STM32F10x_StdPeriph_Driver/src/stm32f10x_tim.c ****   *     @arg TIM_FLAG_CC2OF: TIM Capture Compare 2 overcapture Flag
2589:../lib/STM32F10x_StdPeriph_Driver/src/stm32f10x_tim.c ****   *     @arg TIM_FLAG_CC3OF: TIM Capture Compare 3 overcapture Flag
2590:../lib/STM32F10x_StdPeriph_Driver/src/stm32f10x_tim.c ****   *     @arg TIM_FLAG_CC4OF: TIM Capture Compare 4 overcapture Flag
2591:../lib/STM32F10x_StdPeriph_Driver/src/stm32f10x_tim.c ****   * @note
2592:../lib/STM32F10x_StdPeriph_Driver/src/stm32f10x_tim.c ****   *   - TIM6 and TIM7 can have only one update flag. 
2593:../lib/STM32F10x_StdPeriph_Driver/src/stm32f10x_tim.c ****   *   - TIM9, TIM12 and TIM15 can have only TIM_FLAG_Update, TIM_FLAG_CC1,
2594:../lib/STM32F10x_StdPeriph_Driver/src/stm32f10x_tim.c ****   *      TIM_FLAG_CC2 or TIM_FLAG_Trigger. 
2595:../lib/STM32F10x_StdPeriph_Driver/src/stm32f10x_tim.c ****   *   - TIM10, TIM11, TIM13, TIM14, TIM16 and TIM17 can have TIM_FLAG_Update or TIM_FLAG_CC1.   
2596:../lib/STM32F10x_StdPeriph_Driver/src/stm32f10x_tim.c ****   *   - TIM_FLAG_Break is used only with TIM1, TIM8 and TIM15. 
2597:../lib/STM32F10x_StdPeriph_Driver/src/stm32f10x_tim.c ****   *   - TIM_FLAG_COM is used only with TIM1, TIM8, TIM15, TIM16 and TIM17.   
2598:../lib/STM32F10x_StdPeriph_Driver/src/stm32f10x_tim.c ****   * @retval None
2599:../lib/STM32F10x_StdPeriph_Driver/src/stm32f10x_tim.c ****   */
2600:../lib/STM32F10x_StdPeriph_Driver/src/stm32f10x_tim.c **** void TIM_ClearFlag(TIM_TypeDef* TIMx, uint16_t TIM_FLAG)
2601:../lib/STM32F10x_StdPeriph_Driver/src/stm32f10x_tim.c **** {  
 5448              		.loc 1 2601 0
 5449              		.cfi_startproc
 5450              		@ args = 0, pretend = 0, frame = 8
 5451              		@ frame_needed = 1, uses_anonymous_args = 0
 5452              		@ link register save eliminated.
 5453 1ae8 80B4     		push	{r7}
 5454              	.LCFI252:
 5455              		.cfi_def_cfa_offset 4
 5456              		.cfi_offset 7, -4
 5457 1aea 83B0     		sub	sp, sp, #12
 5458              	.LCFI253:
 5459              		.cfi_def_cfa_offset 16
 5460 1aec 00AF     		add	r7, sp, #0
 5461              	.LCFI254:
 5462              		.cfi_def_cfa_register 7
 5463 1aee 7860     		str	r0, [r7, #4]
 5464 1af0 0B46     		mov	r3, r1
 5465 1af2 7B80     		strh	r3, [r7, #2]	@ movhi
2602:../lib/STM32F10x_StdPeriph_Driver/src/stm32f10x_tim.c ****   /* Check the parameters */
2603:../lib/STM32F10x_StdPeriph_Driver/src/stm32f10x_tim.c ****   assert_param(IS_TIM_ALL_PERIPH(TIMx));
2604:../lib/STM32F10x_StdPeriph_Driver/src/stm32f10x_tim.c ****   assert_param(IS_TIM_CLEAR_FLAG(TIM_FLAG));
2605:../lib/STM32F10x_StdPeriph_Driver/src/stm32f10x_tim.c ****    
2606:../lib/STM32F10x_StdPeriph_Driver/src/stm32f10x_tim.c ****   /* Clear the flags */
2607:../lib/STM32F10x_StdPeriph_Driver/src/stm32f10x_tim.c ****   TIMx->SR = (uint16_t)~TIM_FLAG;
 5466              		.loc 1 2607 0
 5467 1af4 7B88     		ldrh	r3, [r7, #2]	@ movhi
 5468 1af6 6FEA0303 		mvn	r3, r3
 5469 1afa 9AB2     		uxth	r2, r3
 5470 1afc 7B68     		ldr	r3, [r7, #4]
 5471 1afe 1A82     		strh	r2, [r3, #16]	@ movhi
2608:../lib/STM32F10x_StdPeriph_Driver/src/stm32f10x_tim.c **** }
 5472              		.loc 1 2608 0
 5473 1b00 07F10C07 		add	r7, r7, #12
 5474 1b04 BD46     		mov	sp, r7
 5475 1b06 80BC     		pop	{r7}
 5476 1b08 7047     		bx	lr
 5477              		.cfi_endproc
 5478              	.LFE113:
 5480 1b0a 00BF     		.align	2
 5481              		.global	TIM_GetITStatus
 5482              		.thumb
 5483              		.thumb_func
 5485              	TIM_GetITStatus:
 5486              	.LFB114:
2609:../lib/STM32F10x_StdPeriph_Driver/src/stm32f10x_tim.c **** 
2610:../lib/STM32F10x_StdPeriph_Driver/src/stm32f10x_tim.c **** /**
2611:../lib/STM32F10x_StdPeriph_Driver/src/stm32f10x_tim.c ****   * @brief  Checks whether the TIM interrupt has occurred or not.
2612:../lib/STM32F10x_StdPeriph_Driver/src/stm32f10x_tim.c ****   * @param  TIMx: where x can be 1 to 17 to select the TIM peripheral.
2613:../lib/STM32F10x_StdPeriph_Driver/src/stm32f10x_tim.c ****   * @param  TIM_IT: specifies the TIM interrupt source to check.
2614:../lib/STM32F10x_StdPeriph_Driver/src/stm32f10x_tim.c ****   *   This parameter can be one of the following values:
2615:../lib/STM32F10x_StdPeriph_Driver/src/stm32f10x_tim.c ****   *     @arg TIM_IT_Update: TIM update Interrupt source
2616:../lib/STM32F10x_StdPeriph_Driver/src/stm32f10x_tim.c ****   *     @arg TIM_IT_CC1: TIM Capture Compare 1 Interrupt source
2617:../lib/STM32F10x_StdPeriph_Driver/src/stm32f10x_tim.c ****   *     @arg TIM_IT_CC2: TIM Capture Compare 2 Interrupt source
2618:../lib/STM32F10x_StdPeriph_Driver/src/stm32f10x_tim.c ****   *     @arg TIM_IT_CC3: TIM Capture Compare 3 Interrupt source
2619:../lib/STM32F10x_StdPeriph_Driver/src/stm32f10x_tim.c ****   *     @arg TIM_IT_CC4: TIM Capture Compare 4 Interrupt source
2620:../lib/STM32F10x_StdPeriph_Driver/src/stm32f10x_tim.c ****   *     @arg TIM_IT_COM: TIM Commutation Interrupt source
2621:../lib/STM32F10x_StdPeriph_Driver/src/stm32f10x_tim.c ****   *     @arg TIM_IT_Trigger: TIM Trigger Interrupt source
2622:../lib/STM32F10x_StdPeriph_Driver/src/stm32f10x_tim.c ****   *     @arg TIM_IT_Break: TIM Break Interrupt source
2623:../lib/STM32F10x_StdPeriph_Driver/src/stm32f10x_tim.c ****   * @note
2624:../lib/STM32F10x_StdPeriph_Driver/src/stm32f10x_tim.c ****   *   - TIM6 and TIM7 can generate only an update interrupt.
2625:../lib/STM32F10x_StdPeriph_Driver/src/stm32f10x_tim.c ****   *   - TIM9, TIM12 and TIM15 can have only TIM_IT_Update, TIM_IT_CC1,
2626:../lib/STM32F10x_StdPeriph_Driver/src/stm32f10x_tim.c ****   *      TIM_IT_CC2 or TIM_IT_Trigger. 
2627:../lib/STM32F10x_StdPeriph_Driver/src/stm32f10x_tim.c ****   *   - TIM10, TIM11, TIM13, TIM14, TIM16 and TIM17 can have TIM_IT_Update or TIM_IT_CC1.   
2628:../lib/STM32F10x_StdPeriph_Driver/src/stm32f10x_tim.c ****   *   - TIM_IT_Break is used only with TIM1, TIM8 and TIM15. 
2629:../lib/STM32F10x_StdPeriph_Driver/src/stm32f10x_tim.c ****   *   - TIM_IT_COM is used only with TIM1, TIM8, TIM15, TIM16 and TIM17.  
2630:../lib/STM32F10x_StdPeriph_Driver/src/stm32f10x_tim.c ****   * @retval The new state of the TIM_IT(SET or RESET).
2631:../lib/STM32F10x_StdPeriph_Driver/src/stm32f10x_tim.c ****   */
2632:../lib/STM32F10x_StdPeriph_Driver/src/stm32f10x_tim.c **** ITStatus TIM_GetITStatus(TIM_TypeDef* TIMx, uint16_t TIM_IT)
2633:../lib/STM32F10x_StdPeriph_Driver/src/stm32f10x_tim.c **** {
 5487              		.loc 1 2633 0
 5488              		.cfi_startproc
 5489              		@ args = 0, pretend = 0, frame = 16
 5490              		@ frame_needed = 1, uses_anonymous_args = 0
 5491              		@ link register save eliminated.
 5492 1b0c 80B4     		push	{r7}
 5493              	.LCFI255:
 5494              		.cfi_def_cfa_offset 4
 5495              		.cfi_offset 7, -4
 5496 1b0e 85B0     		sub	sp, sp, #20
 5497              	.LCFI256:
 5498              		.cfi_def_cfa_offset 24
 5499 1b10 00AF     		add	r7, sp, #0
 5500              	.LCFI257:
 5501              		.cfi_def_cfa_register 7
 5502 1b12 7860     		str	r0, [r7, #4]
 5503 1b14 0B46     		mov	r3, r1
 5504 1b16 7B80     		strh	r3, [r7, #2]	@ movhi
2634:../lib/STM32F10x_StdPeriph_Driver/src/stm32f10x_tim.c ****   ITStatus bitstatus = RESET;  
 5505              		.loc 1 2634 0
 5506 1b18 4FF00003 		mov	r3, #0
 5507 1b1c FB73     		strb	r3, [r7, #15]
2635:../lib/STM32F10x_StdPeriph_Driver/src/stm32f10x_tim.c ****   uint16_t itstatus = 0x0, itenable = 0x0;
 5508              		.loc 1 2635 0
 5509 1b1e 4FF00003 		mov	r3, #0
 5510 1b22 BB81     		strh	r3, [r7, #12]	@ movhi
 5511 1b24 4FF00003 		mov	r3, #0
 5512 1b28 7B81     		strh	r3, [r7, #10]	@ movhi
2636:../lib/STM32F10x_StdPeriph_Driver/src/stm32f10x_tim.c ****   /* Check the parameters */
2637:../lib/STM32F10x_StdPeriph_Driver/src/stm32f10x_tim.c ****   assert_param(IS_TIM_ALL_PERIPH(TIMx));
2638:../lib/STM32F10x_StdPeriph_Driver/src/stm32f10x_tim.c ****   assert_param(IS_TIM_GET_IT(TIM_IT));
2639:../lib/STM32F10x_StdPeriph_Driver/src/stm32f10x_tim.c ****    
2640:../lib/STM32F10x_StdPeriph_Driver/src/stm32f10x_tim.c ****   itstatus = TIMx->SR & TIM_IT;
 5513              		.loc 1 2640 0
 5514 1b2a 7B68     		ldr	r3, [r7, #4]
 5515 1b2c 1B8A     		ldrh	r3, [r3, #16]	@ movhi
 5516 1b2e 9AB2     		uxth	r2, r3
 5517 1b30 7B88     		ldrh	r3, [r7, #2]	@ movhi
 5518 1b32 1340     		ands	r3, r3, r2
 5519 1b34 BB81     		strh	r3, [r7, #12]	@ movhi
2641:../lib/STM32F10x_StdPeriph_Driver/src/stm32f10x_tim.c ****   
2642:../lib/STM32F10x_StdPeriph_Driver/src/stm32f10x_tim.c ****   itenable = TIMx->DIER & TIM_IT;
 5520              		.loc 1 2642 0
 5521 1b36 7B68     		ldr	r3, [r7, #4]
 5522 1b38 9B89     		ldrh	r3, [r3, #12]	@ movhi
 5523 1b3a 9AB2     		uxth	r2, r3
 5524 1b3c 7B88     		ldrh	r3, [r7, #2]	@ movhi
 5525 1b3e 1340     		ands	r3, r3, r2
 5526 1b40 7B81     		strh	r3, [r7, #10]	@ movhi
2643:../lib/STM32F10x_StdPeriph_Driver/src/stm32f10x_tim.c ****   if ((itstatus != (uint16_t)RESET) && (itenable != (uint16_t)RESET))
 5527              		.loc 1 2643 0
 5528 1b42 BB89     		ldrh	r3, [r7, #12]
 5529 1b44 002B     		cmp	r3, #0
 5530 1b46 06D0     		beq	.L175
 5531              		.loc 1 2643 0 is_stmt 0 discriminator 1
 5532 1b48 7B89     		ldrh	r3, [r7, #10]
 5533 1b4a 002B     		cmp	r3, #0
 5534 1b4c 03D0     		beq	.L175
2644:../lib/STM32F10x_StdPeriph_Driver/src/stm32f10x_tim.c ****   {
2645:../lib/STM32F10x_StdPeriph_Driver/src/stm32f10x_tim.c ****     bitstatus = SET;
 5535              		.loc 1 2645 0 is_stmt 1
 5536 1b4e 4FF00103 		mov	r3, #1
 5537 1b52 FB73     		strb	r3, [r7, #15]
 5538 1b54 02E0     		b	.L176
 5539              	.L175:
2646:../lib/STM32F10x_StdPeriph_Driver/src/stm32f10x_tim.c ****   }
2647:../lib/STM32F10x_StdPeriph_Driver/src/stm32f10x_tim.c ****   else
2648:../lib/STM32F10x_StdPeriph_Driver/src/stm32f10x_tim.c ****   {
2649:../lib/STM32F10x_StdPeriph_Driver/src/stm32f10x_tim.c ****     bitstatus = RESET;
 5540              		.loc 1 2649 0
 5541 1b56 4FF00003 		mov	r3, #0
 5542 1b5a FB73     		strb	r3, [r7, #15]
 5543              	.L176:
2650:../lib/STM32F10x_StdPeriph_Driver/src/stm32f10x_tim.c ****   }
2651:../lib/STM32F10x_StdPeriph_Driver/src/stm32f10x_tim.c ****   return bitstatus;
 5544              		.loc 1 2651 0
 5545 1b5c FB7B     		ldrb	r3, [r7, #15]	@ zero_extendqisi2
2652:../lib/STM32F10x_StdPeriph_Driver/src/stm32f10x_tim.c **** }
 5546              		.loc 1 2652 0
 5547 1b5e 1846     		mov	r0, r3
 5548 1b60 07F11407 		add	r7, r7, #20
 5549 1b64 BD46     		mov	sp, r7
 5550 1b66 80BC     		pop	{r7}
 5551 1b68 7047     		bx	lr
 5552              		.cfi_endproc
 5553              	.LFE114:
 5555 1b6a 00BF     		.align	2
 5556              		.global	TIM_ClearITPendingBit
 5557              		.thumb
 5558              		.thumb_func
 5560              	TIM_ClearITPendingBit:
 5561              	.LFB115:
2653:../lib/STM32F10x_StdPeriph_Driver/src/stm32f10x_tim.c **** 
2654:../lib/STM32F10x_StdPeriph_Driver/src/stm32f10x_tim.c **** /**
2655:../lib/STM32F10x_StdPeriph_Driver/src/stm32f10x_tim.c ****   * @brief  Clears the TIMx's interrupt pending bits.
2656:../lib/STM32F10x_StdPeriph_Driver/src/stm32f10x_tim.c ****   * @param  TIMx: where x can be 1 to 17 to select the TIM peripheral.
2657:../lib/STM32F10x_StdPeriph_Driver/src/stm32f10x_tim.c ****   * @param  TIM_IT: specifies the pending bit to clear.
2658:../lib/STM32F10x_StdPeriph_Driver/src/stm32f10x_tim.c ****   *   This parameter can be any combination of the following values:
2659:../lib/STM32F10x_StdPeriph_Driver/src/stm32f10x_tim.c ****   *     @arg TIM_IT_Update: TIM1 update Interrupt source
2660:../lib/STM32F10x_StdPeriph_Driver/src/stm32f10x_tim.c ****   *     @arg TIM_IT_CC1: TIM Capture Compare 1 Interrupt source
2661:../lib/STM32F10x_StdPeriph_Driver/src/stm32f10x_tim.c ****   *     @arg TIM_IT_CC2: TIM Capture Compare 2 Interrupt source
2662:../lib/STM32F10x_StdPeriph_Driver/src/stm32f10x_tim.c ****   *     @arg TIM_IT_CC3: TIM Capture Compare 3 Interrupt source
2663:../lib/STM32F10x_StdPeriph_Driver/src/stm32f10x_tim.c ****   *     @arg TIM_IT_CC4: TIM Capture Compare 4 Interrupt source
2664:../lib/STM32F10x_StdPeriph_Driver/src/stm32f10x_tim.c ****   *     @arg TIM_IT_COM: TIM Commutation Interrupt source
2665:../lib/STM32F10x_StdPeriph_Driver/src/stm32f10x_tim.c ****   *     @arg TIM_IT_Trigger: TIM Trigger Interrupt source
2666:../lib/STM32F10x_StdPeriph_Driver/src/stm32f10x_tim.c ****   *     @arg TIM_IT_Break: TIM Break Interrupt source
2667:../lib/STM32F10x_StdPeriph_Driver/src/stm32f10x_tim.c ****   * @note
2668:../lib/STM32F10x_StdPeriph_Driver/src/stm32f10x_tim.c ****   *   - TIM6 and TIM7 can generate only an update interrupt.
2669:../lib/STM32F10x_StdPeriph_Driver/src/stm32f10x_tim.c ****   *   - TIM9, TIM12 and TIM15 can have only TIM_IT_Update, TIM_IT_CC1,
2670:../lib/STM32F10x_StdPeriph_Driver/src/stm32f10x_tim.c ****   *      TIM_IT_CC2 or TIM_IT_Trigger. 
2671:../lib/STM32F10x_StdPeriph_Driver/src/stm32f10x_tim.c ****   *   - TIM10, TIM11, TIM13, TIM14, TIM16 and TIM17 can have TIM_IT_Update or TIM_IT_CC1.   
2672:../lib/STM32F10x_StdPeriph_Driver/src/stm32f10x_tim.c ****   *   - TIM_IT_Break is used only with TIM1, TIM8 and TIM15. 
2673:../lib/STM32F10x_StdPeriph_Driver/src/stm32f10x_tim.c ****   *   - TIM_IT_COM is used only with TIM1, TIM8, TIM15, TIM16 and TIM17.    
2674:../lib/STM32F10x_StdPeriph_Driver/src/stm32f10x_tim.c ****   * @retval None
2675:../lib/STM32F10x_StdPeriph_Driver/src/stm32f10x_tim.c ****   */
2676:../lib/STM32F10x_StdPeriph_Driver/src/stm32f10x_tim.c **** void TIM_ClearITPendingBit(TIM_TypeDef* TIMx, uint16_t TIM_IT)
2677:../lib/STM32F10x_StdPeriph_Driver/src/stm32f10x_tim.c **** {
 5562              		.loc 1 2677 0
 5563              		.cfi_startproc
 5564              		@ args = 0, pretend = 0, frame = 8
 5565              		@ frame_needed = 1, uses_anonymous_args = 0
 5566              		@ link register save eliminated.
 5567 1b6c 80B4     		push	{r7}
 5568              	.LCFI258:
 5569              		.cfi_def_cfa_offset 4
 5570              		.cfi_offset 7, -4
 5571 1b6e 83B0     		sub	sp, sp, #12
 5572              	.LCFI259:
 5573              		.cfi_def_cfa_offset 16
 5574 1b70 00AF     		add	r7, sp, #0
 5575              	.LCFI260:
 5576              		.cfi_def_cfa_register 7
 5577 1b72 7860     		str	r0, [r7, #4]
 5578 1b74 0B46     		mov	r3, r1
 5579 1b76 7B80     		strh	r3, [r7, #2]	@ movhi
2678:../lib/STM32F10x_StdPeriph_Driver/src/stm32f10x_tim.c ****   /* Check the parameters */
2679:../lib/STM32F10x_StdPeriph_Driver/src/stm32f10x_tim.c ****   assert_param(IS_TIM_ALL_PERIPH(TIMx));
2680:../lib/STM32F10x_StdPeriph_Driver/src/stm32f10x_tim.c ****   assert_param(IS_TIM_IT(TIM_IT));
2681:../lib/STM32F10x_StdPeriph_Driver/src/stm32f10x_tim.c ****   /* Clear the IT pending Bit */
2682:../lib/STM32F10x_StdPeriph_Driver/src/stm32f10x_tim.c ****   TIMx->SR = (uint16_t)~TIM_IT;
 5580              		.loc 1 2682 0
 5581 1b78 7B88     		ldrh	r3, [r7, #2]	@ movhi
 5582 1b7a 6FEA0303 		mvn	r3, r3
 5583 1b7e 9AB2     		uxth	r2, r3
 5584 1b80 7B68     		ldr	r3, [r7, #4]
 5585 1b82 1A82     		strh	r2, [r3, #16]	@ movhi
2683:../lib/STM32F10x_StdPeriph_Driver/src/stm32f10x_tim.c **** }
 5586              		.loc 1 2683 0
 5587 1b84 07F10C07 		add	r7, r7, #12
 5588 1b88 BD46     		mov	sp, r7
 5589 1b8a 80BC     		pop	{r7}
 5590 1b8c 7047     		bx	lr
 5591              		.cfi_endproc
 5592              	.LFE115:
 5594 1b8e 00BF     		.align	2
 5595              		.thumb
 5596              		.thumb_func
 5598              	TI1_Config:
 5599              	.LFB116:
2684:../lib/STM32F10x_StdPeriph_Driver/src/stm32f10x_tim.c **** 
2685:../lib/STM32F10x_StdPeriph_Driver/src/stm32f10x_tim.c **** /**
2686:../lib/STM32F10x_StdPeriph_Driver/src/stm32f10x_tim.c ****   * @brief  Configure the TI1 as Input.
2687:../lib/STM32F10x_StdPeriph_Driver/src/stm32f10x_tim.c ****   * @param  TIMx: where x can be 1 to 17 except 6 and 7 to select the TIM peripheral.
2688:../lib/STM32F10x_StdPeriph_Driver/src/stm32f10x_tim.c ****   * @param  TIM_ICPolarity : The Input Polarity.
2689:../lib/STM32F10x_StdPeriph_Driver/src/stm32f10x_tim.c ****   *   This parameter can be one of the following values:
2690:../lib/STM32F10x_StdPeriph_Driver/src/stm32f10x_tim.c ****   *     @arg TIM_ICPolarity_Rising
2691:../lib/STM32F10x_StdPeriph_Driver/src/stm32f10x_tim.c ****   *     @arg TIM_ICPolarity_Falling
2692:../lib/STM32F10x_StdPeriph_Driver/src/stm32f10x_tim.c ****   * @param  TIM_ICSelection: specifies the input to be used.
2693:../lib/STM32F10x_StdPeriph_Driver/src/stm32f10x_tim.c ****   *   This parameter can be one of the following values:
2694:../lib/STM32F10x_StdPeriph_Driver/src/stm32f10x_tim.c ****   *     @arg TIM_ICSelection_DirectTI: TIM Input 1 is selected to be connected to IC1.
2695:../lib/STM32F10x_StdPeriph_Driver/src/stm32f10x_tim.c ****   *     @arg TIM_ICSelection_IndirectTI: TIM Input 1 is selected to be connected to IC2.
2696:../lib/STM32F10x_StdPeriph_Driver/src/stm32f10x_tim.c ****   *     @arg TIM_ICSelection_TRC: TIM Input 1 is selected to be connected to TRC.
2697:../lib/STM32F10x_StdPeriph_Driver/src/stm32f10x_tim.c ****   * @param  TIM_ICFilter: Specifies the Input Capture Filter.
2698:../lib/STM32F10x_StdPeriph_Driver/src/stm32f10x_tim.c ****   *   This parameter must be a value between 0x00 and 0x0F.
2699:../lib/STM32F10x_StdPeriph_Driver/src/stm32f10x_tim.c ****   * @retval None
2700:../lib/STM32F10x_StdPeriph_Driver/src/stm32f10x_tim.c ****   */
2701:../lib/STM32F10x_StdPeriph_Driver/src/stm32f10x_tim.c **** static void TI1_Config(TIM_TypeDef* TIMx, uint16_t TIM_ICPolarity, uint16_t TIM_ICSelection,
2702:../lib/STM32F10x_StdPeriph_Driver/src/stm32f10x_tim.c ****                        uint16_t TIM_ICFilter)
2703:../lib/STM32F10x_StdPeriph_Driver/src/stm32f10x_tim.c **** {
 5600              		.loc 1 2703 0
 5601              		.cfi_startproc
 5602              		@ args = 0, pretend = 0, frame = 24
 5603              		@ frame_needed = 1, uses_anonymous_args = 0
 5604              		@ link register save eliminated.
 5605 1b90 80B4     		push	{r7}
 5606              	.LCFI261:
 5607              		.cfi_def_cfa_offset 4
 5608              		.cfi_offset 7, -4
 5609 1b92 87B0     		sub	sp, sp, #28
 5610              	.LCFI262:
 5611              		.cfi_def_cfa_offset 32
 5612 1b94 00AF     		add	r7, sp, #0
 5613              	.LCFI263:
 5614              		.cfi_def_cfa_register 7
 5615 1b96 F860     		str	r0, [r7, #12]
 5616 1b98 7981     		strh	r1, [r7, #10]	@ movhi
 5617 1b9a 3A81     		strh	r2, [r7, #8]	@ movhi
 5618 1b9c FB80     		strh	r3, [r7, #6]	@ movhi
2704:../lib/STM32F10x_StdPeriph_Driver/src/stm32f10x_tim.c ****   uint16_t tmpccmr1 = 0, tmpccer = 0;
 5619              		.loc 1 2704 0
 5620 1b9e 4FF00003 		mov	r3, #0
 5621 1ba2 BB82     		strh	r3, [r7, #20]	@ movhi
 5622 1ba4 4FF00003 		mov	r3, #0
 5623 1ba8 FB82     		strh	r3, [r7, #22]	@ movhi
2705:../lib/STM32F10x_StdPeriph_Driver/src/stm32f10x_tim.c ****   /* Disable the Channel 1: Reset the CC1E Bit */
2706:../lib/STM32F10x_StdPeriph_Driver/src/stm32f10x_tim.c ****   TIMx->CCER &= (uint16_t)~((uint16_t)TIM_CCER_CC1E);
 5624              		.loc 1 2706 0
 5625 1baa FB68     		ldr	r3, [r7, #12]
 5626 1bac 1B8C     		ldrh	r3, [r3, #32]	@ movhi
 5627 1bae 9BB2     		uxth	r3, r3
 5628 1bb0 23F00103 		bic	r3, r3, #1
 5629 1bb4 9AB2     		uxth	r2, r3
 5630 1bb6 FB68     		ldr	r3, [r7, #12]
 5631 1bb8 1A84     		strh	r2, [r3, #32]	@ movhi
2707:../lib/STM32F10x_StdPeriph_Driver/src/stm32f10x_tim.c ****   tmpccmr1 = TIMx->CCMR1;
 5632              		.loc 1 2707 0
 5633 1bba FB68     		ldr	r3, [r7, #12]
 5634 1bbc 1B8B     		ldrh	r3, [r3, #24]	@ movhi
 5635 1bbe BB82     		strh	r3, [r7, #20]	@ movhi
2708:../lib/STM32F10x_StdPeriph_Driver/src/stm32f10x_tim.c ****   tmpccer = TIMx->CCER;
 5636              		.loc 1 2708 0
 5637 1bc0 FB68     		ldr	r3, [r7, #12]
 5638 1bc2 1B8C     		ldrh	r3, [r3, #32]	@ movhi
 5639 1bc4 FB82     		strh	r3, [r7, #22]	@ movhi
2709:../lib/STM32F10x_StdPeriph_Driver/src/stm32f10x_tim.c ****   /* Select the Input and set the filter */
2710:../lib/STM32F10x_StdPeriph_Driver/src/stm32f10x_tim.c ****   tmpccmr1 &= (uint16_t)(((uint16_t)~((uint16_t)TIM_CCMR1_CC1S)) & ((uint16_t)~((uint16_t)TIM_CCMR1
 5640              		.loc 1 2710 0
 5641 1bc6 BB8A     		ldrh	r3, [r7, #20]	@ movhi
 5642 1bc8 23F0F303 		bic	r3, r3, #243
 5643 1bcc BB82     		strh	r3, [r7, #20]	@ movhi
2711:../lib/STM32F10x_StdPeriph_Driver/src/stm32f10x_tim.c ****   tmpccmr1 |= (uint16_t)(TIM_ICSelection | (uint16_t)(TIM_ICFilter << (uint16_t)4));
 5644              		.loc 1 2711 0
 5645 1bce FB88     		ldrh	r3, [r7, #6]	@ movhi
 5646 1bd0 4FEA0313 		lsl	r3, r3, #4
 5647 1bd4 9AB2     		uxth	r2, r3
 5648 1bd6 3B89     		ldrh	r3, [r7, #8]	@ movhi
 5649 1bd8 1343     		orrs	r3, r3, r2
 5650 1bda 9AB2     		uxth	r2, r3
 5651 1bdc BB8A     		ldrh	r3, [r7, #20]	@ movhi
 5652 1bde 1343     		orrs	r3, r3, r2
 5653 1be0 BB82     		strh	r3, [r7, #20]	@ movhi
2712:../lib/STM32F10x_StdPeriph_Driver/src/stm32f10x_tim.c ****   
2713:../lib/STM32F10x_StdPeriph_Driver/src/stm32f10x_tim.c ****   if((TIMx == TIM1) || (TIMx == TIM8) || (TIMx == TIM2) || (TIMx == TIM3) ||
 5654              		.loc 1 2713 0
 5655 1be2 FA68     		ldr	r2, [r7, #12]
 5656 1be4 1C4B     		ldr	r3, .L183
 5657 1be6 9A42     		cmp	r2, r3
 5658 1be8 13D0     		beq	.L180
 5659              		.loc 1 2713 0 is_stmt 0 discriminator 1
 5660 1bea FA68     		ldr	r2, [r7, #12]
 5661 1bec 1B4B     		ldr	r3, .L183+4
 5662 1bee 9A42     		cmp	r2, r3
 5663 1bf0 0FD0     		beq	.L180
 5664 1bf2 FB68     		ldr	r3, [r7, #12]
 5665 1bf4 B3F1804F 		cmp	r3, #1073741824
 5666 1bf8 0BD0     		beq	.L180
 5667 1bfa FA68     		ldr	r2, [r7, #12]
 5668 1bfc 184B     		ldr	r3, .L183+8
 5669 1bfe 9A42     		cmp	r2, r3
 5670 1c00 07D0     		beq	.L180
 5671 1c02 FA68     		ldr	r2, [r7, #12]
 5672 1c04 174B     		ldr	r3, .L183+12
 5673 1c06 9A42     		cmp	r2, r3
 5674 1c08 03D0     		beq	.L180
2714:../lib/STM32F10x_StdPeriph_Driver/src/stm32f10x_tim.c ****      (TIMx == TIM4) ||(TIMx == TIM5))
 5675              		.loc 1 2714 0 is_stmt 1
 5676 1c0a FA68     		ldr	r2, [r7, #12]
 5677 1c0c 164B     		ldr	r3, .L183+16
 5678 1c0e 9A42     		cmp	r2, r3
 5679 1c10 0BD1     		bne	.L181
 5680              	.L180:
2715:../lib/STM32F10x_StdPeriph_Driver/src/stm32f10x_tim.c ****   {
2716:../lib/STM32F10x_StdPeriph_Driver/src/stm32f10x_tim.c ****     /* Select the Polarity and set the CC1E Bit */
2717:../lib/STM32F10x_StdPeriph_Driver/src/stm32f10x_tim.c ****     tmpccer &= (uint16_t)~((uint16_t)(TIM_CCER_CC1P));
 5681              		.loc 1 2717 0
 5682 1c12 FB8A     		ldrh	r3, [r7, #22]	@ movhi
 5683 1c14 23F00203 		bic	r3, r3, #2
 5684 1c18 FB82     		strh	r3, [r7, #22]	@ movhi
2718:../lib/STM32F10x_StdPeriph_Driver/src/stm32f10x_tim.c ****     tmpccer |= (uint16_t)(TIM_ICPolarity | (uint16_t)TIM_CCER_CC1E);
 5685              		.loc 1 2718 0
 5686 1c1a 7A89     		ldrh	r2, [r7, #10]	@ movhi
 5687 1c1c FB8A     		ldrh	r3, [r7, #22]	@ movhi
 5688 1c1e 1343     		orrs	r3, r3, r2
 5689 1c20 9BB2     		uxth	r3, r3
 5690 1c22 43F00103 		orr	r3, r3, #1
 5691 1c26 FB82     		strh	r3, [r7, #22]	@ movhi
 5692 1c28 0AE0     		b	.L182
 5693              	.L181:
2719:../lib/STM32F10x_StdPeriph_Driver/src/stm32f10x_tim.c ****   }
2720:../lib/STM32F10x_StdPeriph_Driver/src/stm32f10x_tim.c ****   else
2721:../lib/STM32F10x_StdPeriph_Driver/src/stm32f10x_tim.c ****   {
2722:../lib/STM32F10x_StdPeriph_Driver/src/stm32f10x_tim.c ****     /* Select the Polarity and set the CC1E Bit */
2723:../lib/STM32F10x_StdPeriph_Driver/src/stm32f10x_tim.c ****     tmpccer &= (uint16_t)~((uint16_t)(TIM_CCER_CC1P | TIM_CCER_CC1NP));
 5694              		.loc 1 2723 0
 5695 1c2a FB8A     		ldrh	r3, [r7, #22]	@ movhi
 5696 1c2c 23F00A03 		bic	r3, r3, #10
 5697 1c30 FB82     		strh	r3, [r7, #22]	@ movhi
2724:../lib/STM32F10x_StdPeriph_Driver/src/stm32f10x_tim.c ****     tmpccer |= (uint16_t)(TIM_ICPolarity | (uint16_t)TIM_CCER_CC1E);
 5698              		.loc 1 2724 0
 5699 1c32 7A89     		ldrh	r2, [r7, #10]	@ movhi
 5700 1c34 FB8A     		ldrh	r3, [r7, #22]	@ movhi
 5701 1c36 1343     		orrs	r3, r3, r2
 5702 1c38 9BB2     		uxth	r3, r3
 5703 1c3a 43F00103 		orr	r3, r3, #1
 5704 1c3e FB82     		strh	r3, [r7, #22]	@ movhi
 5705              	.L182:
2725:../lib/STM32F10x_StdPeriph_Driver/src/stm32f10x_tim.c ****   }
2726:../lib/STM32F10x_StdPeriph_Driver/src/stm32f10x_tim.c **** 
2727:../lib/STM32F10x_StdPeriph_Driver/src/stm32f10x_tim.c ****   /* Write to TIMx CCMR1 and CCER registers */
2728:../lib/STM32F10x_StdPeriph_Driver/src/stm32f10x_tim.c ****   TIMx->CCMR1 = tmpccmr1;
 5706              		.loc 1 2728 0
 5707 1c40 FB68     		ldr	r3, [r7, #12]
 5708 1c42 BA8A     		ldrh	r2, [r7, #20]	@ movhi
 5709 1c44 1A83     		strh	r2, [r3, #24]	@ movhi
2729:../lib/STM32F10x_StdPeriph_Driver/src/stm32f10x_tim.c ****   TIMx->CCER = tmpccer;
 5710              		.loc 1 2729 0
 5711 1c46 FB68     		ldr	r3, [r7, #12]
 5712 1c48 FA8A     		ldrh	r2, [r7, #22]	@ movhi
 5713 1c4a 1A84     		strh	r2, [r3, #32]	@ movhi
2730:../lib/STM32F10x_StdPeriph_Driver/src/stm32f10x_tim.c **** }
 5714              		.loc 1 2730 0
 5715 1c4c 07F11C07 		add	r7, r7, #28
 5716 1c50 BD46     		mov	sp, r7
 5717 1c52 80BC     		pop	{r7}
 5718 1c54 7047     		bx	lr
 5719              	.L184:
 5720 1c56 00BF     		.align	2
 5721              	.L183:
 5722 1c58 002C0140 		.word	1073818624
 5723 1c5c 00340140 		.word	1073820672
 5724 1c60 00040040 		.word	1073742848
 5725 1c64 00080040 		.word	1073743872
 5726 1c68 000C0040 		.word	1073744896
 5727              		.cfi_endproc
 5728              	.LFE116:
 5730              		.align	2
 5731              		.thumb
 5732              		.thumb_func
 5734              	TI2_Config:
 5735              	.LFB117:
2731:../lib/STM32F10x_StdPeriph_Driver/src/stm32f10x_tim.c **** 
2732:../lib/STM32F10x_StdPeriph_Driver/src/stm32f10x_tim.c **** /**
2733:../lib/STM32F10x_StdPeriph_Driver/src/stm32f10x_tim.c ****   * @brief  Configure the TI2 as Input.
2734:../lib/STM32F10x_StdPeriph_Driver/src/stm32f10x_tim.c ****   * @param  TIMx: where x can be 1, 2, 3, 4, 5, 8, 9, 12 or 15 to select the TIM peripheral.
2735:../lib/STM32F10x_StdPeriph_Driver/src/stm32f10x_tim.c ****   * @param  TIM_ICPolarity : The Input Polarity.
2736:../lib/STM32F10x_StdPeriph_Driver/src/stm32f10x_tim.c ****   *   This parameter can be one of the following values:
2737:../lib/STM32F10x_StdPeriph_Driver/src/stm32f10x_tim.c ****   *     @arg TIM_ICPolarity_Rising
2738:../lib/STM32F10x_StdPeriph_Driver/src/stm32f10x_tim.c ****   *     @arg TIM_ICPolarity_Falling
2739:../lib/STM32F10x_StdPeriph_Driver/src/stm32f10x_tim.c ****   * @param  TIM_ICSelection: specifies the input to be used.
2740:../lib/STM32F10x_StdPeriph_Driver/src/stm32f10x_tim.c ****   *   This parameter can be one of the following values:
2741:../lib/STM32F10x_StdPeriph_Driver/src/stm32f10x_tim.c ****   *     @arg TIM_ICSelection_DirectTI: TIM Input 2 is selected to be connected to IC2.
2742:../lib/STM32F10x_StdPeriph_Driver/src/stm32f10x_tim.c ****   *     @arg TIM_ICSelection_IndirectTI: TIM Input 2 is selected to be connected to IC1.
2743:../lib/STM32F10x_StdPeriph_Driver/src/stm32f10x_tim.c ****   *     @arg TIM_ICSelection_TRC: TIM Input 2 is selected to be connected to TRC.
2744:../lib/STM32F10x_StdPeriph_Driver/src/stm32f10x_tim.c ****   * @param  TIM_ICFilter: Specifies the Input Capture Filter.
2745:../lib/STM32F10x_StdPeriph_Driver/src/stm32f10x_tim.c ****   *   This parameter must be a value between 0x00 and 0x0F.
2746:../lib/STM32F10x_StdPeriph_Driver/src/stm32f10x_tim.c ****   * @retval None
2747:../lib/STM32F10x_StdPeriph_Driver/src/stm32f10x_tim.c ****   */
2748:../lib/STM32F10x_StdPeriph_Driver/src/stm32f10x_tim.c **** static void TI2_Config(TIM_TypeDef* TIMx, uint16_t TIM_ICPolarity, uint16_t TIM_ICSelection,
2749:../lib/STM32F10x_StdPeriph_Driver/src/stm32f10x_tim.c ****                        uint16_t TIM_ICFilter)
2750:../lib/STM32F10x_StdPeriph_Driver/src/stm32f10x_tim.c **** {
 5736              		.loc 1 2750 0
 5737              		.cfi_startproc
 5738              		@ args = 0, pretend = 0, frame = 24
 5739              		@ frame_needed = 1, uses_anonymous_args = 0
 5740              		@ link register save eliminated.
 5741 1c6c 80B4     		push	{r7}
 5742              	.LCFI264:
 5743              		.cfi_def_cfa_offset 4
 5744              		.cfi_offset 7, -4
 5745 1c6e 87B0     		sub	sp, sp, #28
 5746              	.LCFI265:
 5747              		.cfi_def_cfa_offset 32
 5748 1c70 00AF     		add	r7, sp, #0
 5749              	.LCFI266:
 5750              		.cfi_def_cfa_register 7
 5751 1c72 F860     		str	r0, [r7, #12]
 5752 1c74 7981     		strh	r1, [r7, #10]	@ movhi
 5753 1c76 3A81     		strh	r2, [r7, #8]	@ movhi
 5754 1c78 FB80     		strh	r3, [r7, #6]	@ movhi
2751:../lib/STM32F10x_StdPeriph_Driver/src/stm32f10x_tim.c ****   uint16_t tmpccmr1 = 0, tmpccer = 0, tmp = 0;
 5755              		.loc 1 2751 0
 5756 1c7a 4FF00003 		mov	r3, #0
 5757 1c7e BB82     		strh	r3, [r7, #20]	@ movhi
 5758 1c80 4FF00003 		mov	r3, #0
 5759 1c84 FB82     		strh	r3, [r7, #22]	@ movhi
 5760 1c86 4FF00003 		mov	r3, #0
 5761 1c8a 7B82     		strh	r3, [r7, #18]	@ movhi
2752:../lib/STM32F10x_StdPeriph_Driver/src/stm32f10x_tim.c ****   /* Disable the Channel 2: Reset the CC2E Bit */
2753:../lib/STM32F10x_StdPeriph_Driver/src/stm32f10x_tim.c ****   TIMx->CCER &= (uint16_t)~((uint16_t)TIM_CCER_CC2E);
 5762              		.loc 1 2753 0
 5763 1c8c FB68     		ldr	r3, [r7, #12]
 5764 1c8e 1B8C     		ldrh	r3, [r3, #32]	@ movhi
 5765 1c90 9BB2     		uxth	r3, r3
 5766 1c92 23F01003 		bic	r3, r3, #16
 5767 1c96 9AB2     		uxth	r2, r3
 5768 1c98 FB68     		ldr	r3, [r7, #12]
 5769 1c9a 1A84     		strh	r2, [r3, #32]	@ movhi
2754:../lib/STM32F10x_StdPeriph_Driver/src/stm32f10x_tim.c ****   tmpccmr1 = TIMx->CCMR1;
 5770              		.loc 1 2754 0
 5771 1c9c FB68     		ldr	r3, [r7, #12]
 5772 1c9e 1B8B     		ldrh	r3, [r3, #24]	@ movhi
 5773 1ca0 BB82     		strh	r3, [r7, #20]	@ movhi
2755:../lib/STM32F10x_StdPeriph_Driver/src/stm32f10x_tim.c ****   tmpccer = TIMx->CCER;
 5774              		.loc 1 2755 0
 5775 1ca2 FB68     		ldr	r3, [r7, #12]
 5776 1ca4 1B8C     		ldrh	r3, [r3, #32]	@ movhi
 5777 1ca6 FB82     		strh	r3, [r7, #22]	@ movhi
2756:../lib/STM32F10x_StdPeriph_Driver/src/stm32f10x_tim.c ****   tmp = (uint16_t)(TIM_ICPolarity << 4);
 5778              		.loc 1 2756 0
 5779 1ca8 7B89     		ldrh	r3, [r7, #10]	@ movhi
 5780 1caa 4FEA0313 		lsl	r3, r3, #4
 5781 1cae 7B82     		strh	r3, [r7, #18]	@ movhi
2757:../lib/STM32F10x_StdPeriph_Driver/src/stm32f10x_tim.c ****   /* Select the Input and set the filter */
2758:../lib/STM32F10x_StdPeriph_Driver/src/stm32f10x_tim.c ****   tmpccmr1 &= (uint16_t)(((uint16_t)~((uint16_t)TIM_CCMR1_CC2S)) & ((uint16_t)~((uint16_t)TIM_CCMR1
 5782              		.loc 1 2758 0
 5783 1cb0 BB8A     		ldrh	r3, [r7, #20]	@ movhi
 5784 1cb2 23F44073 		bic	r3, r3, #768
 5785 1cb6 4FEA0353 		lsl	r3, r3, #20
 5786 1cba 4FEA1353 		lsr	r3, r3, #20
 5787 1cbe BB82     		strh	r3, [r7, #20]	@ movhi
2759:../lib/STM32F10x_StdPeriph_Driver/src/stm32f10x_tim.c ****   tmpccmr1 |= (uint16_t)(TIM_ICFilter << 12);
 5788              		.loc 1 2759 0
 5789 1cc0 FB88     		ldrh	r3, [r7, #6]	@ movhi
 5790 1cc2 4FEA0333 		lsl	r3, r3, #12
 5791 1cc6 9AB2     		uxth	r2, r3
 5792 1cc8 BB8A     		ldrh	r3, [r7, #20]	@ movhi
 5793 1cca 1343     		orrs	r3, r3, r2
 5794 1ccc BB82     		strh	r3, [r7, #20]	@ movhi
2760:../lib/STM32F10x_StdPeriph_Driver/src/stm32f10x_tim.c ****   tmpccmr1 |= (uint16_t)(TIM_ICSelection << 8);
 5795              		.loc 1 2760 0
 5796 1cce 3B89     		ldrh	r3, [r7, #8]	@ movhi
 5797 1cd0 4FEA0323 		lsl	r3, r3, #8
 5798 1cd4 9AB2     		uxth	r2, r3
 5799 1cd6 BB8A     		ldrh	r3, [r7, #20]	@ movhi
 5800 1cd8 1343     		orrs	r3, r3, r2
 5801 1cda BB82     		strh	r3, [r7, #20]	@ movhi
2761:../lib/STM32F10x_StdPeriph_Driver/src/stm32f10x_tim.c ****   
2762:../lib/STM32F10x_StdPeriph_Driver/src/stm32f10x_tim.c ****   if((TIMx == TIM1) || (TIMx == TIM8) || (TIMx == TIM2) || (TIMx == TIM3) ||
 5802              		.loc 1 2762 0
 5803 1cdc FA68     		ldr	r2, [r7, #12]
 5804 1cde 1C4B     		ldr	r3, .L189
 5805 1ce0 9A42     		cmp	r2, r3
 5806 1ce2 13D0     		beq	.L186
 5807              		.loc 1 2762 0 is_stmt 0 discriminator 1
 5808 1ce4 FA68     		ldr	r2, [r7, #12]
 5809 1ce6 1B4B     		ldr	r3, .L189+4
 5810 1ce8 9A42     		cmp	r2, r3
 5811 1cea 0FD0     		beq	.L186
 5812 1cec FB68     		ldr	r3, [r7, #12]
 5813 1cee B3F1804F 		cmp	r3, #1073741824
 5814 1cf2 0BD0     		beq	.L186
 5815 1cf4 FA68     		ldr	r2, [r7, #12]
 5816 1cf6 184B     		ldr	r3, .L189+8
 5817 1cf8 9A42     		cmp	r2, r3
 5818 1cfa 07D0     		beq	.L186
 5819 1cfc FA68     		ldr	r2, [r7, #12]
 5820 1cfe 174B     		ldr	r3, .L189+12
 5821 1d00 9A42     		cmp	r2, r3
 5822 1d02 03D0     		beq	.L186
2763:../lib/STM32F10x_StdPeriph_Driver/src/stm32f10x_tim.c ****      (TIMx == TIM4) ||(TIMx == TIM5))
 5823              		.loc 1 2763 0 is_stmt 1
 5824 1d04 FA68     		ldr	r2, [r7, #12]
 5825 1d06 164B     		ldr	r3, .L189+16
 5826 1d08 9A42     		cmp	r2, r3
 5827 1d0a 0BD1     		bne	.L187
 5828              	.L186:
2764:../lib/STM32F10x_StdPeriph_Driver/src/stm32f10x_tim.c ****   {
2765:../lib/STM32F10x_StdPeriph_Driver/src/stm32f10x_tim.c ****     /* Select the Polarity and set the CC2E Bit */
2766:../lib/STM32F10x_StdPeriph_Driver/src/stm32f10x_tim.c ****     tmpccer &= (uint16_t)~((uint16_t)(TIM_CCER_CC2P));
 5829              		.loc 1 2766 0
 5830 1d0c FB8A     		ldrh	r3, [r7, #22]	@ movhi
 5831 1d0e 23F02003 		bic	r3, r3, #32
 5832 1d12 FB82     		strh	r3, [r7, #22]	@ movhi
2767:../lib/STM32F10x_StdPeriph_Driver/src/stm32f10x_tim.c ****     tmpccer |=  (uint16_t)(tmp | (uint16_t)TIM_CCER_CC2E);
 5833              		.loc 1 2767 0
 5834 1d14 7A8A     		ldrh	r2, [r7, #18]	@ movhi
 5835 1d16 FB8A     		ldrh	r3, [r7, #22]	@ movhi
 5836 1d18 1343     		orrs	r3, r3, r2
 5837 1d1a 9BB2     		uxth	r3, r3
 5838 1d1c 43F01003 		orr	r3, r3, #16
 5839 1d20 FB82     		strh	r3, [r7, #22]	@ movhi
 5840 1d22 0AE0     		b	.L188
 5841              	.L187:
2768:../lib/STM32F10x_StdPeriph_Driver/src/stm32f10x_tim.c ****   }
2769:../lib/STM32F10x_StdPeriph_Driver/src/stm32f10x_tim.c ****   else
2770:../lib/STM32F10x_StdPeriph_Driver/src/stm32f10x_tim.c ****   {
2771:../lib/STM32F10x_StdPeriph_Driver/src/stm32f10x_tim.c ****     /* Select the Polarity and set the CC2E Bit */
2772:../lib/STM32F10x_StdPeriph_Driver/src/stm32f10x_tim.c ****     tmpccer &= (uint16_t)~((uint16_t)(TIM_CCER_CC2P | TIM_CCER_CC2NP));
 5842              		.loc 1 2772 0
 5843 1d24 FB8A     		ldrh	r3, [r7, #22]	@ movhi
 5844 1d26 23F0A003 		bic	r3, r3, #160
 5845 1d2a FB82     		strh	r3, [r7, #22]	@ movhi
2773:../lib/STM32F10x_StdPeriph_Driver/src/stm32f10x_tim.c ****     tmpccer |= (uint16_t)(TIM_ICPolarity | (uint16_t)TIM_CCER_CC2E);
 5846              		.loc 1 2773 0
 5847 1d2c 7A89     		ldrh	r2, [r7, #10]	@ movhi
 5848 1d2e FB8A     		ldrh	r3, [r7, #22]	@ movhi
 5849 1d30 1343     		orrs	r3, r3, r2
 5850 1d32 9BB2     		uxth	r3, r3
 5851 1d34 43F01003 		orr	r3, r3, #16
 5852 1d38 FB82     		strh	r3, [r7, #22]	@ movhi
 5853              	.L188:
2774:../lib/STM32F10x_StdPeriph_Driver/src/stm32f10x_tim.c ****   }
2775:../lib/STM32F10x_StdPeriph_Driver/src/stm32f10x_tim.c ****   
2776:../lib/STM32F10x_StdPeriph_Driver/src/stm32f10x_tim.c ****   /* Write to TIMx CCMR1 and CCER registers */
2777:../lib/STM32F10x_StdPeriph_Driver/src/stm32f10x_tim.c ****   TIMx->CCMR1 = tmpccmr1 ;
 5854              		.loc 1 2777 0
 5855 1d3a FB68     		ldr	r3, [r7, #12]
 5856 1d3c BA8A     		ldrh	r2, [r7, #20]	@ movhi
 5857 1d3e 1A83     		strh	r2, [r3, #24]	@ movhi
2778:../lib/STM32F10x_StdPeriph_Driver/src/stm32f10x_tim.c ****   TIMx->CCER = tmpccer;
 5858              		.loc 1 2778 0
 5859 1d40 FB68     		ldr	r3, [r7, #12]
 5860 1d42 FA8A     		ldrh	r2, [r7, #22]	@ movhi
 5861 1d44 1A84     		strh	r2, [r3, #32]	@ movhi
2779:../lib/STM32F10x_StdPeriph_Driver/src/stm32f10x_tim.c **** }
 5862              		.loc 1 2779 0
 5863 1d46 07F11C07 		add	r7, r7, #28
 5864 1d4a BD46     		mov	sp, r7
 5865 1d4c 80BC     		pop	{r7}
 5866 1d4e 7047     		bx	lr
 5867              	.L190:
 5868              		.align	2
 5869              	.L189:
 5870 1d50 002C0140 		.word	1073818624
 5871 1d54 00340140 		.word	1073820672
 5872 1d58 00040040 		.word	1073742848
 5873 1d5c 00080040 		.word	1073743872
 5874 1d60 000C0040 		.word	1073744896
 5875              		.cfi_endproc
 5876              	.LFE117:
 5878              		.align	2
 5879              		.thumb
 5880              		.thumb_func
 5882              	TI3_Config:
 5883              	.LFB118:
2780:../lib/STM32F10x_StdPeriph_Driver/src/stm32f10x_tim.c **** 
2781:../lib/STM32F10x_StdPeriph_Driver/src/stm32f10x_tim.c **** /**
2782:../lib/STM32F10x_StdPeriph_Driver/src/stm32f10x_tim.c ****   * @brief  Configure the TI3 as Input.
2783:../lib/STM32F10x_StdPeriph_Driver/src/stm32f10x_tim.c ****   * @param  TIMx: where x can be 1, 2, 3, 4, 5 or 8 to select the TIM peripheral.
2784:../lib/STM32F10x_StdPeriph_Driver/src/stm32f10x_tim.c ****   * @param  TIM_ICPolarity : The Input Polarity.
2785:../lib/STM32F10x_StdPeriph_Driver/src/stm32f10x_tim.c ****   *   This parameter can be one of the following values:
2786:../lib/STM32F10x_StdPeriph_Driver/src/stm32f10x_tim.c ****   *     @arg TIM_ICPolarity_Rising
2787:../lib/STM32F10x_StdPeriph_Driver/src/stm32f10x_tim.c ****   *     @arg TIM_ICPolarity_Falling
2788:../lib/STM32F10x_StdPeriph_Driver/src/stm32f10x_tim.c ****   * @param  TIM_ICSelection: specifies the input to be used.
2789:../lib/STM32F10x_StdPeriph_Driver/src/stm32f10x_tim.c ****   *   This parameter can be one of the following values:
2790:../lib/STM32F10x_StdPeriph_Driver/src/stm32f10x_tim.c ****   *     @arg TIM_ICSelection_DirectTI: TIM Input 3 is selected to be connected to IC3.
2791:../lib/STM32F10x_StdPeriph_Driver/src/stm32f10x_tim.c ****   *     @arg TIM_ICSelection_IndirectTI: TIM Input 3 is selected to be connected to IC4.
2792:../lib/STM32F10x_StdPeriph_Driver/src/stm32f10x_tim.c ****   *     @arg TIM_ICSelection_TRC: TIM Input 3 is selected to be connected to TRC.
2793:../lib/STM32F10x_StdPeriph_Driver/src/stm32f10x_tim.c ****   * @param  TIM_ICFilter: Specifies the Input Capture Filter.
2794:../lib/STM32F10x_StdPeriph_Driver/src/stm32f10x_tim.c ****   *   This parameter must be a value between 0x00 and 0x0F.
2795:../lib/STM32F10x_StdPeriph_Driver/src/stm32f10x_tim.c ****   * @retval None
2796:../lib/STM32F10x_StdPeriph_Driver/src/stm32f10x_tim.c ****   */
2797:../lib/STM32F10x_StdPeriph_Driver/src/stm32f10x_tim.c **** static void TI3_Config(TIM_TypeDef* TIMx, uint16_t TIM_ICPolarity, uint16_t TIM_ICSelection,
2798:../lib/STM32F10x_StdPeriph_Driver/src/stm32f10x_tim.c ****                        uint16_t TIM_ICFilter)
2799:../lib/STM32F10x_StdPeriph_Driver/src/stm32f10x_tim.c **** {
 5884              		.loc 1 2799 0
 5885              		.cfi_startproc
 5886              		@ args = 0, pretend = 0, frame = 24
 5887              		@ frame_needed = 1, uses_anonymous_args = 0
 5888              		@ link register save eliminated.
 5889 1d64 80B4     		push	{r7}
 5890              	.LCFI267:
 5891              		.cfi_def_cfa_offset 4
 5892              		.cfi_offset 7, -4
 5893 1d66 87B0     		sub	sp, sp, #28
 5894              	.LCFI268:
 5895              		.cfi_def_cfa_offset 32
 5896 1d68 00AF     		add	r7, sp, #0
 5897              	.LCFI269:
 5898              		.cfi_def_cfa_register 7
 5899 1d6a F860     		str	r0, [r7, #12]
 5900 1d6c 7981     		strh	r1, [r7, #10]	@ movhi
 5901 1d6e 3A81     		strh	r2, [r7, #8]	@ movhi
 5902 1d70 FB80     		strh	r3, [r7, #6]	@ movhi
2800:../lib/STM32F10x_StdPeriph_Driver/src/stm32f10x_tim.c ****   uint16_t tmpccmr2 = 0, tmpccer = 0, tmp = 0;
 5903              		.loc 1 2800 0
 5904 1d72 4FF00003 		mov	r3, #0
 5905 1d76 BB82     		strh	r3, [r7, #20]	@ movhi
 5906 1d78 4FF00003 		mov	r3, #0
 5907 1d7c FB82     		strh	r3, [r7, #22]	@ movhi
 5908 1d7e 4FF00003 		mov	r3, #0
 5909 1d82 7B82     		strh	r3, [r7, #18]	@ movhi
2801:../lib/STM32F10x_StdPeriph_Driver/src/stm32f10x_tim.c ****   /* Disable the Channel 3: Reset the CC3E Bit */
2802:../lib/STM32F10x_StdPeriph_Driver/src/stm32f10x_tim.c ****   TIMx->CCER &= (uint16_t)~((uint16_t)TIM_CCER_CC3E);
 5910              		.loc 1 2802 0
 5911 1d84 FB68     		ldr	r3, [r7, #12]
 5912 1d86 1B8C     		ldrh	r3, [r3, #32]	@ movhi
 5913 1d88 9BB2     		uxth	r3, r3
 5914 1d8a 23F48073 		bic	r3, r3, #256
 5915 1d8e 9AB2     		uxth	r2, r3
 5916 1d90 FB68     		ldr	r3, [r7, #12]
 5917 1d92 1A84     		strh	r2, [r3, #32]	@ movhi
2803:../lib/STM32F10x_StdPeriph_Driver/src/stm32f10x_tim.c ****   tmpccmr2 = TIMx->CCMR2;
 5918              		.loc 1 2803 0
 5919 1d94 FB68     		ldr	r3, [r7, #12]
 5920 1d96 9B8B     		ldrh	r3, [r3, #28]	@ movhi
 5921 1d98 BB82     		strh	r3, [r7, #20]	@ movhi
2804:../lib/STM32F10x_StdPeriph_Driver/src/stm32f10x_tim.c ****   tmpccer = TIMx->CCER;
 5922              		.loc 1 2804 0
 5923 1d9a FB68     		ldr	r3, [r7, #12]
 5924 1d9c 1B8C     		ldrh	r3, [r3, #32]	@ movhi
 5925 1d9e FB82     		strh	r3, [r7, #22]	@ movhi
2805:../lib/STM32F10x_StdPeriph_Driver/src/stm32f10x_tim.c ****   tmp = (uint16_t)(TIM_ICPolarity << 8);
 5926              		.loc 1 2805 0
 5927 1da0 7B89     		ldrh	r3, [r7, #10]	@ movhi
 5928 1da2 4FEA0323 		lsl	r3, r3, #8
 5929 1da6 7B82     		strh	r3, [r7, #18]	@ movhi
2806:../lib/STM32F10x_StdPeriph_Driver/src/stm32f10x_tim.c ****   /* Select the Input and set the filter */
2807:../lib/STM32F10x_StdPeriph_Driver/src/stm32f10x_tim.c ****   tmpccmr2 &= (uint16_t)(((uint16_t)~((uint16_t)TIM_CCMR2_CC3S)) & ((uint16_t)~((uint16_t)TIM_CCMR2
 5930              		.loc 1 2807 0
 5931 1da8 BB8A     		ldrh	r3, [r7, #20]	@ movhi
 5932 1daa 23F0F303 		bic	r3, r3, #243
 5933 1dae BB82     		strh	r3, [r7, #20]	@ movhi
2808:../lib/STM32F10x_StdPeriph_Driver/src/stm32f10x_tim.c ****   tmpccmr2 |= (uint16_t)(TIM_ICSelection | (uint16_t)(TIM_ICFilter << (uint16_t)4));
 5934              		.loc 1 2808 0
 5935 1db0 FB88     		ldrh	r3, [r7, #6]	@ movhi
 5936 1db2 4FEA0313 		lsl	r3, r3, #4
 5937 1db6 9AB2     		uxth	r2, r3
 5938 1db8 3B89     		ldrh	r3, [r7, #8]	@ movhi
 5939 1dba 1343     		orrs	r3, r3, r2
 5940 1dbc 9AB2     		uxth	r2, r3
 5941 1dbe BB8A     		ldrh	r3, [r7, #20]	@ movhi
 5942 1dc0 1343     		orrs	r3, r3, r2
 5943 1dc2 BB82     		strh	r3, [r7, #20]	@ movhi
2809:../lib/STM32F10x_StdPeriph_Driver/src/stm32f10x_tim.c ****     
2810:../lib/STM32F10x_StdPeriph_Driver/src/stm32f10x_tim.c ****   if((TIMx == TIM1) || (TIMx == TIM8) || (TIMx == TIM2) || (TIMx == TIM3) ||
 5944              		.loc 1 2810 0
 5945 1dc4 FA68     		ldr	r2, [r7, #12]
 5946 1dc6 1C4B     		ldr	r3, .L195
 5947 1dc8 9A42     		cmp	r2, r3
 5948 1dca 13D0     		beq	.L192
 5949              		.loc 1 2810 0 is_stmt 0 discriminator 1
 5950 1dcc FA68     		ldr	r2, [r7, #12]
 5951 1dce 1B4B     		ldr	r3, .L195+4
 5952 1dd0 9A42     		cmp	r2, r3
 5953 1dd2 0FD0     		beq	.L192
 5954 1dd4 FB68     		ldr	r3, [r7, #12]
 5955 1dd6 B3F1804F 		cmp	r3, #1073741824
 5956 1dda 0BD0     		beq	.L192
 5957 1ddc FA68     		ldr	r2, [r7, #12]
 5958 1dde 184B     		ldr	r3, .L195+8
 5959 1de0 9A42     		cmp	r2, r3
 5960 1de2 07D0     		beq	.L192
 5961 1de4 FA68     		ldr	r2, [r7, #12]
 5962 1de6 174B     		ldr	r3, .L195+12
 5963 1de8 9A42     		cmp	r2, r3
 5964 1dea 03D0     		beq	.L192
2811:../lib/STM32F10x_StdPeriph_Driver/src/stm32f10x_tim.c ****      (TIMx == TIM4) ||(TIMx == TIM5))
 5965              		.loc 1 2811 0 is_stmt 1
 5966 1dec FA68     		ldr	r2, [r7, #12]
 5967 1dee 164B     		ldr	r3, .L195+16
 5968 1df0 9A42     		cmp	r2, r3
 5969 1df2 0BD1     		bne	.L193
 5970              	.L192:
2812:../lib/STM32F10x_StdPeriph_Driver/src/stm32f10x_tim.c ****   {
2813:../lib/STM32F10x_StdPeriph_Driver/src/stm32f10x_tim.c ****     /* Select the Polarity and set the CC3E Bit */
2814:../lib/STM32F10x_StdPeriph_Driver/src/stm32f10x_tim.c ****     tmpccer &= (uint16_t)~((uint16_t)(TIM_CCER_CC3P));
 5971              		.loc 1 2814 0
 5972 1df4 FB8A     		ldrh	r3, [r7, #22]	@ movhi
 5973 1df6 23F40073 		bic	r3, r3, #512
 5974 1dfa FB82     		strh	r3, [r7, #22]	@ movhi
2815:../lib/STM32F10x_StdPeriph_Driver/src/stm32f10x_tim.c ****     tmpccer |= (uint16_t)(tmp | (uint16_t)TIM_CCER_CC3E);
 5975              		.loc 1 2815 0
 5976 1dfc 7A8A     		ldrh	r2, [r7, #18]	@ movhi
 5977 1dfe FB8A     		ldrh	r3, [r7, #22]	@ movhi
 5978 1e00 1343     		orrs	r3, r3, r2
 5979 1e02 9BB2     		uxth	r3, r3
 5980 1e04 43F48073 		orr	r3, r3, #256
 5981 1e08 FB82     		strh	r3, [r7, #22]	@ movhi
 5982 1e0a 0AE0     		b	.L194
 5983              	.L193:
2816:../lib/STM32F10x_StdPeriph_Driver/src/stm32f10x_tim.c ****   }
2817:../lib/STM32F10x_StdPeriph_Driver/src/stm32f10x_tim.c ****   else
2818:../lib/STM32F10x_StdPeriph_Driver/src/stm32f10x_tim.c ****   {
2819:../lib/STM32F10x_StdPeriph_Driver/src/stm32f10x_tim.c ****     /* Select the Polarity and set the CC3E Bit */
2820:../lib/STM32F10x_StdPeriph_Driver/src/stm32f10x_tim.c ****     tmpccer &= (uint16_t)~((uint16_t)(TIM_CCER_CC3P | TIM_CCER_CC3NP));
 5984              		.loc 1 2820 0
 5985 1e0c FB8A     		ldrh	r3, [r7, #22]	@ movhi
 5986 1e0e 23F42063 		bic	r3, r3, #2560
 5987 1e12 FB82     		strh	r3, [r7, #22]	@ movhi
2821:../lib/STM32F10x_StdPeriph_Driver/src/stm32f10x_tim.c ****     tmpccer |= (uint16_t)(TIM_ICPolarity | (uint16_t)TIM_CCER_CC3E);
 5988              		.loc 1 2821 0
 5989 1e14 7A89     		ldrh	r2, [r7, #10]	@ movhi
 5990 1e16 FB8A     		ldrh	r3, [r7, #22]	@ movhi
 5991 1e18 1343     		orrs	r3, r3, r2
 5992 1e1a 9BB2     		uxth	r3, r3
 5993 1e1c 43F48073 		orr	r3, r3, #256
 5994 1e20 FB82     		strh	r3, [r7, #22]	@ movhi
 5995              	.L194:
2822:../lib/STM32F10x_StdPeriph_Driver/src/stm32f10x_tim.c ****   }
2823:../lib/STM32F10x_StdPeriph_Driver/src/stm32f10x_tim.c ****   
2824:../lib/STM32F10x_StdPeriph_Driver/src/stm32f10x_tim.c ****   /* Write to TIMx CCMR2 and CCER registers */
2825:../lib/STM32F10x_StdPeriph_Driver/src/stm32f10x_tim.c ****   TIMx->CCMR2 = tmpccmr2;
 5996              		.loc 1 2825 0
 5997 1e22 FB68     		ldr	r3, [r7, #12]
 5998 1e24 BA8A     		ldrh	r2, [r7, #20]	@ movhi
 5999 1e26 9A83     		strh	r2, [r3, #28]	@ movhi
2826:../lib/STM32F10x_StdPeriph_Driver/src/stm32f10x_tim.c ****   TIMx->CCER = tmpccer;
 6000              		.loc 1 2826 0
 6001 1e28 FB68     		ldr	r3, [r7, #12]
 6002 1e2a FA8A     		ldrh	r2, [r7, #22]	@ movhi
 6003 1e2c 1A84     		strh	r2, [r3, #32]	@ movhi
2827:../lib/STM32F10x_StdPeriph_Driver/src/stm32f10x_tim.c **** }
 6004              		.loc 1 2827 0
 6005 1e2e 07F11C07 		add	r7, r7, #28
 6006 1e32 BD46     		mov	sp, r7
 6007 1e34 80BC     		pop	{r7}
 6008 1e36 7047     		bx	lr
 6009              	.L196:
 6010              		.align	2
 6011              	.L195:
 6012 1e38 002C0140 		.word	1073818624
 6013 1e3c 00340140 		.word	1073820672
 6014 1e40 00040040 		.word	1073742848
 6015 1e44 00080040 		.word	1073743872
 6016 1e48 000C0040 		.word	1073744896
 6017              		.cfi_endproc
 6018              	.LFE118:
 6020              		.align	2
 6021              		.thumb
 6022              		.thumb_func
 6024              	TI4_Config:
 6025              	.LFB119:
2828:../lib/STM32F10x_StdPeriph_Driver/src/stm32f10x_tim.c **** 
2829:../lib/STM32F10x_StdPeriph_Driver/src/stm32f10x_tim.c **** /**
2830:../lib/STM32F10x_StdPeriph_Driver/src/stm32f10x_tim.c ****   * @brief  Configure the TI4 as Input.
2831:../lib/STM32F10x_StdPeriph_Driver/src/stm32f10x_tim.c ****   * @param  TIMx: where x can be 1, 2, 3, 4, 5 or 8 to select the TIM peripheral.
2832:../lib/STM32F10x_StdPeriph_Driver/src/stm32f10x_tim.c ****   * @param  TIM_ICPolarity : The Input Polarity.
2833:../lib/STM32F10x_StdPeriph_Driver/src/stm32f10x_tim.c ****   *   This parameter can be one of the following values:
2834:../lib/STM32F10x_StdPeriph_Driver/src/stm32f10x_tim.c ****   *     @arg TIM_ICPolarity_Rising
2835:../lib/STM32F10x_StdPeriph_Driver/src/stm32f10x_tim.c ****   *     @arg TIM_ICPolarity_Falling
2836:../lib/STM32F10x_StdPeriph_Driver/src/stm32f10x_tim.c ****   * @param  TIM_ICSelection: specifies the input to be used.
2837:../lib/STM32F10x_StdPeriph_Driver/src/stm32f10x_tim.c ****   *   This parameter can be one of the following values:
2838:../lib/STM32F10x_StdPeriph_Driver/src/stm32f10x_tim.c ****   *     @arg TIM_ICSelection_DirectTI: TIM Input 4 is selected to be connected to IC4.
2839:../lib/STM32F10x_StdPeriph_Driver/src/stm32f10x_tim.c ****   *     @arg TIM_ICSelection_IndirectTI: TIM Input 4 is selected to be connected to IC3.
2840:../lib/STM32F10x_StdPeriph_Driver/src/stm32f10x_tim.c ****   *     @arg TIM_ICSelection_TRC: TIM Input 4 is selected to be connected to TRC.
2841:../lib/STM32F10x_StdPeriph_Driver/src/stm32f10x_tim.c ****   * @param  TIM_ICFilter: Specifies the Input Capture Filter.
2842:../lib/STM32F10x_StdPeriph_Driver/src/stm32f10x_tim.c ****   *   This parameter must be a value between 0x00 and 0x0F.
2843:../lib/STM32F10x_StdPeriph_Driver/src/stm32f10x_tim.c ****   * @retval None
2844:../lib/STM32F10x_StdPeriph_Driver/src/stm32f10x_tim.c ****   */
2845:../lib/STM32F10x_StdPeriph_Driver/src/stm32f10x_tim.c **** static void TI4_Config(TIM_TypeDef* TIMx, uint16_t TIM_ICPolarity, uint16_t TIM_ICSelection,
2846:../lib/STM32F10x_StdPeriph_Driver/src/stm32f10x_tim.c ****                        uint16_t TIM_ICFilter)
2847:../lib/STM32F10x_StdPeriph_Driver/src/stm32f10x_tim.c **** {
 6026              		.loc 1 2847 0
 6027              		.cfi_startproc
 6028              		@ args = 0, pretend = 0, frame = 24
 6029              		@ frame_needed = 1, uses_anonymous_args = 0
 6030              		@ link register save eliminated.
 6031 1e4c 80B4     		push	{r7}
 6032              	.LCFI270:
 6033              		.cfi_def_cfa_offset 4
 6034              		.cfi_offset 7, -4
 6035 1e4e 87B0     		sub	sp, sp, #28
 6036              	.LCFI271:
 6037              		.cfi_def_cfa_offset 32
 6038 1e50 00AF     		add	r7, sp, #0
 6039              	.LCFI272:
 6040              		.cfi_def_cfa_register 7
 6041 1e52 F860     		str	r0, [r7, #12]
 6042 1e54 7981     		strh	r1, [r7, #10]	@ movhi
 6043 1e56 3A81     		strh	r2, [r7, #8]	@ movhi
 6044 1e58 FB80     		strh	r3, [r7, #6]	@ movhi
2848:../lib/STM32F10x_StdPeriph_Driver/src/stm32f10x_tim.c ****   uint16_t tmpccmr2 = 0, tmpccer = 0, tmp = 0;
 6045              		.loc 1 2848 0
 6046 1e5a 4FF00003 		mov	r3, #0
 6047 1e5e BB82     		strh	r3, [r7, #20]	@ movhi
 6048 1e60 4FF00003 		mov	r3, #0
 6049 1e64 FB82     		strh	r3, [r7, #22]	@ movhi
 6050 1e66 4FF00003 		mov	r3, #0
 6051 1e6a 7B82     		strh	r3, [r7, #18]	@ movhi
2849:../lib/STM32F10x_StdPeriph_Driver/src/stm32f10x_tim.c **** 
2850:../lib/STM32F10x_StdPeriph_Driver/src/stm32f10x_tim.c ****    /* Disable the Channel 4: Reset the CC4E Bit */
2851:../lib/STM32F10x_StdPeriph_Driver/src/stm32f10x_tim.c ****   TIMx->CCER &= (uint16_t)~((uint16_t)TIM_CCER_CC4E);
 6052              		.loc 1 2851 0
 6053 1e6c FB68     		ldr	r3, [r7, #12]
 6054 1e6e 1B8C     		ldrh	r3, [r3, #32]	@ movhi
 6055 1e70 9BB2     		uxth	r3, r3
 6056 1e72 23F48053 		bic	r3, r3, #4096
 6057 1e76 9AB2     		uxth	r2, r3
 6058 1e78 FB68     		ldr	r3, [r7, #12]
 6059 1e7a 1A84     		strh	r2, [r3, #32]	@ movhi
2852:../lib/STM32F10x_StdPeriph_Driver/src/stm32f10x_tim.c ****   tmpccmr2 = TIMx->CCMR2;
 6060              		.loc 1 2852 0
 6061 1e7c FB68     		ldr	r3, [r7, #12]
 6062 1e7e 9B8B     		ldrh	r3, [r3, #28]	@ movhi
 6063 1e80 BB82     		strh	r3, [r7, #20]	@ movhi
2853:../lib/STM32F10x_StdPeriph_Driver/src/stm32f10x_tim.c ****   tmpccer = TIMx->CCER;
 6064              		.loc 1 2853 0
 6065 1e82 FB68     		ldr	r3, [r7, #12]
 6066 1e84 1B8C     		ldrh	r3, [r3, #32]	@ movhi
 6067 1e86 FB82     		strh	r3, [r7, #22]	@ movhi
2854:../lib/STM32F10x_StdPeriph_Driver/src/stm32f10x_tim.c ****   tmp = (uint16_t)(TIM_ICPolarity << 12);
 6068              		.loc 1 2854 0
 6069 1e88 7B89     		ldrh	r3, [r7, #10]	@ movhi
 6070 1e8a 4FEA0333 		lsl	r3, r3, #12
 6071 1e8e 7B82     		strh	r3, [r7, #18]	@ movhi
2855:../lib/STM32F10x_StdPeriph_Driver/src/stm32f10x_tim.c ****   /* Select the Input and set the filter */
2856:../lib/STM32F10x_StdPeriph_Driver/src/stm32f10x_tim.c ****   tmpccmr2 &= (uint16_t)((uint16_t)(~(uint16_t)TIM_CCMR2_CC4S) & ((uint16_t)~((uint16_t)TIM_CCMR2_I
 6072              		.loc 1 2856 0
 6073 1e90 BB8A     		ldrh	r3, [r7, #20]	@ movhi
 6074 1e92 23F44073 		bic	r3, r3, #768
 6075 1e96 4FEA0353 		lsl	r3, r3, #20
 6076 1e9a 4FEA1353 		lsr	r3, r3, #20
 6077 1e9e BB82     		strh	r3, [r7, #20]	@ movhi
2857:../lib/STM32F10x_StdPeriph_Driver/src/stm32f10x_tim.c ****   tmpccmr2 |= (uint16_t)(TIM_ICSelection << 8);
 6078              		.loc 1 2857 0
 6079 1ea0 3B89     		ldrh	r3, [r7, #8]	@ movhi
 6080 1ea2 4FEA0323 		lsl	r3, r3, #8
 6081 1ea6 9AB2     		uxth	r2, r3
 6082 1ea8 BB8A     		ldrh	r3, [r7, #20]	@ movhi
 6083 1eaa 1343     		orrs	r3, r3, r2
 6084 1eac BB82     		strh	r3, [r7, #20]	@ movhi
2858:../lib/STM32F10x_StdPeriph_Driver/src/stm32f10x_tim.c ****   tmpccmr2 |= (uint16_t)(TIM_ICFilter << 12);
 6085              		.loc 1 2858 0
 6086 1eae FB88     		ldrh	r3, [r7, #6]	@ movhi
 6087 1eb0 4FEA0333 		lsl	r3, r3, #12
 6088 1eb4 9AB2     		uxth	r2, r3
 6089 1eb6 BB8A     		ldrh	r3, [r7, #20]	@ movhi
 6090 1eb8 1343     		orrs	r3, r3, r2
 6091 1eba BB82     		strh	r3, [r7, #20]	@ movhi
2859:../lib/STM32F10x_StdPeriph_Driver/src/stm32f10x_tim.c ****   
2860:../lib/STM32F10x_StdPeriph_Driver/src/stm32f10x_tim.c ****   if((TIMx == TIM1) || (TIMx == TIM8) || (TIMx == TIM2) || (TIMx == TIM3) ||
 6092              		.loc 1 2860 0
 6093 1ebc FA68     		ldr	r2, [r7, #12]
 6094 1ebe 1E4B     		ldr	r3, .L201
 6095 1ec0 9A42     		cmp	r2, r3
 6096 1ec2 13D0     		beq	.L198
 6097              		.loc 1 2860 0 is_stmt 0 discriminator 1
 6098 1ec4 FA68     		ldr	r2, [r7, #12]
 6099 1ec6 1D4B     		ldr	r3, .L201+4
 6100 1ec8 9A42     		cmp	r2, r3
 6101 1eca 0FD0     		beq	.L198
 6102 1ecc FB68     		ldr	r3, [r7, #12]
 6103 1ece B3F1804F 		cmp	r3, #1073741824
 6104 1ed2 0BD0     		beq	.L198
 6105 1ed4 FA68     		ldr	r2, [r7, #12]
 6106 1ed6 1A4B     		ldr	r3, .L201+8
 6107 1ed8 9A42     		cmp	r2, r3
 6108 1eda 07D0     		beq	.L198
 6109 1edc FA68     		ldr	r2, [r7, #12]
 6110 1ede 194B     		ldr	r3, .L201+12
 6111 1ee0 9A42     		cmp	r2, r3
 6112 1ee2 03D0     		beq	.L198
2861:../lib/STM32F10x_StdPeriph_Driver/src/stm32f10x_tim.c ****      (TIMx == TIM4) ||(TIMx == TIM5))
 6113              		.loc 1 2861 0 is_stmt 1
 6114 1ee4 FA68     		ldr	r2, [r7, #12]
 6115 1ee6 184B     		ldr	r3, .L201+16
 6116 1ee8 9A42     		cmp	r2, r3
 6117 1eea 0BD1     		bne	.L199
 6118              	.L198:
2862:../lib/STM32F10x_StdPeriph_Driver/src/stm32f10x_tim.c ****   {
2863:../lib/STM32F10x_StdPeriph_Driver/src/stm32f10x_tim.c ****     /* Select the Polarity and set the CC4E Bit */
2864:../lib/STM32F10x_StdPeriph_Driver/src/stm32f10x_tim.c ****     tmpccer &= (uint16_t)~((uint16_t)(TIM_CCER_CC4P));
 6119              		.loc 1 2864 0
 6120 1eec FB8A     		ldrh	r3, [r7, #22]	@ movhi
 6121 1eee 23F40053 		bic	r3, r3, #8192
 6122 1ef2 FB82     		strh	r3, [r7, #22]	@ movhi
2865:../lib/STM32F10x_StdPeriph_Driver/src/stm32f10x_tim.c ****     tmpccer |= (uint16_t)(tmp | (uint16_t)TIM_CCER_CC4E);
 6123              		.loc 1 2865 0
 6124 1ef4 7A8A     		ldrh	r2, [r7, #18]	@ movhi
 6125 1ef6 FB8A     		ldrh	r3, [r7, #22]	@ movhi
 6126 1ef8 1343     		orrs	r3, r3, r2
 6127 1efa 9BB2     		uxth	r3, r3
 6128 1efc 43F48053 		orr	r3, r3, #4096
 6129 1f00 FB82     		strh	r3, [r7, #22]	@ movhi
 6130 1f02 0EE0     		b	.L200
 6131              	.L199:
2866:../lib/STM32F10x_StdPeriph_Driver/src/stm32f10x_tim.c ****   }
2867:../lib/STM32F10x_StdPeriph_Driver/src/stm32f10x_tim.c ****   else
2868:../lib/STM32F10x_StdPeriph_Driver/src/stm32f10x_tim.c ****   {
2869:../lib/STM32F10x_StdPeriph_Driver/src/stm32f10x_tim.c ****     /* Select the Polarity and set the CC4E Bit */
2870:../lib/STM32F10x_StdPeriph_Driver/src/stm32f10x_tim.c ****     tmpccer &= (uint16_t)~((uint16_t)(TIM_CCER_CC3P | TIM_CCER_CC4NP));
 6132              		.loc 1 2870 0
 6133 1f04 FB8A     		ldrh	r3, [r7, #22]	@ movhi
 6134 1f06 23F40073 		bic	r3, r3, #512
 6135 1f0a 4FEA4343 		lsl	r3, r3, #17
 6136 1f0e 4FEA5343 		lsr	r3, r3, #17
 6137 1f12 FB82     		strh	r3, [r7, #22]	@ movhi
2871:../lib/STM32F10x_StdPeriph_Driver/src/stm32f10x_tim.c ****     tmpccer |= (uint16_t)(TIM_ICPolarity | (uint16_t)TIM_CCER_CC4E);
 6138              		.loc 1 2871 0
 6139 1f14 7A89     		ldrh	r2, [r7, #10]	@ movhi
 6140 1f16 FB8A     		ldrh	r3, [r7, #22]	@ movhi
 6141 1f18 1343     		orrs	r3, r3, r2
 6142 1f1a 9BB2     		uxth	r3, r3
 6143 1f1c 43F48053 		orr	r3, r3, #4096
 6144 1f20 FB82     		strh	r3, [r7, #22]	@ movhi
 6145              	.L200:
2872:../lib/STM32F10x_StdPeriph_Driver/src/stm32f10x_tim.c ****   }
2873:../lib/STM32F10x_StdPeriph_Driver/src/stm32f10x_tim.c ****   /* Write to TIMx CCMR2 and CCER registers */
2874:../lib/STM32F10x_StdPeriph_Driver/src/stm32f10x_tim.c ****   TIMx->CCMR2 = tmpccmr2;
 6146              		.loc 1 2874 0
 6147 1f22 FB68     		ldr	r3, [r7, #12]
 6148 1f24 BA8A     		ldrh	r2, [r7, #20]	@ movhi
 6149 1f26 9A83     		strh	r2, [r3, #28]	@ movhi
2875:../lib/STM32F10x_StdPeriph_Driver/src/stm32f10x_tim.c ****   TIMx->CCER = tmpccer;
 6150              		.loc 1 2875 0
 6151 1f28 FB68     		ldr	r3, [r7, #12]
 6152 1f2a FA8A     		ldrh	r2, [r7, #22]	@ movhi
 6153 1f2c 1A84     		strh	r2, [r3, #32]	@ movhi
2876:../lib/STM32F10x_StdPeriph_Driver/src/stm32f10x_tim.c **** }
 6154              		.loc 1 2876 0
 6155 1f2e 07F11C07 		add	r7, r7, #28
 6156 1f32 BD46     		mov	sp, r7
 6157 1f34 80BC     		pop	{r7}
 6158 1f36 7047     		bx	lr
 6159              	.L202:
 6160              		.align	2
 6161              	.L201:
 6162 1f38 002C0140 		.word	1073818624
 6163 1f3c 00340140 		.word	1073820672
 6164 1f40 00040040 		.word	1073742848
 6165 1f44 00080040 		.word	1073743872
 6166 1f48 000C0040 		.word	1073744896
 6167              		.cfi_endproc
 6168              	.LFE119:
 6170              	.Letext0:
 6171              		.file 2 "/home/oni/ARM_EABI/bin/../lib/gcc/arm-none-eabi/4.7.2/../../../../arm-none-eabi/include/s
 6172              		.file 3 "/home/oni/workspace/Naze32/lib/CMSIS/CM3/DeviceSupport/ST/STM32F10x/stm32f10x.h"
 6173              		.file 4 "/home/oni/workspace/Naze32/lib/STM32F10x_StdPeriph_Driver/inc/stm32f10x_tim.h"
 6174              		.file 5 "/home/oni/workspace/Naze32/lib/CMSIS/CM3/CoreSupport/core_cm3.h"
DEFINED SYMBOLS
                            *ABS*:00000000 stm32f10x_tim.c
     /tmp/ccgvrYDC.s:18     .text:00000000 $t
     /tmp/ccgvrYDC.s:23     .text:00000000 TIM_DeInit
     /tmp/ccgvrYDC.s:302    .text:00000250 $d
     /tmp/ccgvrYDC.s:321    .text:00000290 $t
     /tmp/ccgvrYDC.s:326    .text:00000290 TIM_TimeBaseInit
     /tmp/ccgvrYDC.s:467    .text:00000364 $d
     /tmp/ccgvrYDC.s:480    .text:0000038c $t
     /tmp/ccgvrYDC.s:485    .text:0000038c TIM_OC1Init
     /tmp/ccgvrYDC.s:651    .text:00000494 $d
     /tmp/ccgvrYDC.s:659    .text:000004a8 $t
     /tmp/ccgvrYDC.s:664    .text:000004a8 TIM_OC2Init
     /tmp/ccgvrYDC.s:831    .text:000005c4 $d
     /tmp/ccgvrYDC.s:836    .text:000005cc $t
     /tmp/ccgvrYDC.s:841    .text:000005cc TIM_OC3Init
     /tmp/ccgvrYDC.s:1006   .text:000006e0 $d
     /tmp/ccgvrYDC.s:1011   .text:000006e8 $t
     /tmp/ccgvrYDC.s:1016   .text:000006e8 TIM_OC4Init
     /tmp/ccgvrYDC.s:1147   .text:000007bc $d
     /tmp/ccgvrYDC.s:1152   .text:000007c4 $t
     /tmp/ccgvrYDC.s:1157   .text:000007c4 TIM_ICInit
     /tmp/ccgvrYDC.s:5598   .text:00001b90 TI1_Config
     /tmp/ccgvrYDC.s:4919   .text:000018e0 TIM_SetIC1Prescaler
     /tmp/ccgvrYDC.s:5734   .text:00001c6c TI2_Config
     /tmp/ccgvrYDC.s:4969   .text:00001918 TIM_SetIC2Prescaler
     /tmp/ccgvrYDC.s:5882   .text:00001d64 TI3_Config
     /tmp/ccgvrYDC.s:5021   .text:00001954 TIM_SetIC3Prescaler
     /tmp/ccgvrYDC.s:6024   .text:00001e4c TI4_Config
     /tmp/ccgvrYDC.s:5071   .text:0000198c TIM_SetIC4Prescaler
     /tmp/ccgvrYDC.s:1286   .text:0000086c TIM_PWMIConfig
     /tmp/ccgvrYDC.s:1419   .text:00000930 TIM_BDTRConfig
     /tmp/ccgvrYDC.s:1490   .text:00000980 TIM_TimeBaseStructInit
     /tmp/ccgvrYDC.s:1541   .text:000009bc TIM_OCStructInit
     /tmp/ccgvrYDC.s:1604   .text:00000a10 TIM_ICStructInit
     /tmp/ccgvrYDC.s:1655   .text:00000a4c TIM_BDTRStructInit
     /tmp/ccgvrYDC.s:1714   .text:00000a98 TIM_Cmd
     /tmp/ccgvrYDC.s:1770   .text:00000ad8 TIM_CtrlPWMOutputs
     /tmp/ccgvrYDC.s:1828   .text:00000b28 TIM_ITConfig
     /tmp/ccgvrYDC.s:1890   .text:00000b70 TIM_GenerateEvent
     /tmp/ccgvrYDC.s:1927   .text:00000b8c TIM_DMAConfig
     /tmp/ccgvrYDC.s:1969   .text:00000bb4 TIM_DMACmd
     /tmp/ccgvrYDC.s:2031   .text:00000bfc TIM_InternalClockConfig
     /tmp/ccgvrYDC.s:2070   .text:00000c20 TIM_ITRxExternalClockConfig
     /tmp/ccgvrYDC.s:2453   .text:00000ddc TIM_SelectInputTrigger
     /tmp/ccgvrYDC.s:2115   .text:00000c50 TIM_TIxExternalClockConfig
     /tmp/ccgvrYDC.s:2182   .text:00000ca8 TIM_ETRClockMode1Config
     /tmp/ccgvrYDC.s:2295   .text:00000d30 TIM_ETRConfig
     /tmp/ccgvrYDC.s:2248   .text:00000cfc TIM_ETRClockMode2Config
     /tmp/ccgvrYDC.s:2357   .text:00000d7c TIM_PrescalerConfig
     /tmp/ccgvrYDC.s:2400   .text:00000da4 TIM_CounterModeConfig
     /tmp/ccgvrYDC.s:2506   .text:00000e14 TIM_EncoderInterfaceConfig
     /tmp/ccgvrYDC.s:2606   .text:00000ea8 TIM_ForcedOC1Config
     /tmp/ccgvrYDC.s:2659   .text:00000ee0 TIM_ForcedOC2Config
     /tmp/ccgvrYDC.s:2714   .text:00000f20 TIM_ForcedOC3Config
     /tmp/ccgvrYDC.s:2767   .text:00000f58 TIM_ForcedOC4Config
     /tmp/ccgvrYDC.s:2822   .text:00000f98 TIM_ARRPreloadConfig
     /tmp/ccgvrYDC.s:2878   .text:00000fd8 TIM_SelectCOM
     /tmp/ccgvrYDC.s:2934   .text:00001018 TIM_SelectCCDMA
     /tmp/ccgvrYDC.s:2990   .text:00001058 TIM_CCPreloadControl
     /tmp/ccgvrYDC.s:3046   .text:00001098 TIM_OC1PreloadConfig
     /tmp/ccgvrYDC.s:3099   .text:000010d0 TIM_OC2PreloadConfig
     /tmp/ccgvrYDC.s:3154   .text:00001110 TIM_OC3PreloadConfig
     /tmp/ccgvrYDC.s:3207   .text:00001148 TIM_OC4PreloadConfig
     /tmp/ccgvrYDC.s:3262   .text:00001188 TIM_OC1FastConfig
     /tmp/ccgvrYDC.s:3315   .text:000011c0 TIM_OC2FastConfig
     /tmp/ccgvrYDC.s:3370   .text:00001200 TIM_OC3FastConfig
     /tmp/ccgvrYDC.s:3423   .text:00001238 TIM_OC4FastConfig
     /tmp/ccgvrYDC.s:3478   .text:00001278 TIM_ClearOC1Ref
     /tmp/ccgvrYDC.s:3531   .text:000012b0 TIM_ClearOC2Ref
     /tmp/ccgvrYDC.s:3587   .text:000012f4 TIM_ClearOC3Ref
     /tmp/ccgvrYDC.s:3640   .text:0000132c TIM_ClearOC4Ref
     /tmp/ccgvrYDC.s:3696   .text:00001370 TIM_OC1PolarityConfig
     /tmp/ccgvrYDC.s:3749   .text:000013a8 TIM_OC1NPolarityConfig
     /tmp/ccgvrYDC.s:3802   .text:000013e0 TIM_OC2PolarityConfig
     /tmp/ccgvrYDC.s:3857   .text:00001420 TIM_OC2NPolarityConfig
     /tmp/ccgvrYDC.s:3912   .text:00001460 TIM_OC3PolarityConfig
     /tmp/ccgvrYDC.s:3967   .text:000014a0 TIM_OC3NPolarityConfig
     /tmp/ccgvrYDC.s:4022   .text:000014e0 TIM_OC4PolarityConfig
     /tmp/ccgvrYDC.s:4077   .text:00001520 TIM_CCxCmd
     /tmp/ccgvrYDC.s:4143   .text:0000157c TIM_CCxNCmd
     /tmp/ccgvrYDC.s:4209   .text:000015d8 TIM_SelectOCxM
     /tmp/ccgvrYDC.s:4329   .text:00001694 TIM_UpdateDisableConfig
     /tmp/ccgvrYDC.s:4385   .text:000016d4 TIM_UpdateRequestConfig
     /tmp/ccgvrYDC.s:4441   .text:00001714 TIM_SelectHallSensor
     /tmp/ccgvrYDC.s:4497   .text:00001754 TIM_SelectOnePulseMode
     /tmp/ccgvrYDC.s:4547   .text:0000178c TIM_SelectOutputTrigger
     /tmp/ccgvrYDC.s:4597   .text:000017c4 TIM_SelectSlaveMode
     /tmp/ccgvrYDC.s:4647   .text:000017fc TIM_SelectMasterSlaveMode
     /tmp/ccgvrYDC.s:4697   .text:00001834 TIM_SetCounter
     /tmp/ccgvrYDC.s:4734   .text:00001850 TIM_SetAutoreload
     /tmp/ccgvrYDC.s:4771   .text:0000186c TIM_SetCompare1
     /tmp/ccgvrYDC.s:4808   .text:00001888 TIM_SetCompare2
     /tmp/ccgvrYDC.s:4845   .text:000018a4 TIM_SetCompare3
     /tmp/ccgvrYDC.s:4882   .text:000018c0 TIM_SetCompare4
     /tmp/ccgvrYDC.s:5123   .text:000019c8 TIM_SetClockDivision
     /tmp/ccgvrYDC.s:5173   .text:00001a00 TIM_GetCapture1
     /tmp/ccgvrYDC.s:5209   .text:00001a1c TIM_GetCapture2
     /tmp/ccgvrYDC.s:5245   .text:00001a38 TIM_GetCapture3
     /tmp/ccgvrYDC.s:5281   .text:00001a54 TIM_GetCapture4
     /tmp/ccgvrYDC.s:5317   .text:00001a70 TIM_GetCounter
     /tmp/ccgvrYDC.s:5353   .text:00001a8c TIM_GetPrescaler
     /tmp/ccgvrYDC.s:5389   .text:00001aa8 TIM_GetFlagStatus
     /tmp/ccgvrYDC.s:5446   .text:00001ae8 TIM_ClearFlag
     /tmp/ccgvrYDC.s:5485   .text:00001b0c TIM_GetITStatus
     /tmp/ccgvrYDC.s:5560   .text:00001b6c TIM_ClearITPendingBit
     /tmp/ccgvrYDC.s:5722   .text:00001c58 $d
     /tmp/ccgvrYDC.s:5730   .text:00001c6c $t
     /tmp/ccgvrYDC.s:5870   .text:00001d50 $d
     /tmp/ccgvrYDC.s:5878   .text:00001d64 $t
     /tmp/ccgvrYDC.s:6012   .text:00001e38 $d
     /tmp/ccgvrYDC.s:6020   .text:00001e4c $t
     /tmp/ccgvrYDC.s:6162   .text:00001f38 $d
                     .debug_frame:00000010 $d
                           .group:00000000 wm4.1.809c0ff785d6d6219236c5d51f444c16
                           .group:00000000 wm4.stm32f10x.h.51.b859cb68ed44ee02c916b41cb8c68f1c
                           .group:00000000 wm4.core_cm3.h.25.d35e9a9b04ec4aaebae9bf79fff061f9
                           .group:00000000 wm4.stdint.h.10.90b695f550ca6cc3fb08fa83baf01e05
                           .group:00000000 wm4.core_cm3.h.113.b286929a54d33b4c8909a7132437b244
                           .group:00000000 wm4.stm32f10x.h.522.9a9f642c8c562acb4a63ad5d933b7c01
                           .group:00000000 wm4.stm32f10x_adc.h.83.4d35a50d598070ecea6f33bcef02c922
                           .group:00000000 wm4.stm32f10x_bkp.h.25.4622919f1e30efdad5eb44e12edd5513
                           .group:00000000 wm4.stm32f10x_can.h.25.48aab46fcce6d08400bf960b028e4698
                           .group:00000000 wm4.stm32f10x_cec.h.25.8f03450e7bbb704d96e7bc73ec0f66a7
                           .group:00000000 wm4.stm32f10x_dac.h.25.6e7f2924f39c60c10815105b99b8b446
                           .group:00000000 wm4.stm32f10x_dbgmcu.h.25.d3351200fc7f9c8615d1ae81d40db08a
                           .group:00000000 wm4.stm32f10x_dma.h.25.94e36204daa98cae5dcc70a10a9694d5
                           .group:00000000 wm4.stm32f10x_exti.h.25.b9064155c5c006b5154b39788c79001a
                           .group:00000000 wm4.stm32f10x_flash.h.25.4be61fcb02863962a1e006449d310650
                           .group:00000000 wm4.stm32f10x_fsmc.h.25.bca154da2699cdb6024c0c6c4fc5aa89
                           .group:00000000 wm4.stm32f10x_gpio.h.25.80c981af0e637567395034c576cfb3ce
                           .group:00000000 wm4.stm32f10x_i2c.h.25.7b6cbaea24c6f25f538f8516d1814cb2
                           .group:00000000 wm4.stm32f10x_iwdg.h.25.da9374ab9856795610487f312ccf3122
                           .group:00000000 wm4.stm32f10x_pwr.h.25.37ef75009f751ef5fe27910e0bf00a62
                           .group:00000000 wm4.stm32f10x_rcc.h.25.968bcf08d813e68e57c280a4da69fa5a
                           .group:00000000 wm4.stm32f10x_rtc.h.25.361142606ba98ddcd10369f321f6e636
                           .group:00000000 wm4.stm32f10x_sdio.h.25.1fb5280a7690ef99070096bf8c866b3a
                           .group:00000000 wm4.stm32f10x_spi.h.25.68b3d5ccfcf895f9fe505ce20c0c300f
                           .group:00000000 wm4.stm32f10x_usart.h.25.29629c699b65db3f3efd3561f66b0bf6
                           .group:00000000 wm4.stm32f10x_wwdg.h.25.dde12201d86b5aa9ecaafb5eccdc6549
                           .group:00000000 wm4.misc.h.25.068e106f368fa5369a681ef57c106f4b
                           .group:00000000 wm4.stm32f10x.h.8304.f7d8ad90959e99679b3257267c3aadfe
                           .group:00000000 wm4.stm32f10x_tim.h.169.8f8085157e91950a28cd697cc942a58d

UNDEFINED SYMBOLS
RCC_APB2PeriphResetCmd
RCC_APB1PeriphResetCmd
