   1              		.syntax unified
   2              		.cpu cortex-m3
   3              		.fpu softvfp
   4              		.eabi_attribute 20, 1
   5              		.eabi_attribute 21, 1
   6              		.eabi_attribute 23, 3
   7              		.eabi_attribute 24, 1
   8              		.eabi_attribute 25, 1
   9              		.eabi_attribute 26, 1
  10              		.eabi_attribute 30, 6
  11              		.eabi_attribute 34, 1
  12              		.eabi_attribute 18, 4
  13              		.thumb
  14              		.file	"drv_hcsr04.c"
  15              		.text
  16              	.Ltext0:
  17              		.cfi_sections	.debug_frame
  18              		.align	2
  19              		.thumb
  20              		.thumb_func
  22              	NVIC_EnableIRQ:
  23              	.LFB14:
  24              		.file 1 "/home/oni/workspace/Naze32/lib/CMSIS/CM3/CoreSupport/core_cm3.h"
   1:/home/oni/workspace/Naze32/lib/CMSIS/CM3/CoreSupport/core_cm3.h **** /**************************************************************************//**
   2:/home/oni/workspace/Naze32/lib/CMSIS/CM3/CoreSupport/core_cm3.h ****  * @file     core_cm3.h
   3:/home/oni/workspace/Naze32/lib/CMSIS/CM3/CoreSupport/core_cm3.h ****  * @brief    CMSIS Cortex-M3 Core Peripheral Access Layer Header File
   4:/home/oni/workspace/Naze32/lib/CMSIS/CM3/CoreSupport/core_cm3.h ****  * @version  V1.30
   5:/home/oni/workspace/Naze32/lib/CMSIS/CM3/CoreSupport/core_cm3.h ****  * @date     30. October 2009
   6:/home/oni/workspace/Naze32/lib/CMSIS/CM3/CoreSupport/core_cm3.h ****  *
   7:/home/oni/workspace/Naze32/lib/CMSIS/CM3/CoreSupport/core_cm3.h ****  * @note
   8:/home/oni/workspace/Naze32/lib/CMSIS/CM3/CoreSupport/core_cm3.h ****  * Copyright (C) 2009 ARM Limited. All rights reserved.
   9:/home/oni/workspace/Naze32/lib/CMSIS/CM3/CoreSupport/core_cm3.h ****  *
  10:/home/oni/workspace/Naze32/lib/CMSIS/CM3/CoreSupport/core_cm3.h ****  * @par
  11:/home/oni/workspace/Naze32/lib/CMSIS/CM3/CoreSupport/core_cm3.h ****  * ARM Limited (ARM) is supplying this software for use with Cortex-M 
  12:/home/oni/workspace/Naze32/lib/CMSIS/CM3/CoreSupport/core_cm3.h ****  * processor based microcontrollers.  This file can be freely distributed 
  13:/home/oni/workspace/Naze32/lib/CMSIS/CM3/CoreSupport/core_cm3.h ****  * within development tools that are supporting such ARM based processors. 
  14:/home/oni/workspace/Naze32/lib/CMSIS/CM3/CoreSupport/core_cm3.h ****  *
  15:/home/oni/workspace/Naze32/lib/CMSIS/CM3/CoreSupport/core_cm3.h ****  * @par
  16:/home/oni/workspace/Naze32/lib/CMSIS/CM3/CoreSupport/core_cm3.h ****  * THIS SOFTWARE IS PROVIDED "AS IS".  NO WARRANTIES, WHETHER EXPRESS, IMPLIED
  17:/home/oni/workspace/Naze32/lib/CMSIS/CM3/CoreSupport/core_cm3.h ****  * OR STATUTORY, INCLUDING, BUT NOT LIMITED TO, IMPLIED WARRANTIES OF
  18:/home/oni/workspace/Naze32/lib/CMSIS/CM3/CoreSupport/core_cm3.h ****  * MERCHANTABILITY AND FITNESS FOR A PARTICULAR PURPOSE APPLY TO THIS SOFTWARE.
  19:/home/oni/workspace/Naze32/lib/CMSIS/CM3/CoreSupport/core_cm3.h ****  * ARM SHALL NOT, IN ANY CIRCUMSTANCES, BE LIABLE FOR SPECIAL, INCIDENTAL, OR
  20:/home/oni/workspace/Naze32/lib/CMSIS/CM3/CoreSupport/core_cm3.h ****  * CONSEQUENTIAL DAMAGES, FOR ANY REASON WHATSOEVER.
  21:/home/oni/workspace/Naze32/lib/CMSIS/CM3/CoreSupport/core_cm3.h ****  *
  22:/home/oni/workspace/Naze32/lib/CMSIS/CM3/CoreSupport/core_cm3.h ****  ******************************************************************************/
  23:/home/oni/workspace/Naze32/lib/CMSIS/CM3/CoreSupport/core_cm3.h **** 
  24:/home/oni/workspace/Naze32/lib/CMSIS/CM3/CoreSupport/core_cm3.h **** #ifndef __CM3_CORE_H__
  25:/home/oni/workspace/Naze32/lib/CMSIS/CM3/CoreSupport/core_cm3.h **** #define __CM3_CORE_H__
  26:/home/oni/workspace/Naze32/lib/CMSIS/CM3/CoreSupport/core_cm3.h **** 
  27:/home/oni/workspace/Naze32/lib/CMSIS/CM3/CoreSupport/core_cm3.h **** /** @addtogroup CMSIS_CM3_core_LintCinfiguration CMSIS CM3 Core Lint Configuration
  28:/home/oni/workspace/Naze32/lib/CMSIS/CM3/CoreSupport/core_cm3.h ****  *
  29:/home/oni/workspace/Naze32/lib/CMSIS/CM3/CoreSupport/core_cm3.h ****  * List of Lint messages which will be suppressed and not shown:
  30:/home/oni/workspace/Naze32/lib/CMSIS/CM3/CoreSupport/core_cm3.h ****  *   - Error 10: \n
  31:/home/oni/workspace/Naze32/lib/CMSIS/CM3/CoreSupport/core_cm3.h ****  *     register uint32_t __regBasePri         __asm("basepri"); \n
  32:/home/oni/workspace/Naze32/lib/CMSIS/CM3/CoreSupport/core_cm3.h ****  *     Error 10: Expecting ';'
  33:/home/oni/workspace/Naze32/lib/CMSIS/CM3/CoreSupport/core_cm3.h ****  * .
  34:/home/oni/workspace/Naze32/lib/CMSIS/CM3/CoreSupport/core_cm3.h ****  *   - Error 530: \n
  35:/home/oni/workspace/Naze32/lib/CMSIS/CM3/CoreSupport/core_cm3.h ****  *     return(__regBasePri); \n
  36:/home/oni/workspace/Naze32/lib/CMSIS/CM3/CoreSupport/core_cm3.h ****  *     Warning 530: Symbol '__regBasePri' (line 264) not initialized
  37:/home/oni/workspace/Naze32/lib/CMSIS/CM3/CoreSupport/core_cm3.h ****  * . 
  38:/home/oni/workspace/Naze32/lib/CMSIS/CM3/CoreSupport/core_cm3.h ****  *   - Error 550: \n
  39:/home/oni/workspace/Naze32/lib/CMSIS/CM3/CoreSupport/core_cm3.h ****  *     __regBasePri = (basePri & 0x1ff); \n
  40:/home/oni/workspace/Naze32/lib/CMSIS/CM3/CoreSupport/core_cm3.h ****  *     Warning 550: Symbol '__regBasePri' (line 271) not accessed
  41:/home/oni/workspace/Naze32/lib/CMSIS/CM3/CoreSupport/core_cm3.h ****  * .
  42:/home/oni/workspace/Naze32/lib/CMSIS/CM3/CoreSupport/core_cm3.h ****  *   - Error 754: \n
  43:/home/oni/workspace/Naze32/lib/CMSIS/CM3/CoreSupport/core_cm3.h ****  *     uint32_t RESERVED0[24]; \n
  44:/home/oni/workspace/Naze32/lib/CMSIS/CM3/CoreSupport/core_cm3.h ****  *     Info 754: local structure member '<some, not used in the HAL>' (line 109, file ./cm3_core.h)
  45:/home/oni/workspace/Naze32/lib/CMSIS/CM3/CoreSupport/core_cm3.h ****  * .
  46:/home/oni/workspace/Naze32/lib/CMSIS/CM3/CoreSupport/core_cm3.h ****  *   - Error 750: \n
  47:/home/oni/workspace/Naze32/lib/CMSIS/CM3/CoreSupport/core_cm3.h ****  *     #define __CM3_CORE_H__ \n
  48:/home/oni/workspace/Naze32/lib/CMSIS/CM3/CoreSupport/core_cm3.h ****  *     Info 750: local macro '__CM3_CORE_H__' (line 43, file./cm3_core.h) not referenced
  49:/home/oni/workspace/Naze32/lib/CMSIS/CM3/CoreSupport/core_cm3.h ****  * .
  50:/home/oni/workspace/Naze32/lib/CMSIS/CM3/CoreSupport/core_cm3.h ****  *   - Error 528: \n
  51:/home/oni/workspace/Naze32/lib/CMSIS/CM3/CoreSupport/core_cm3.h ****  *     static __INLINE void NVIC_DisableIRQ(uint32_t IRQn) \n
  52:/home/oni/workspace/Naze32/lib/CMSIS/CM3/CoreSupport/core_cm3.h ****  *     Warning 528: Symbol 'NVIC_DisableIRQ(unsigned int)' (line 419, file ./cm3_core.h) not refere
  53:/home/oni/workspace/Naze32/lib/CMSIS/CM3/CoreSupport/core_cm3.h ****  * .
  54:/home/oni/workspace/Naze32/lib/CMSIS/CM3/CoreSupport/core_cm3.h ****  *   - Error 751: \n
  55:/home/oni/workspace/Naze32/lib/CMSIS/CM3/CoreSupport/core_cm3.h ****  *     } InterruptType_Type; \n
  56:/home/oni/workspace/Naze32/lib/CMSIS/CM3/CoreSupport/core_cm3.h ****  *     Info 751: local typedef 'InterruptType_Type' (line 170, file ./cm3_core.h) not referenced
  57:/home/oni/workspace/Naze32/lib/CMSIS/CM3/CoreSupport/core_cm3.h ****  * .
  58:/home/oni/workspace/Naze32/lib/CMSIS/CM3/CoreSupport/core_cm3.h ****  * Note:  To re-enable a Message, insert a space before 'lint' *
  59:/home/oni/workspace/Naze32/lib/CMSIS/CM3/CoreSupport/core_cm3.h ****  *
  60:/home/oni/workspace/Naze32/lib/CMSIS/CM3/CoreSupport/core_cm3.h ****  */
  61:/home/oni/workspace/Naze32/lib/CMSIS/CM3/CoreSupport/core_cm3.h **** 
  62:/home/oni/workspace/Naze32/lib/CMSIS/CM3/CoreSupport/core_cm3.h **** /*lint -save */
  63:/home/oni/workspace/Naze32/lib/CMSIS/CM3/CoreSupport/core_cm3.h **** /*lint -e10  */
  64:/home/oni/workspace/Naze32/lib/CMSIS/CM3/CoreSupport/core_cm3.h **** /*lint -e530 */
  65:/home/oni/workspace/Naze32/lib/CMSIS/CM3/CoreSupport/core_cm3.h **** /*lint -e550 */
  66:/home/oni/workspace/Naze32/lib/CMSIS/CM3/CoreSupport/core_cm3.h **** /*lint -e754 */
  67:/home/oni/workspace/Naze32/lib/CMSIS/CM3/CoreSupport/core_cm3.h **** /*lint -e750 */
  68:/home/oni/workspace/Naze32/lib/CMSIS/CM3/CoreSupport/core_cm3.h **** /*lint -e528 */
  69:/home/oni/workspace/Naze32/lib/CMSIS/CM3/CoreSupport/core_cm3.h **** /*lint -e751 */
  70:/home/oni/workspace/Naze32/lib/CMSIS/CM3/CoreSupport/core_cm3.h **** 
  71:/home/oni/workspace/Naze32/lib/CMSIS/CM3/CoreSupport/core_cm3.h **** 
  72:/home/oni/workspace/Naze32/lib/CMSIS/CM3/CoreSupport/core_cm3.h **** /** @addtogroup CMSIS_CM3_core_definitions CM3 Core Definitions
  73:/home/oni/workspace/Naze32/lib/CMSIS/CM3/CoreSupport/core_cm3.h ****   This file defines all structures and symbols for CMSIS core:
  74:/home/oni/workspace/Naze32/lib/CMSIS/CM3/CoreSupport/core_cm3.h ****     - CMSIS version number
  75:/home/oni/workspace/Naze32/lib/CMSIS/CM3/CoreSupport/core_cm3.h ****     - Cortex-M core registers and bitfields
  76:/home/oni/workspace/Naze32/lib/CMSIS/CM3/CoreSupport/core_cm3.h ****     - Cortex-M core peripheral base address
  77:/home/oni/workspace/Naze32/lib/CMSIS/CM3/CoreSupport/core_cm3.h ****   @{
  78:/home/oni/workspace/Naze32/lib/CMSIS/CM3/CoreSupport/core_cm3.h ****  */
  79:/home/oni/workspace/Naze32/lib/CMSIS/CM3/CoreSupport/core_cm3.h **** 
  80:/home/oni/workspace/Naze32/lib/CMSIS/CM3/CoreSupport/core_cm3.h **** #ifdef __cplusplus
  81:/home/oni/workspace/Naze32/lib/CMSIS/CM3/CoreSupport/core_cm3.h ****  extern "C" {
  82:/home/oni/workspace/Naze32/lib/CMSIS/CM3/CoreSupport/core_cm3.h **** #endif 
  83:/home/oni/workspace/Naze32/lib/CMSIS/CM3/CoreSupport/core_cm3.h **** 
  84:/home/oni/workspace/Naze32/lib/CMSIS/CM3/CoreSupport/core_cm3.h **** #define __CM3_CMSIS_VERSION_MAIN  (0x01)                                                       /*!<
  85:/home/oni/workspace/Naze32/lib/CMSIS/CM3/CoreSupport/core_cm3.h **** #define __CM3_CMSIS_VERSION_SUB   (0x30)                                                       /*!<
  86:/home/oni/workspace/Naze32/lib/CMSIS/CM3/CoreSupport/core_cm3.h **** #define __CM3_CMSIS_VERSION       ((__CM3_CMSIS_VERSION_MAIN << 16) | __CM3_CMSIS_VERSION_SUB) /*!<
  87:/home/oni/workspace/Naze32/lib/CMSIS/CM3/CoreSupport/core_cm3.h **** 
  88:/home/oni/workspace/Naze32/lib/CMSIS/CM3/CoreSupport/core_cm3.h **** #define __CORTEX_M                (0x03)                                                       /*!<
  89:/home/oni/workspace/Naze32/lib/CMSIS/CM3/CoreSupport/core_cm3.h **** 
  90:/home/oni/workspace/Naze32/lib/CMSIS/CM3/CoreSupport/core_cm3.h **** #include <stdint.h>                           /* Include standard types */
  91:/home/oni/workspace/Naze32/lib/CMSIS/CM3/CoreSupport/core_cm3.h **** 
  92:/home/oni/workspace/Naze32/lib/CMSIS/CM3/CoreSupport/core_cm3.h **** #if defined (__ICCARM__)
  93:/home/oni/workspace/Naze32/lib/CMSIS/CM3/CoreSupport/core_cm3.h ****   #include <intrinsics.h>                     /* IAR Intrinsics   */
  94:/home/oni/workspace/Naze32/lib/CMSIS/CM3/CoreSupport/core_cm3.h **** #endif
  95:/home/oni/workspace/Naze32/lib/CMSIS/CM3/CoreSupport/core_cm3.h **** 
  96:/home/oni/workspace/Naze32/lib/CMSIS/CM3/CoreSupport/core_cm3.h **** 
  97:/home/oni/workspace/Naze32/lib/CMSIS/CM3/CoreSupport/core_cm3.h **** #ifndef __NVIC_PRIO_BITS
  98:/home/oni/workspace/Naze32/lib/CMSIS/CM3/CoreSupport/core_cm3.h ****   #define __NVIC_PRIO_BITS    4               /*!< standard definition for NVIC Priority Bits */
  99:/home/oni/workspace/Naze32/lib/CMSIS/CM3/CoreSupport/core_cm3.h **** #endif
 100:/home/oni/workspace/Naze32/lib/CMSIS/CM3/CoreSupport/core_cm3.h **** 
 101:/home/oni/workspace/Naze32/lib/CMSIS/CM3/CoreSupport/core_cm3.h **** 
 102:/home/oni/workspace/Naze32/lib/CMSIS/CM3/CoreSupport/core_cm3.h **** 
 103:/home/oni/workspace/Naze32/lib/CMSIS/CM3/CoreSupport/core_cm3.h **** 
 104:/home/oni/workspace/Naze32/lib/CMSIS/CM3/CoreSupport/core_cm3.h **** /**
 105:/home/oni/workspace/Naze32/lib/CMSIS/CM3/CoreSupport/core_cm3.h ****  * IO definitions
 106:/home/oni/workspace/Naze32/lib/CMSIS/CM3/CoreSupport/core_cm3.h ****  *
 107:/home/oni/workspace/Naze32/lib/CMSIS/CM3/CoreSupport/core_cm3.h ****  * define access restrictions to peripheral registers
 108:/home/oni/workspace/Naze32/lib/CMSIS/CM3/CoreSupport/core_cm3.h ****  */
 109:/home/oni/workspace/Naze32/lib/CMSIS/CM3/CoreSupport/core_cm3.h **** 
 110:/home/oni/workspace/Naze32/lib/CMSIS/CM3/CoreSupport/core_cm3.h **** #ifdef __cplusplus
 111:/home/oni/workspace/Naze32/lib/CMSIS/CM3/CoreSupport/core_cm3.h ****   #define     __I     volatile                /*!< defines 'read only' permissions      */
 112:/home/oni/workspace/Naze32/lib/CMSIS/CM3/CoreSupport/core_cm3.h **** #else
 113:/home/oni/workspace/Naze32/lib/CMSIS/CM3/CoreSupport/core_cm3.h ****   #define     __I     volatile const          /*!< defines 'read only' permissions      */
 114:/home/oni/workspace/Naze32/lib/CMSIS/CM3/CoreSupport/core_cm3.h **** #endif
 115:/home/oni/workspace/Naze32/lib/CMSIS/CM3/CoreSupport/core_cm3.h **** #define     __O     volatile                  /*!< defines 'write only' permissions     */
 116:/home/oni/workspace/Naze32/lib/CMSIS/CM3/CoreSupport/core_cm3.h **** #define     __IO    volatile                  /*!< defines 'read / write' permissions   */
 117:/home/oni/workspace/Naze32/lib/CMSIS/CM3/CoreSupport/core_cm3.h **** 
 118:/home/oni/workspace/Naze32/lib/CMSIS/CM3/CoreSupport/core_cm3.h **** 
 119:/home/oni/workspace/Naze32/lib/CMSIS/CM3/CoreSupport/core_cm3.h **** 
 120:/home/oni/workspace/Naze32/lib/CMSIS/CM3/CoreSupport/core_cm3.h **** /*******************************************************************************
 121:/home/oni/workspace/Naze32/lib/CMSIS/CM3/CoreSupport/core_cm3.h ****  *                 Register Abstraction
 122:/home/oni/workspace/Naze32/lib/CMSIS/CM3/CoreSupport/core_cm3.h ****  ******************************************************************************/
 123:/home/oni/workspace/Naze32/lib/CMSIS/CM3/CoreSupport/core_cm3.h **** /** @addtogroup CMSIS_CM3_core_register CMSIS CM3 Core Register
 124:/home/oni/workspace/Naze32/lib/CMSIS/CM3/CoreSupport/core_cm3.h ****  @{
 125:/home/oni/workspace/Naze32/lib/CMSIS/CM3/CoreSupport/core_cm3.h **** */
 126:/home/oni/workspace/Naze32/lib/CMSIS/CM3/CoreSupport/core_cm3.h **** 
 127:/home/oni/workspace/Naze32/lib/CMSIS/CM3/CoreSupport/core_cm3.h **** 
 128:/home/oni/workspace/Naze32/lib/CMSIS/CM3/CoreSupport/core_cm3.h **** /** @addtogroup CMSIS_CM3_NVIC CMSIS CM3 NVIC
 129:/home/oni/workspace/Naze32/lib/CMSIS/CM3/CoreSupport/core_cm3.h ****   memory mapped structure for Nested Vectored Interrupt Controller (NVIC)
 130:/home/oni/workspace/Naze32/lib/CMSIS/CM3/CoreSupport/core_cm3.h ****   @{
 131:/home/oni/workspace/Naze32/lib/CMSIS/CM3/CoreSupport/core_cm3.h ****  */
 132:/home/oni/workspace/Naze32/lib/CMSIS/CM3/CoreSupport/core_cm3.h **** typedef struct
 133:/home/oni/workspace/Naze32/lib/CMSIS/CM3/CoreSupport/core_cm3.h **** {
 134:/home/oni/workspace/Naze32/lib/CMSIS/CM3/CoreSupport/core_cm3.h ****   __IO uint32_t ISER[8];                      /*!< Offset: 0x000  Interrupt Set Enable Register    
 135:/home/oni/workspace/Naze32/lib/CMSIS/CM3/CoreSupport/core_cm3.h ****        uint32_t RESERVED0[24];                                   
 136:/home/oni/workspace/Naze32/lib/CMSIS/CM3/CoreSupport/core_cm3.h ****   __IO uint32_t ICER[8];                      /*!< Offset: 0x080  Interrupt Clear Enable Register  
 137:/home/oni/workspace/Naze32/lib/CMSIS/CM3/CoreSupport/core_cm3.h ****        uint32_t RSERVED1[24];                                    
 138:/home/oni/workspace/Naze32/lib/CMSIS/CM3/CoreSupport/core_cm3.h ****   __IO uint32_t ISPR[8];                      /*!< Offset: 0x100  Interrupt Set Pending Register   
 139:/home/oni/workspace/Naze32/lib/CMSIS/CM3/CoreSupport/core_cm3.h ****        uint32_t RESERVED2[24];                                   
 140:/home/oni/workspace/Naze32/lib/CMSIS/CM3/CoreSupport/core_cm3.h ****   __IO uint32_t ICPR[8];                      /*!< Offset: 0x180  Interrupt Clear Pending Register 
 141:/home/oni/workspace/Naze32/lib/CMSIS/CM3/CoreSupport/core_cm3.h ****        uint32_t RESERVED3[24];                                   
 142:/home/oni/workspace/Naze32/lib/CMSIS/CM3/CoreSupport/core_cm3.h ****   __IO uint32_t IABR[8];                      /*!< Offset: 0x200  Interrupt Active bit Register    
 143:/home/oni/workspace/Naze32/lib/CMSIS/CM3/CoreSupport/core_cm3.h ****        uint32_t RESERVED4[56];                                   
 144:/home/oni/workspace/Naze32/lib/CMSIS/CM3/CoreSupport/core_cm3.h ****   __IO uint8_t  IP[240];                      /*!< Offset: 0x300  Interrupt Priority Register (8Bit
 145:/home/oni/workspace/Naze32/lib/CMSIS/CM3/CoreSupport/core_cm3.h ****        uint32_t RESERVED5[644];                                  
 146:/home/oni/workspace/Naze32/lib/CMSIS/CM3/CoreSupport/core_cm3.h ****   __O  uint32_t STIR;                         /*!< Offset: 0xE00  Software Trigger Interrupt Regist
 147:/home/oni/workspace/Naze32/lib/CMSIS/CM3/CoreSupport/core_cm3.h **** }  NVIC_Type;                                               
 148:/home/oni/workspace/Naze32/lib/CMSIS/CM3/CoreSupport/core_cm3.h **** /*@}*/ /* end of group CMSIS_CM3_NVIC */
 149:/home/oni/workspace/Naze32/lib/CMSIS/CM3/CoreSupport/core_cm3.h **** 
 150:/home/oni/workspace/Naze32/lib/CMSIS/CM3/CoreSupport/core_cm3.h **** 
 151:/home/oni/workspace/Naze32/lib/CMSIS/CM3/CoreSupport/core_cm3.h **** /** @addtogroup CMSIS_CM3_SCB CMSIS CM3 SCB
 152:/home/oni/workspace/Naze32/lib/CMSIS/CM3/CoreSupport/core_cm3.h ****   memory mapped structure for System Control Block (SCB)
 153:/home/oni/workspace/Naze32/lib/CMSIS/CM3/CoreSupport/core_cm3.h ****   @{
 154:/home/oni/workspace/Naze32/lib/CMSIS/CM3/CoreSupport/core_cm3.h ****  */
 155:/home/oni/workspace/Naze32/lib/CMSIS/CM3/CoreSupport/core_cm3.h **** typedef struct
 156:/home/oni/workspace/Naze32/lib/CMSIS/CM3/CoreSupport/core_cm3.h **** {
 157:/home/oni/workspace/Naze32/lib/CMSIS/CM3/CoreSupport/core_cm3.h ****   __I  uint32_t CPUID;                        /*!< Offset: 0x00  CPU ID Base Register              
 158:/home/oni/workspace/Naze32/lib/CMSIS/CM3/CoreSupport/core_cm3.h ****   __IO uint32_t ICSR;                         /*!< Offset: 0x04  Interrupt Control State Register  
 159:/home/oni/workspace/Naze32/lib/CMSIS/CM3/CoreSupport/core_cm3.h ****   __IO uint32_t VTOR;                         /*!< Offset: 0x08  Vector Table Offset Register      
 160:/home/oni/workspace/Naze32/lib/CMSIS/CM3/CoreSupport/core_cm3.h ****   __IO uint32_t AIRCR;                        /*!< Offset: 0x0C  Application Interrupt / Reset Cont
 161:/home/oni/workspace/Naze32/lib/CMSIS/CM3/CoreSupport/core_cm3.h ****   __IO uint32_t SCR;                          /*!< Offset: 0x10  System Control Register           
 162:/home/oni/workspace/Naze32/lib/CMSIS/CM3/CoreSupport/core_cm3.h ****   __IO uint32_t CCR;                          /*!< Offset: 0x14  Configuration Control Register    
 163:/home/oni/workspace/Naze32/lib/CMSIS/CM3/CoreSupport/core_cm3.h ****   __IO uint8_t  SHP[12];                      /*!< Offset: 0x18  System Handlers Priority Registers
 164:/home/oni/workspace/Naze32/lib/CMSIS/CM3/CoreSupport/core_cm3.h ****   __IO uint32_t SHCSR;                        /*!< Offset: 0x24  System Handler Control and State R
 165:/home/oni/workspace/Naze32/lib/CMSIS/CM3/CoreSupport/core_cm3.h ****   __IO uint32_t CFSR;                         /*!< Offset: 0x28  Configurable Fault Status Register
 166:/home/oni/workspace/Naze32/lib/CMSIS/CM3/CoreSupport/core_cm3.h ****   __IO uint32_t HFSR;                         /*!< Offset: 0x2C  Hard Fault Status Register        
 167:/home/oni/workspace/Naze32/lib/CMSIS/CM3/CoreSupport/core_cm3.h ****   __IO uint32_t DFSR;                         /*!< Offset: 0x30  Debug Fault Status Register       
 168:/home/oni/workspace/Naze32/lib/CMSIS/CM3/CoreSupport/core_cm3.h ****   __IO uint32_t MMFAR;                        /*!< Offset: 0x34  Mem Manage Address Register       
 169:/home/oni/workspace/Naze32/lib/CMSIS/CM3/CoreSupport/core_cm3.h ****   __IO uint32_t BFAR;                         /*!< Offset: 0x38  Bus Fault Address Register        
 170:/home/oni/workspace/Naze32/lib/CMSIS/CM3/CoreSupport/core_cm3.h ****   __IO uint32_t AFSR;                         /*!< Offset: 0x3C  Auxiliary Fault Status Register   
 171:/home/oni/workspace/Naze32/lib/CMSIS/CM3/CoreSupport/core_cm3.h ****   __I  uint32_t PFR[2];                       /*!< Offset: 0x40  Processor Feature Register        
 172:/home/oni/workspace/Naze32/lib/CMSIS/CM3/CoreSupport/core_cm3.h ****   __I  uint32_t DFR;                          /*!< Offset: 0x48  Debug Feature Register            
 173:/home/oni/workspace/Naze32/lib/CMSIS/CM3/CoreSupport/core_cm3.h ****   __I  uint32_t ADR;                          /*!< Offset: 0x4C  Auxiliary Feature Register        
 174:/home/oni/workspace/Naze32/lib/CMSIS/CM3/CoreSupport/core_cm3.h ****   __I  uint32_t MMFR[4];                      /*!< Offset: 0x50  Memory Model Feature Register     
 175:/home/oni/workspace/Naze32/lib/CMSIS/CM3/CoreSupport/core_cm3.h ****   __I  uint32_t ISAR[5];                      /*!< Offset: 0x60  ISA Feature Register              
 176:/home/oni/workspace/Naze32/lib/CMSIS/CM3/CoreSupport/core_cm3.h **** } SCB_Type;                                                
 177:/home/oni/workspace/Naze32/lib/CMSIS/CM3/CoreSupport/core_cm3.h **** 
 178:/home/oni/workspace/Naze32/lib/CMSIS/CM3/CoreSupport/core_cm3.h **** /* SCB CPUID Register Definitions */
 179:/home/oni/workspace/Naze32/lib/CMSIS/CM3/CoreSupport/core_cm3.h **** #define SCB_CPUID_IMPLEMENTER_Pos          24                                             /*!< SCB 
 180:/home/oni/workspace/Naze32/lib/CMSIS/CM3/CoreSupport/core_cm3.h **** #define SCB_CPUID_IMPLEMENTER_Msk          (0xFFul << SCB_CPUID_IMPLEMENTER_Pos)          /*!< SCB 
 181:/home/oni/workspace/Naze32/lib/CMSIS/CM3/CoreSupport/core_cm3.h **** 
 182:/home/oni/workspace/Naze32/lib/CMSIS/CM3/CoreSupport/core_cm3.h **** #define SCB_CPUID_VARIANT_Pos              20                                             /*!< SCB 
 183:/home/oni/workspace/Naze32/lib/CMSIS/CM3/CoreSupport/core_cm3.h **** #define SCB_CPUID_VARIANT_Msk              (0xFul << SCB_CPUID_VARIANT_Pos)               /*!< SCB 
 184:/home/oni/workspace/Naze32/lib/CMSIS/CM3/CoreSupport/core_cm3.h **** 
 185:/home/oni/workspace/Naze32/lib/CMSIS/CM3/CoreSupport/core_cm3.h **** #define SCB_CPUID_PARTNO_Pos                4                                             /*!< SCB 
 186:/home/oni/workspace/Naze32/lib/CMSIS/CM3/CoreSupport/core_cm3.h **** #define SCB_CPUID_PARTNO_Msk               (0xFFFul << SCB_CPUID_PARTNO_Pos)              /*!< SCB 
 187:/home/oni/workspace/Naze32/lib/CMSIS/CM3/CoreSupport/core_cm3.h **** 
 188:/home/oni/workspace/Naze32/lib/CMSIS/CM3/CoreSupport/core_cm3.h **** #define SCB_CPUID_REVISION_Pos              0                                             /*!< SCB 
 189:/home/oni/workspace/Naze32/lib/CMSIS/CM3/CoreSupport/core_cm3.h **** #define SCB_CPUID_REVISION_Msk             (0xFul << SCB_CPUID_REVISION_Pos)              /*!< SCB 
 190:/home/oni/workspace/Naze32/lib/CMSIS/CM3/CoreSupport/core_cm3.h **** 
 191:/home/oni/workspace/Naze32/lib/CMSIS/CM3/CoreSupport/core_cm3.h **** /* SCB Interrupt Control State Register Definitions */
 192:/home/oni/workspace/Naze32/lib/CMSIS/CM3/CoreSupport/core_cm3.h **** #define SCB_ICSR_NMIPENDSET_Pos            31                                             /*!< SCB 
 193:/home/oni/workspace/Naze32/lib/CMSIS/CM3/CoreSupport/core_cm3.h **** #define SCB_ICSR_NMIPENDSET_Msk            (1ul << SCB_ICSR_NMIPENDSET_Pos)               /*!< SCB 
 194:/home/oni/workspace/Naze32/lib/CMSIS/CM3/CoreSupport/core_cm3.h **** 
 195:/home/oni/workspace/Naze32/lib/CMSIS/CM3/CoreSupport/core_cm3.h **** #define SCB_ICSR_PENDSVSET_Pos             28                                             /*!< SCB 
 196:/home/oni/workspace/Naze32/lib/CMSIS/CM3/CoreSupport/core_cm3.h **** #define SCB_ICSR_PENDSVSET_Msk             (1ul << SCB_ICSR_PENDSVSET_Pos)                /*!< SCB 
 197:/home/oni/workspace/Naze32/lib/CMSIS/CM3/CoreSupport/core_cm3.h **** 
 198:/home/oni/workspace/Naze32/lib/CMSIS/CM3/CoreSupport/core_cm3.h **** #define SCB_ICSR_PENDSVCLR_Pos             27                                             /*!< SCB 
 199:/home/oni/workspace/Naze32/lib/CMSIS/CM3/CoreSupport/core_cm3.h **** #define SCB_ICSR_PENDSVCLR_Msk             (1ul << SCB_ICSR_PENDSVCLR_Pos)                /*!< SCB 
 200:/home/oni/workspace/Naze32/lib/CMSIS/CM3/CoreSupport/core_cm3.h **** 
 201:/home/oni/workspace/Naze32/lib/CMSIS/CM3/CoreSupport/core_cm3.h **** #define SCB_ICSR_PENDSTSET_Pos             26                                             /*!< SCB 
 202:/home/oni/workspace/Naze32/lib/CMSIS/CM3/CoreSupport/core_cm3.h **** #define SCB_ICSR_PENDSTSET_Msk             (1ul << SCB_ICSR_PENDSTSET_Pos)                /*!< SCB 
 203:/home/oni/workspace/Naze32/lib/CMSIS/CM3/CoreSupport/core_cm3.h **** 
 204:/home/oni/workspace/Naze32/lib/CMSIS/CM3/CoreSupport/core_cm3.h **** #define SCB_ICSR_PENDSTCLR_Pos             25                                             /*!< SCB 
 205:/home/oni/workspace/Naze32/lib/CMSIS/CM3/CoreSupport/core_cm3.h **** #define SCB_ICSR_PENDSTCLR_Msk             (1ul << SCB_ICSR_PENDSTCLR_Pos)                /*!< SCB 
 206:/home/oni/workspace/Naze32/lib/CMSIS/CM3/CoreSupport/core_cm3.h **** 
 207:/home/oni/workspace/Naze32/lib/CMSIS/CM3/CoreSupport/core_cm3.h **** #define SCB_ICSR_ISRPREEMPT_Pos            23                                             /*!< SCB 
 208:/home/oni/workspace/Naze32/lib/CMSIS/CM3/CoreSupport/core_cm3.h **** #define SCB_ICSR_ISRPREEMPT_Msk            (1ul << SCB_ICSR_ISRPREEMPT_Pos)               /*!< SCB 
 209:/home/oni/workspace/Naze32/lib/CMSIS/CM3/CoreSupport/core_cm3.h **** 
 210:/home/oni/workspace/Naze32/lib/CMSIS/CM3/CoreSupport/core_cm3.h **** #define SCB_ICSR_ISRPENDING_Pos            22                                             /*!< SCB 
 211:/home/oni/workspace/Naze32/lib/CMSIS/CM3/CoreSupport/core_cm3.h **** #define SCB_ICSR_ISRPENDING_Msk            (1ul << SCB_ICSR_ISRPENDING_Pos)               /*!< SCB 
 212:/home/oni/workspace/Naze32/lib/CMSIS/CM3/CoreSupport/core_cm3.h **** 
 213:/home/oni/workspace/Naze32/lib/CMSIS/CM3/CoreSupport/core_cm3.h **** #define SCB_ICSR_VECTPENDING_Pos           12                                             /*!< SCB 
 214:/home/oni/workspace/Naze32/lib/CMSIS/CM3/CoreSupport/core_cm3.h **** #define SCB_ICSR_VECTPENDING_Msk           (0x1FFul << SCB_ICSR_VECTPENDING_Pos)          /*!< SCB 
 215:/home/oni/workspace/Naze32/lib/CMSIS/CM3/CoreSupport/core_cm3.h **** 
 216:/home/oni/workspace/Naze32/lib/CMSIS/CM3/CoreSupport/core_cm3.h **** #define SCB_ICSR_RETTOBASE_Pos             11                                             /*!< SCB 
 217:/home/oni/workspace/Naze32/lib/CMSIS/CM3/CoreSupport/core_cm3.h **** #define SCB_ICSR_RETTOBASE_Msk             (1ul << SCB_ICSR_RETTOBASE_Pos)                /*!< SCB 
 218:/home/oni/workspace/Naze32/lib/CMSIS/CM3/CoreSupport/core_cm3.h **** 
 219:/home/oni/workspace/Naze32/lib/CMSIS/CM3/CoreSupport/core_cm3.h **** #define SCB_ICSR_VECTACTIVE_Pos             0                                             /*!< SCB 
 220:/home/oni/workspace/Naze32/lib/CMSIS/CM3/CoreSupport/core_cm3.h **** #define SCB_ICSR_VECTACTIVE_Msk            (0x1FFul << SCB_ICSR_VECTACTIVE_Pos)           /*!< SCB 
 221:/home/oni/workspace/Naze32/lib/CMSIS/CM3/CoreSupport/core_cm3.h **** 
 222:/home/oni/workspace/Naze32/lib/CMSIS/CM3/CoreSupport/core_cm3.h **** /* SCB Interrupt Control State Register Definitions */
 223:/home/oni/workspace/Naze32/lib/CMSIS/CM3/CoreSupport/core_cm3.h **** #define SCB_VTOR_TBLBASE_Pos               29                                             /*!< SCB 
 224:/home/oni/workspace/Naze32/lib/CMSIS/CM3/CoreSupport/core_cm3.h **** #define SCB_VTOR_TBLBASE_Msk               (0x1FFul << SCB_VTOR_TBLBASE_Pos)              /*!< SCB 
 225:/home/oni/workspace/Naze32/lib/CMSIS/CM3/CoreSupport/core_cm3.h **** 
 226:/home/oni/workspace/Naze32/lib/CMSIS/CM3/CoreSupport/core_cm3.h **** #define SCB_VTOR_TBLOFF_Pos                 7                                             /*!< SCB 
 227:/home/oni/workspace/Naze32/lib/CMSIS/CM3/CoreSupport/core_cm3.h **** #define SCB_VTOR_TBLOFF_Msk                (0x3FFFFFul << SCB_VTOR_TBLOFF_Pos)            /*!< SCB 
 228:/home/oni/workspace/Naze32/lib/CMSIS/CM3/CoreSupport/core_cm3.h **** 
 229:/home/oni/workspace/Naze32/lib/CMSIS/CM3/CoreSupport/core_cm3.h **** /* SCB Application Interrupt and Reset Control Register Definitions */
 230:/home/oni/workspace/Naze32/lib/CMSIS/CM3/CoreSupport/core_cm3.h **** #define SCB_AIRCR_VECTKEY_Pos              16                                             /*!< SCB 
 231:/home/oni/workspace/Naze32/lib/CMSIS/CM3/CoreSupport/core_cm3.h **** #define SCB_AIRCR_VECTKEY_Msk              (0xFFFFul << SCB_AIRCR_VECTKEY_Pos)            /*!< SCB 
 232:/home/oni/workspace/Naze32/lib/CMSIS/CM3/CoreSupport/core_cm3.h **** 
 233:/home/oni/workspace/Naze32/lib/CMSIS/CM3/CoreSupport/core_cm3.h **** #define SCB_AIRCR_VECTKEYSTAT_Pos          16                                             /*!< SCB 
 234:/home/oni/workspace/Naze32/lib/CMSIS/CM3/CoreSupport/core_cm3.h **** #define SCB_AIRCR_VECTKEYSTAT_Msk          (0xFFFFul << SCB_AIRCR_VECTKEYSTAT_Pos)        /*!< SCB 
 235:/home/oni/workspace/Naze32/lib/CMSIS/CM3/CoreSupport/core_cm3.h **** 
 236:/home/oni/workspace/Naze32/lib/CMSIS/CM3/CoreSupport/core_cm3.h **** #define SCB_AIRCR_ENDIANESS_Pos            15                                             /*!< SCB 
 237:/home/oni/workspace/Naze32/lib/CMSIS/CM3/CoreSupport/core_cm3.h **** #define SCB_AIRCR_ENDIANESS_Msk            (1ul << SCB_AIRCR_ENDIANESS_Pos)               /*!< SCB 
 238:/home/oni/workspace/Naze32/lib/CMSIS/CM3/CoreSupport/core_cm3.h **** 
 239:/home/oni/workspace/Naze32/lib/CMSIS/CM3/CoreSupport/core_cm3.h **** #define SCB_AIRCR_PRIGROUP_Pos              8                                             /*!< SCB 
 240:/home/oni/workspace/Naze32/lib/CMSIS/CM3/CoreSupport/core_cm3.h **** #define SCB_AIRCR_PRIGROUP_Msk             (7ul << SCB_AIRCR_PRIGROUP_Pos)                /*!< SCB 
 241:/home/oni/workspace/Naze32/lib/CMSIS/CM3/CoreSupport/core_cm3.h **** 
 242:/home/oni/workspace/Naze32/lib/CMSIS/CM3/CoreSupport/core_cm3.h **** #define SCB_AIRCR_SYSRESETREQ_Pos           2                                             /*!< SCB 
 243:/home/oni/workspace/Naze32/lib/CMSIS/CM3/CoreSupport/core_cm3.h **** #define SCB_AIRCR_SYSRESETREQ_Msk          (1ul << SCB_AIRCR_SYSRESETREQ_Pos)             /*!< SCB 
 244:/home/oni/workspace/Naze32/lib/CMSIS/CM3/CoreSupport/core_cm3.h **** 
 245:/home/oni/workspace/Naze32/lib/CMSIS/CM3/CoreSupport/core_cm3.h **** #define SCB_AIRCR_VECTCLRACTIVE_Pos         1                                             /*!< SCB 
 246:/home/oni/workspace/Naze32/lib/CMSIS/CM3/CoreSupport/core_cm3.h **** #define SCB_AIRCR_VECTCLRACTIVE_Msk        (1ul << SCB_AIRCR_VECTCLRACTIVE_Pos)           /*!< SCB 
 247:/home/oni/workspace/Naze32/lib/CMSIS/CM3/CoreSupport/core_cm3.h **** 
 248:/home/oni/workspace/Naze32/lib/CMSIS/CM3/CoreSupport/core_cm3.h **** #define SCB_AIRCR_VECTRESET_Pos             0                                             /*!< SCB 
 249:/home/oni/workspace/Naze32/lib/CMSIS/CM3/CoreSupport/core_cm3.h **** #define SCB_AIRCR_VECTRESET_Msk            (1ul << SCB_AIRCR_VECTRESET_Pos)               /*!< SCB 
 250:/home/oni/workspace/Naze32/lib/CMSIS/CM3/CoreSupport/core_cm3.h **** 
 251:/home/oni/workspace/Naze32/lib/CMSIS/CM3/CoreSupport/core_cm3.h **** /* SCB System Control Register Definitions */
 252:/home/oni/workspace/Naze32/lib/CMSIS/CM3/CoreSupport/core_cm3.h **** #define SCB_SCR_SEVONPEND_Pos               4                                             /*!< SCB 
 253:/home/oni/workspace/Naze32/lib/CMSIS/CM3/CoreSupport/core_cm3.h **** #define SCB_SCR_SEVONPEND_Msk              (1ul << SCB_SCR_SEVONPEND_Pos)                 /*!< SCB 
 254:/home/oni/workspace/Naze32/lib/CMSIS/CM3/CoreSupport/core_cm3.h **** 
 255:/home/oni/workspace/Naze32/lib/CMSIS/CM3/CoreSupport/core_cm3.h **** #define SCB_SCR_SLEEPDEEP_Pos               2                                             /*!< SCB 
 256:/home/oni/workspace/Naze32/lib/CMSIS/CM3/CoreSupport/core_cm3.h **** #define SCB_SCR_SLEEPDEEP_Msk              (1ul << SCB_SCR_SLEEPDEEP_Pos)                 /*!< SCB 
 257:/home/oni/workspace/Naze32/lib/CMSIS/CM3/CoreSupport/core_cm3.h **** 
 258:/home/oni/workspace/Naze32/lib/CMSIS/CM3/CoreSupport/core_cm3.h **** #define SCB_SCR_SLEEPONEXIT_Pos             1                                             /*!< SCB 
 259:/home/oni/workspace/Naze32/lib/CMSIS/CM3/CoreSupport/core_cm3.h **** #define SCB_SCR_SLEEPONEXIT_Msk            (1ul << SCB_SCR_SLEEPONEXIT_Pos)               /*!< SCB 
 260:/home/oni/workspace/Naze32/lib/CMSIS/CM3/CoreSupport/core_cm3.h **** 
 261:/home/oni/workspace/Naze32/lib/CMSIS/CM3/CoreSupport/core_cm3.h **** /* SCB Configuration Control Register Definitions */
 262:/home/oni/workspace/Naze32/lib/CMSIS/CM3/CoreSupport/core_cm3.h **** #define SCB_CCR_STKALIGN_Pos                9                                             /*!< SCB 
 263:/home/oni/workspace/Naze32/lib/CMSIS/CM3/CoreSupport/core_cm3.h **** #define SCB_CCR_STKALIGN_Msk               (1ul << SCB_CCR_STKALIGN_Pos)                  /*!< SCB 
 264:/home/oni/workspace/Naze32/lib/CMSIS/CM3/CoreSupport/core_cm3.h **** 
 265:/home/oni/workspace/Naze32/lib/CMSIS/CM3/CoreSupport/core_cm3.h **** #define SCB_CCR_BFHFNMIGN_Pos               8                                             /*!< SCB 
 266:/home/oni/workspace/Naze32/lib/CMSIS/CM3/CoreSupport/core_cm3.h **** #define SCB_CCR_BFHFNMIGN_Msk              (1ul << SCB_CCR_BFHFNMIGN_Pos)                 /*!< SCB 
 267:/home/oni/workspace/Naze32/lib/CMSIS/CM3/CoreSupport/core_cm3.h **** 
 268:/home/oni/workspace/Naze32/lib/CMSIS/CM3/CoreSupport/core_cm3.h **** #define SCB_CCR_DIV_0_TRP_Pos               4                                             /*!< SCB 
 269:/home/oni/workspace/Naze32/lib/CMSIS/CM3/CoreSupport/core_cm3.h **** #define SCB_CCR_DIV_0_TRP_Msk              (1ul << SCB_CCR_DIV_0_TRP_Pos)                 /*!< SCB 
 270:/home/oni/workspace/Naze32/lib/CMSIS/CM3/CoreSupport/core_cm3.h **** 
 271:/home/oni/workspace/Naze32/lib/CMSIS/CM3/CoreSupport/core_cm3.h **** #define SCB_CCR_UNALIGN_TRP_Pos             3                                             /*!< SCB 
 272:/home/oni/workspace/Naze32/lib/CMSIS/CM3/CoreSupport/core_cm3.h **** #define SCB_CCR_UNALIGN_TRP_Msk            (1ul << SCB_CCR_UNALIGN_TRP_Pos)               /*!< SCB 
 273:/home/oni/workspace/Naze32/lib/CMSIS/CM3/CoreSupport/core_cm3.h **** 
 274:/home/oni/workspace/Naze32/lib/CMSIS/CM3/CoreSupport/core_cm3.h **** #define SCB_CCR_USERSETMPEND_Pos            1                                             /*!< SCB 
 275:/home/oni/workspace/Naze32/lib/CMSIS/CM3/CoreSupport/core_cm3.h **** #define SCB_CCR_USERSETMPEND_Msk           (1ul << SCB_CCR_USERSETMPEND_Pos)              /*!< SCB 
 276:/home/oni/workspace/Naze32/lib/CMSIS/CM3/CoreSupport/core_cm3.h **** 
 277:/home/oni/workspace/Naze32/lib/CMSIS/CM3/CoreSupport/core_cm3.h **** #define SCB_CCR_NONBASETHRDENA_Pos          0                                             /*!< SCB 
 278:/home/oni/workspace/Naze32/lib/CMSIS/CM3/CoreSupport/core_cm3.h **** #define SCB_CCR_NONBASETHRDENA_Msk         (1ul << SCB_CCR_NONBASETHRDENA_Pos)            /*!< SCB 
 279:/home/oni/workspace/Naze32/lib/CMSIS/CM3/CoreSupport/core_cm3.h **** 
 280:/home/oni/workspace/Naze32/lib/CMSIS/CM3/CoreSupport/core_cm3.h **** /* SCB System Handler Control and State Register Definitions */
 281:/home/oni/workspace/Naze32/lib/CMSIS/CM3/CoreSupport/core_cm3.h **** #define SCB_SHCSR_USGFAULTENA_Pos          18                                             /*!< SCB 
 282:/home/oni/workspace/Naze32/lib/CMSIS/CM3/CoreSupport/core_cm3.h **** #define SCB_SHCSR_USGFAULTENA_Msk          (1ul << SCB_SHCSR_USGFAULTENA_Pos)             /*!< SCB 
 283:/home/oni/workspace/Naze32/lib/CMSIS/CM3/CoreSupport/core_cm3.h **** 
 284:/home/oni/workspace/Naze32/lib/CMSIS/CM3/CoreSupport/core_cm3.h **** #define SCB_SHCSR_BUSFAULTENA_Pos          17                                             /*!< SCB 
 285:/home/oni/workspace/Naze32/lib/CMSIS/CM3/CoreSupport/core_cm3.h **** #define SCB_SHCSR_BUSFAULTENA_Msk          (1ul << SCB_SHCSR_BUSFAULTENA_Pos)             /*!< SCB 
 286:/home/oni/workspace/Naze32/lib/CMSIS/CM3/CoreSupport/core_cm3.h **** 
 287:/home/oni/workspace/Naze32/lib/CMSIS/CM3/CoreSupport/core_cm3.h **** #define SCB_SHCSR_MEMFAULTENA_Pos          16                                             /*!< SCB 
 288:/home/oni/workspace/Naze32/lib/CMSIS/CM3/CoreSupport/core_cm3.h **** #define SCB_SHCSR_MEMFAULTENA_Msk          (1ul << SCB_SHCSR_MEMFAULTENA_Pos)             /*!< SCB 
 289:/home/oni/workspace/Naze32/lib/CMSIS/CM3/CoreSupport/core_cm3.h **** 
 290:/home/oni/workspace/Naze32/lib/CMSIS/CM3/CoreSupport/core_cm3.h **** #define SCB_SHCSR_SVCALLPENDED_Pos         15                                             /*!< SCB 
 291:/home/oni/workspace/Naze32/lib/CMSIS/CM3/CoreSupport/core_cm3.h **** #define SCB_SHCSR_SVCALLPENDED_Msk         (1ul << SCB_SHCSR_SVCALLPENDED_Pos)            /*!< SCB 
 292:/home/oni/workspace/Naze32/lib/CMSIS/CM3/CoreSupport/core_cm3.h **** 
 293:/home/oni/workspace/Naze32/lib/CMSIS/CM3/CoreSupport/core_cm3.h **** #define SCB_SHCSR_BUSFAULTPENDED_Pos       14                                             /*!< SCB 
 294:/home/oni/workspace/Naze32/lib/CMSIS/CM3/CoreSupport/core_cm3.h **** #define SCB_SHCSR_BUSFAULTPENDED_Msk       (1ul << SCB_SHCSR_BUSFAULTPENDED_Pos)          /*!< SCB 
 295:/home/oni/workspace/Naze32/lib/CMSIS/CM3/CoreSupport/core_cm3.h **** 
 296:/home/oni/workspace/Naze32/lib/CMSIS/CM3/CoreSupport/core_cm3.h **** #define SCB_SHCSR_MEMFAULTPENDED_Pos       13                                             /*!< SCB 
 297:/home/oni/workspace/Naze32/lib/CMSIS/CM3/CoreSupport/core_cm3.h **** #define SCB_SHCSR_MEMFAULTPENDED_Msk       (1ul << SCB_SHCSR_MEMFAULTPENDED_Pos)          /*!< SCB 
 298:/home/oni/workspace/Naze32/lib/CMSIS/CM3/CoreSupport/core_cm3.h **** 
 299:/home/oni/workspace/Naze32/lib/CMSIS/CM3/CoreSupport/core_cm3.h **** #define SCB_SHCSR_USGFAULTPENDED_Pos       12                                             /*!< SCB 
 300:/home/oni/workspace/Naze32/lib/CMSIS/CM3/CoreSupport/core_cm3.h **** #define SCB_SHCSR_USGFAULTPENDED_Msk       (1ul << SCB_SHCSR_USGFAULTPENDED_Pos)          /*!< SCB 
 301:/home/oni/workspace/Naze32/lib/CMSIS/CM3/CoreSupport/core_cm3.h **** 
 302:/home/oni/workspace/Naze32/lib/CMSIS/CM3/CoreSupport/core_cm3.h **** #define SCB_SHCSR_SYSTICKACT_Pos           11                                             /*!< SCB 
 303:/home/oni/workspace/Naze32/lib/CMSIS/CM3/CoreSupport/core_cm3.h **** #define SCB_SHCSR_SYSTICKACT_Msk           (1ul << SCB_SHCSR_SYSTICKACT_Pos)              /*!< SCB 
 304:/home/oni/workspace/Naze32/lib/CMSIS/CM3/CoreSupport/core_cm3.h **** 
 305:/home/oni/workspace/Naze32/lib/CMSIS/CM3/CoreSupport/core_cm3.h **** #define SCB_SHCSR_PENDSVACT_Pos            10                                             /*!< SCB 
 306:/home/oni/workspace/Naze32/lib/CMSIS/CM3/CoreSupport/core_cm3.h **** #define SCB_SHCSR_PENDSVACT_Msk            (1ul << SCB_SHCSR_PENDSVACT_Pos)               /*!< SCB 
 307:/home/oni/workspace/Naze32/lib/CMSIS/CM3/CoreSupport/core_cm3.h **** 
 308:/home/oni/workspace/Naze32/lib/CMSIS/CM3/CoreSupport/core_cm3.h **** #define SCB_SHCSR_MONITORACT_Pos            8                                             /*!< SCB 
 309:/home/oni/workspace/Naze32/lib/CMSIS/CM3/CoreSupport/core_cm3.h **** #define SCB_SHCSR_MONITORACT_Msk           (1ul << SCB_SHCSR_MONITORACT_Pos)              /*!< SCB 
 310:/home/oni/workspace/Naze32/lib/CMSIS/CM3/CoreSupport/core_cm3.h **** 
 311:/home/oni/workspace/Naze32/lib/CMSIS/CM3/CoreSupport/core_cm3.h **** #define SCB_SHCSR_SVCALLACT_Pos             7                                             /*!< SCB 
 312:/home/oni/workspace/Naze32/lib/CMSIS/CM3/CoreSupport/core_cm3.h **** #define SCB_SHCSR_SVCALLACT_Msk            (1ul << SCB_SHCSR_SVCALLACT_Pos)               /*!< SCB 
 313:/home/oni/workspace/Naze32/lib/CMSIS/CM3/CoreSupport/core_cm3.h ****                                      
 314:/home/oni/workspace/Naze32/lib/CMSIS/CM3/CoreSupport/core_cm3.h **** #define SCB_SHCSR_USGFAULTACT_Pos           3                                             /*!< SCB 
 315:/home/oni/workspace/Naze32/lib/CMSIS/CM3/CoreSupport/core_cm3.h **** #define SCB_SHCSR_USGFAULTACT_Msk          (1ul << SCB_SHCSR_USGFAULTACT_Pos)             /*!< SCB 
 316:/home/oni/workspace/Naze32/lib/CMSIS/CM3/CoreSupport/core_cm3.h **** 
 317:/home/oni/workspace/Naze32/lib/CMSIS/CM3/CoreSupport/core_cm3.h **** #define SCB_SHCSR_BUSFAULTACT_Pos           1                                             /*!< SCB 
 318:/home/oni/workspace/Naze32/lib/CMSIS/CM3/CoreSupport/core_cm3.h **** #define SCB_SHCSR_BUSFAULTACT_Msk          (1ul << SCB_SHCSR_BUSFAULTACT_Pos)             /*!< SCB 
 319:/home/oni/workspace/Naze32/lib/CMSIS/CM3/CoreSupport/core_cm3.h **** 
 320:/home/oni/workspace/Naze32/lib/CMSIS/CM3/CoreSupport/core_cm3.h **** #define SCB_SHCSR_MEMFAULTACT_Pos           0                                             /*!< SCB 
 321:/home/oni/workspace/Naze32/lib/CMSIS/CM3/CoreSupport/core_cm3.h **** #define SCB_SHCSR_MEMFAULTACT_Msk          (1ul << SCB_SHCSR_MEMFAULTACT_Pos)             /*!< SCB 
 322:/home/oni/workspace/Naze32/lib/CMSIS/CM3/CoreSupport/core_cm3.h **** 
 323:/home/oni/workspace/Naze32/lib/CMSIS/CM3/CoreSupport/core_cm3.h **** /* SCB Configurable Fault Status Registers Definitions */
 324:/home/oni/workspace/Naze32/lib/CMSIS/CM3/CoreSupport/core_cm3.h **** #define SCB_CFSR_USGFAULTSR_Pos            16                                             /*!< SCB 
 325:/home/oni/workspace/Naze32/lib/CMSIS/CM3/CoreSupport/core_cm3.h **** #define SCB_CFSR_USGFAULTSR_Msk            (0xFFFFul << SCB_CFSR_USGFAULTSR_Pos)          /*!< SCB 
 326:/home/oni/workspace/Naze32/lib/CMSIS/CM3/CoreSupport/core_cm3.h **** 
 327:/home/oni/workspace/Naze32/lib/CMSIS/CM3/CoreSupport/core_cm3.h **** #define SCB_CFSR_BUSFAULTSR_Pos             8                                             /*!< SCB 
 328:/home/oni/workspace/Naze32/lib/CMSIS/CM3/CoreSupport/core_cm3.h **** #define SCB_CFSR_BUSFAULTSR_Msk            (0xFFul << SCB_CFSR_BUSFAULTSR_Pos)            /*!< SCB 
 329:/home/oni/workspace/Naze32/lib/CMSIS/CM3/CoreSupport/core_cm3.h **** 
 330:/home/oni/workspace/Naze32/lib/CMSIS/CM3/CoreSupport/core_cm3.h **** #define SCB_CFSR_MEMFAULTSR_Pos             0                                             /*!< SCB 
 331:/home/oni/workspace/Naze32/lib/CMSIS/CM3/CoreSupport/core_cm3.h **** #define SCB_CFSR_MEMFAULTSR_Msk            (0xFFul << SCB_CFSR_MEMFAULTSR_Pos)            /*!< SCB 
 332:/home/oni/workspace/Naze32/lib/CMSIS/CM3/CoreSupport/core_cm3.h **** 
 333:/home/oni/workspace/Naze32/lib/CMSIS/CM3/CoreSupport/core_cm3.h **** /* SCB Hard Fault Status Registers Definitions */
 334:/home/oni/workspace/Naze32/lib/CMSIS/CM3/CoreSupport/core_cm3.h **** #define SCB_HFSR_DEBUGEVT_Pos              31                                             /*!< SCB 
 335:/home/oni/workspace/Naze32/lib/CMSIS/CM3/CoreSupport/core_cm3.h **** #define SCB_HFSR_DEBUGEVT_Msk              (1ul << SCB_HFSR_DEBUGEVT_Pos)                 /*!< SCB 
 336:/home/oni/workspace/Naze32/lib/CMSIS/CM3/CoreSupport/core_cm3.h **** 
 337:/home/oni/workspace/Naze32/lib/CMSIS/CM3/CoreSupport/core_cm3.h **** #define SCB_HFSR_FORCED_Pos                30                                             /*!< SCB 
 338:/home/oni/workspace/Naze32/lib/CMSIS/CM3/CoreSupport/core_cm3.h **** #define SCB_HFSR_FORCED_Msk                (1ul << SCB_HFSR_FORCED_Pos)                   /*!< SCB 
 339:/home/oni/workspace/Naze32/lib/CMSIS/CM3/CoreSupport/core_cm3.h **** 
 340:/home/oni/workspace/Naze32/lib/CMSIS/CM3/CoreSupport/core_cm3.h **** #define SCB_HFSR_VECTTBL_Pos                1                                             /*!< SCB 
 341:/home/oni/workspace/Naze32/lib/CMSIS/CM3/CoreSupport/core_cm3.h **** #define SCB_HFSR_VECTTBL_Msk               (1ul << SCB_HFSR_VECTTBL_Pos)                  /*!< SCB 
 342:/home/oni/workspace/Naze32/lib/CMSIS/CM3/CoreSupport/core_cm3.h **** 
 343:/home/oni/workspace/Naze32/lib/CMSIS/CM3/CoreSupport/core_cm3.h **** /* SCB Debug Fault Status Register Definitions */
 344:/home/oni/workspace/Naze32/lib/CMSIS/CM3/CoreSupport/core_cm3.h **** #define SCB_DFSR_EXTERNAL_Pos               4                                             /*!< SCB 
 345:/home/oni/workspace/Naze32/lib/CMSIS/CM3/CoreSupport/core_cm3.h **** #define SCB_DFSR_EXTERNAL_Msk              (1ul << SCB_DFSR_EXTERNAL_Pos)                 /*!< SCB 
 346:/home/oni/workspace/Naze32/lib/CMSIS/CM3/CoreSupport/core_cm3.h **** 
 347:/home/oni/workspace/Naze32/lib/CMSIS/CM3/CoreSupport/core_cm3.h **** #define SCB_DFSR_VCATCH_Pos                 3                                             /*!< SCB 
 348:/home/oni/workspace/Naze32/lib/CMSIS/CM3/CoreSupport/core_cm3.h **** #define SCB_DFSR_VCATCH_Msk                (1ul << SCB_DFSR_VCATCH_Pos)                   /*!< SCB 
 349:/home/oni/workspace/Naze32/lib/CMSIS/CM3/CoreSupport/core_cm3.h **** 
 350:/home/oni/workspace/Naze32/lib/CMSIS/CM3/CoreSupport/core_cm3.h **** #define SCB_DFSR_DWTTRAP_Pos                2                                             /*!< SCB 
 351:/home/oni/workspace/Naze32/lib/CMSIS/CM3/CoreSupport/core_cm3.h **** #define SCB_DFSR_DWTTRAP_Msk               (1ul << SCB_DFSR_DWTTRAP_Pos)                  /*!< SCB 
 352:/home/oni/workspace/Naze32/lib/CMSIS/CM3/CoreSupport/core_cm3.h **** 
 353:/home/oni/workspace/Naze32/lib/CMSIS/CM3/CoreSupport/core_cm3.h **** #define SCB_DFSR_BKPT_Pos                   1                                             /*!< SCB 
 354:/home/oni/workspace/Naze32/lib/CMSIS/CM3/CoreSupport/core_cm3.h **** #define SCB_DFSR_BKPT_Msk                  (1ul << SCB_DFSR_BKPT_Pos)                     /*!< SCB 
 355:/home/oni/workspace/Naze32/lib/CMSIS/CM3/CoreSupport/core_cm3.h **** 
 356:/home/oni/workspace/Naze32/lib/CMSIS/CM3/CoreSupport/core_cm3.h **** #define SCB_DFSR_HALTED_Pos                 0                                             /*!< SCB 
 357:/home/oni/workspace/Naze32/lib/CMSIS/CM3/CoreSupport/core_cm3.h **** #define SCB_DFSR_HALTED_Msk                (1ul << SCB_DFSR_HALTED_Pos)                   /*!< SCB 
 358:/home/oni/workspace/Naze32/lib/CMSIS/CM3/CoreSupport/core_cm3.h **** /*@}*/ /* end of group CMSIS_CM3_SCB */
 359:/home/oni/workspace/Naze32/lib/CMSIS/CM3/CoreSupport/core_cm3.h **** 
 360:/home/oni/workspace/Naze32/lib/CMSIS/CM3/CoreSupport/core_cm3.h **** 
 361:/home/oni/workspace/Naze32/lib/CMSIS/CM3/CoreSupport/core_cm3.h **** /** @addtogroup CMSIS_CM3_SysTick CMSIS CM3 SysTick
 362:/home/oni/workspace/Naze32/lib/CMSIS/CM3/CoreSupport/core_cm3.h ****   memory mapped structure for SysTick
 363:/home/oni/workspace/Naze32/lib/CMSIS/CM3/CoreSupport/core_cm3.h ****   @{
 364:/home/oni/workspace/Naze32/lib/CMSIS/CM3/CoreSupport/core_cm3.h ****  */
 365:/home/oni/workspace/Naze32/lib/CMSIS/CM3/CoreSupport/core_cm3.h **** typedef struct
 366:/home/oni/workspace/Naze32/lib/CMSIS/CM3/CoreSupport/core_cm3.h **** {
 367:/home/oni/workspace/Naze32/lib/CMSIS/CM3/CoreSupport/core_cm3.h ****   __IO uint32_t CTRL;                         /*!< Offset: 0x00  SysTick Control and Status Registe
 368:/home/oni/workspace/Naze32/lib/CMSIS/CM3/CoreSupport/core_cm3.h ****   __IO uint32_t LOAD;                         /*!< Offset: 0x04  SysTick Reload Value Register     
 369:/home/oni/workspace/Naze32/lib/CMSIS/CM3/CoreSupport/core_cm3.h ****   __IO uint32_t VAL;                          /*!< Offset: 0x08  SysTick Current Value Register    
 370:/home/oni/workspace/Naze32/lib/CMSIS/CM3/CoreSupport/core_cm3.h ****   __I  uint32_t CALIB;                        /*!< Offset: 0x0C  SysTick Calibration Register      
 371:/home/oni/workspace/Naze32/lib/CMSIS/CM3/CoreSupport/core_cm3.h **** } SysTick_Type;
 372:/home/oni/workspace/Naze32/lib/CMSIS/CM3/CoreSupport/core_cm3.h **** 
 373:/home/oni/workspace/Naze32/lib/CMSIS/CM3/CoreSupport/core_cm3.h **** /* SysTick Control / Status Register Definitions */
 374:/home/oni/workspace/Naze32/lib/CMSIS/CM3/CoreSupport/core_cm3.h **** #define SysTick_CTRL_COUNTFLAG_Pos         16                                             /*!< SysT
 375:/home/oni/workspace/Naze32/lib/CMSIS/CM3/CoreSupport/core_cm3.h **** #define SysTick_CTRL_COUNTFLAG_Msk         (1ul << SysTick_CTRL_COUNTFLAG_Pos)            /*!< SysT
 376:/home/oni/workspace/Naze32/lib/CMSIS/CM3/CoreSupport/core_cm3.h **** 
 377:/home/oni/workspace/Naze32/lib/CMSIS/CM3/CoreSupport/core_cm3.h **** #define SysTick_CTRL_CLKSOURCE_Pos          2                                             /*!< SysT
 378:/home/oni/workspace/Naze32/lib/CMSIS/CM3/CoreSupport/core_cm3.h **** #define SysTick_CTRL_CLKSOURCE_Msk         (1ul << SysTick_CTRL_CLKSOURCE_Pos)            /*!< SysT
 379:/home/oni/workspace/Naze32/lib/CMSIS/CM3/CoreSupport/core_cm3.h **** 
 380:/home/oni/workspace/Naze32/lib/CMSIS/CM3/CoreSupport/core_cm3.h **** #define SysTick_CTRL_TICKINT_Pos            1                                             /*!< SysT
 381:/home/oni/workspace/Naze32/lib/CMSIS/CM3/CoreSupport/core_cm3.h **** #define SysTick_CTRL_TICKINT_Msk           (1ul << SysTick_CTRL_TICKINT_Pos)              /*!< SysT
 382:/home/oni/workspace/Naze32/lib/CMSIS/CM3/CoreSupport/core_cm3.h **** 
 383:/home/oni/workspace/Naze32/lib/CMSIS/CM3/CoreSupport/core_cm3.h **** #define SysTick_CTRL_ENABLE_Pos             0                                             /*!< SysT
 384:/home/oni/workspace/Naze32/lib/CMSIS/CM3/CoreSupport/core_cm3.h **** #define SysTick_CTRL_ENABLE_Msk            (1ul << SysTick_CTRL_ENABLE_Pos)               /*!< SysT
 385:/home/oni/workspace/Naze32/lib/CMSIS/CM3/CoreSupport/core_cm3.h **** 
 386:/home/oni/workspace/Naze32/lib/CMSIS/CM3/CoreSupport/core_cm3.h **** /* SysTick Reload Register Definitions */
 387:/home/oni/workspace/Naze32/lib/CMSIS/CM3/CoreSupport/core_cm3.h **** #define SysTick_LOAD_RELOAD_Pos             0                                             /*!< SysT
 388:/home/oni/workspace/Naze32/lib/CMSIS/CM3/CoreSupport/core_cm3.h **** #define SysTick_LOAD_RELOAD_Msk            (0xFFFFFFul << SysTick_LOAD_RELOAD_Pos)        /*!< SysT
 389:/home/oni/workspace/Naze32/lib/CMSIS/CM3/CoreSupport/core_cm3.h **** 
 390:/home/oni/workspace/Naze32/lib/CMSIS/CM3/CoreSupport/core_cm3.h **** /* SysTick Current Register Definitions */
 391:/home/oni/workspace/Naze32/lib/CMSIS/CM3/CoreSupport/core_cm3.h **** #define SysTick_VAL_CURRENT_Pos             0                                             /*!< SysT
 392:/home/oni/workspace/Naze32/lib/CMSIS/CM3/CoreSupport/core_cm3.h **** #define SysTick_VAL_CURRENT_Msk            (0xFFFFFFul << SysTick_VAL_CURRENT_Pos)        /*!< SysT
 393:/home/oni/workspace/Naze32/lib/CMSIS/CM3/CoreSupport/core_cm3.h **** 
 394:/home/oni/workspace/Naze32/lib/CMSIS/CM3/CoreSupport/core_cm3.h **** /* SysTick Calibration Register Definitions */
 395:/home/oni/workspace/Naze32/lib/CMSIS/CM3/CoreSupport/core_cm3.h **** #define SysTick_CALIB_NOREF_Pos            31                                             /*!< SysT
 396:/home/oni/workspace/Naze32/lib/CMSIS/CM3/CoreSupport/core_cm3.h **** #define SysTick_CALIB_NOREF_Msk            (1ul << SysTick_CALIB_NOREF_Pos)               /*!< SysT
 397:/home/oni/workspace/Naze32/lib/CMSIS/CM3/CoreSupport/core_cm3.h **** 
 398:/home/oni/workspace/Naze32/lib/CMSIS/CM3/CoreSupport/core_cm3.h **** #define SysTick_CALIB_SKEW_Pos             30                                             /*!< SysT
 399:/home/oni/workspace/Naze32/lib/CMSIS/CM3/CoreSupport/core_cm3.h **** #define SysTick_CALIB_SKEW_Msk             (1ul << SysTick_CALIB_SKEW_Pos)                /*!< SysT
 400:/home/oni/workspace/Naze32/lib/CMSIS/CM3/CoreSupport/core_cm3.h **** 
 401:/home/oni/workspace/Naze32/lib/CMSIS/CM3/CoreSupport/core_cm3.h **** #define SysTick_CALIB_TENMS_Pos             0                                             /*!< SysT
 402:/home/oni/workspace/Naze32/lib/CMSIS/CM3/CoreSupport/core_cm3.h **** #define SysTick_CALIB_TENMS_Msk            (0xFFFFFFul << SysTick_VAL_CURRENT_Pos)        /*!< SysT
 403:/home/oni/workspace/Naze32/lib/CMSIS/CM3/CoreSupport/core_cm3.h **** /*@}*/ /* end of group CMSIS_CM3_SysTick */
 404:/home/oni/workspace/Naze32/lib/CMSIS/CM3/CoreSupport/core_cm3.h **** 
 405:/home/oni/workspace/Naze32/lib/CMSIS/CM3/CoreSupport/core_cm3.h **** 
 406:/home/oni/workspace/Naze32/lib/CMSIS/CM3/CoreSupport/core_cm3.h **** /** @addtogroup CMSIS_CM3_ITM CMSIS CM3 ITM
 407:/home/oni/workspace/Naze32/lib/CMSIS/CM3/CoreSupport/core_cm3.h ****   memory mapped structure for Instrumentation Trace Macrocell (ITM)
 408:/home/oni/workspace/Naze32/lib/CMSIS/CM3/CoreSupport/core_cm3.h ****   @{
 409:/home/oni/workspace/Naze32/lib/CMSIS/CM3/CoreSupport/core_cm3.h ****  */
 410:/home/oni/workspace/Naze32/lib/CMSIS/CM3/CoreSupport/core_cm3.h **** typedef struct
 411:/home/oni/workspace/Naze32/lib/CMSIS/CM3/CoreSupport/core_cm3.h **** {
 412:/home/oni/workspace/Naze32/lib/CMSIS/CM3/CoreSupport/core_cm3.h ****   __O  union  
 413:/home/oni/workspace/Naze32/lib/CMSIS/CM3/CoreSupport/core_cm3.h ****   {
 414:/home/oni/workspace/Naze32/lib/CMSIS/CM3/CoreSupport/core_cm3.h ****     __O  uint8_t    u8;                       /*!< Offset:       ITM Stimulus Port 8-bit           
 415:/home/oni/workspace/Naze32/lib/CMSIS/CM3/CoreSupport/core_cm3.h ****     __O  uint16_t   u16;                      /*!< Offset:       ITM Stimulus Port 16-bit          
 416:/home/oni/workspace/Naze32/lib/CMSIS/CM3/CoreSupport/core_cm3.h ****     __O  uint32_t   u32;                      /*!< Offset:       ITM Stimulus Port 32-bit          
 417:/home/oni/workspace/Naze32/lib/CMSIS/CM3/CoreSupport/core_cm3.h ****   }  PORT [32];                               /*!< Offset: 0x00  ITM Stimulus Port Registers       
 418:/home/oni/workspace/Naze32/lib/CMSIS/CM3/CoreSupport/core_cm3.h ****        uint32_t RESERVED0[864];                                 
 419:/home/oni/workspace/Naze32/lib/CMSIS/CM3/CoreSupport/core_cm3.h ****   __IO uint32_t TER;                          /*!< Offset:       ITM Trace Enable Register         
 420:/home/oni/workspace/Naze32/lib/CMSIS/CM3/CoreSupport/core_cm3.h ****        uint32_t RESERVED1[15];                                  
 421:/home/oni/workspace/Naze32/lib/CMSIS/CM3/CoreSupport/core_cm3.h ****   __IO uint32_t TPR;                          /*!< Offset:       ITM Trace Privilege Register      
 422:/home/oni/workspace/Naze32/lib/CMSIS/CM3/CoreSupport/core_cm3.h ****        uint32_t RESERVED2[15];                                  
 423:/home/oni/workspace/Naze32/lib/CMSIS/CM3/CoreSupport/core_cm3.h ****   __IO uint32_t TCR;                          /*!< Offset:       ITM Trace Control Register        
 424:/home/oni/workspace/Naze32/lib/CMSIS/CM3/CoreSupport/core_cm3.h ****        uint32_t RESERVED3[29];                                  
 425:/home/oni/workspace/Naze32/lib/CMSIS/CM3/CoreSupport/core_cm3.h ****   __IO uint32_t IWR;                          /*!< Offset:       ITM Integration Write Register    
 426:/home/oni/workspace/Naze32/lib/CMSIS/CM3/CoreSupport/core_cm3.h ****   __IO uint32_t IRR;                          /*!< Offset:       ITM Integration Read Register     
 427:/home/oni/workspace/Naze32/lib/CMSIS/CM3/CoreSupport/core_cm3.h ****   __IO uint32_t IMCR;                         /*!< Offset:       ITM Integration Mode Control Regis
 428:/home/oni/workspace/Naze32/lib/CMSIS/CM3/CoreSupport/core_cm3.h ****        uint32_t RESERVED4[43];                                  
 429:/home/oni/workspace/Naze32/lib/CMSIS/CM3/CoreSupport/core_cm3.h ****   __IO uint32_t LAR;                          /*!< Offset:       ITM Lock Access Register          
 430:/home/oni/workspace/Naze32/lib/CMSIS/CM3/CoreSupport/core_cm3.h ****   __IO uint32_t LSR;                          /*!< Offset:       ITM Lock Status Register          
 431:/home/oni/workspace/Naze32/lib/CMSIS/CM3/CoreSupport/core_cm3.h ****        uint32_t RESERVED5[6];                                   
 432:/home/oni/workspace/Naze32/lib/CMSIS/CM3/CoreSupport/core_cm3.h ****   __I  uint32_t PID4;                         /*!< Offset:       ITM Peripheral Identification Regi
 433:/home/oni/workspace/Naze32/lib/CMSIS/CM3/CoreSupport/core_cm3.h ****   __I  uint32_t PID5;                         /*!< Offset:       ITM Peripheral Identification Regi
 434:/home/oni/workspace/Naze32/lib/CMSIS/CM3/CoreSupport/core_cm3.h ****   __I  uint32_t PID6;                         /*!< Offset:       ITM Peripheral Identification Regi
 435:/home/oni/workspace/Naze32/lib/CMSIS/CM3/CoreSupport/core_cm3.h ****   __I  uint32_t PID7;                         /*!< Offset:       ITM Peripheral Identification Regi
 436:/home/oni/workspace/Naze32/lib/CMSIS/CM3/CoreSupport/core_cm3.h ****   __I  uint32_t PID0;                         /*!< Offset:       ITM Peripheral Identification Regi
 437:/home/oni/workspace/Naze32/lib/CMSIS/CM3/CoreSupport/core_cm3.h ****   __I  uint32_t PID1;                         /*!< Offset:       ITM Peripheral Identification Regi
 438:/home/oni/workspace/Naze32/lib/CMSIS/CM3/CoreSupport/core_cm3.h ****   __I  uint32_t PID2;                         /*!< Offset:       ITM Peripheral Identification Regi
 439:/home/oni/workspace/Naze32/lib/CMSIS/CM3/CoreSupport/core_cm3.h ****   __I  uint32_t PID3;                         /*!< Offset:       ITM Peripheral Identification Regi
 440:/home/oni/workspace/Naze32/lib/CMSIS/CM3/CoreSupport/core_cm3.h ****   __I  uint32_t CID0;                         /*!< Offset:       ITM Component  Identification Regi
 441:/home/oni/workspace/Naze32/lib/CMSIS/CM3/CoreSupport/core_cm3.h ****   __I  uint32_t CID1;                         /*!< Offset:       ITM Component  Identification Regi
 442:/home/oni/workspace/Naze32/lib/CMSIS/CM3/CoreSupport/core_cm3.h ****   __I  uint32_t CID2;                         /*!< Offset:       ITM Component  Identification Regi
 443:/home/oni/workspace/Naze32/lib/CMSIS/CM3/CoreSupport/core_cm3.h ****   __I  uint32_t CID3;                         /*!< Offset:       ITM Component  Identification Regi
 444:/home/oni/workspace/Naze32/lib/CMSIS/CM3/CoreSupport/core_cm3.h **** } ITM_Type;                                                
 445:/home/oni/workspace/Naze32/lib/CMSIS/CM3/CoreSupport/core_cm3.h **** 
 446:/home/oni/workspace/Naze32/lib/CMSIS/CM3/CoreSupport/core_cm3.h **** /* ITM Trace Privilege Register Definitions */
 447:/home/oni/workspace/Naze32/lib/CMSIS/CM3/CoreSupport/core_cm3.h **** #define ITM_TPR_PRIVMASK_Pos                0                                             /*!< ITM 
 448:/home/oni/workspace/Naze32/lib/CMSIS/CM3/CoreSupport/core_cm3.h **** #define ITM_TPR_PRIVMASK_Msk               (0xFul << ITM_TPR_PRIVMASK_Pos)                /*!< ITM 
 449:/home/oni/workspace/Naze32/lib/CMSIS/CM3/CoreSupport/core_cm3.h **** 
 450:/home/oni/workspace/Naze32/lib/CMSIS/CM3/CoreSupport/core_cm3.h **** /* ITM Trace Control Register Definitions */
 451:/home/oni/workspace/Naze32/lib/CMSIS/CM3/CoreSupport/core_cm3.h **** #define ITM_TCR_BUSY_Pos                   23                                             /*!< ITM 
 452:/home/oni/workspace/Naze32/lib/CMSIS/CM3/CoreSupport/core_cm3.h **** #define ITM_TCR_BUSY_Msk                   (1ul << ITM_TCR_BUSY_Pos)                      /*!< ITM 
 453:/home/oni/workspace/Naze32/lib/CMSIS/CM3/CoreSupport/core_cm3.h **** 
 454:/home/oni/workspace/Naze32/lib/CMSIS/CM3/CoreSupport/core_cm3.h **** #define ITM_TCR_ATBID_Pos                  16                                             /*!< ITM 
 455:/home/oni/workspace/Naze32/lib/CMSIS/CM3/CoreSupport/core_cm3.h **** #define ITM_TCR_ATBID_Msk                  (0x7Ful << ITM_TCR_ATBID_Pos)                  /*!< ITM 
 456:/home/oni/workspace/Naze32/lib/CMSIS/CM3/CoreSupport/core_cm3.h **** 
 457:/home/oni/workspace/Naze32/lib/CMSIS/CM3/CoreSupport/core_cm3.h **** #define ITM_TCR_TSPrescale_Pos              8                                             /*!< ITM 
 458:/home/oni/workspace/Naze32/lib/CMSIS/CM3/CoreSupport/core_cm3.h **** #define ITM_TCR_TSPrescale_Msk             (3ul << ITM_TCR_TSPrescale_Pos)                /*!< ITM 
 459:/home/oni/workspace/Naze32/lib/CMSIS/CM3/CoreSupport/core_cm3.h **** 
 460:/home/oni/workspace/Naze32/lib/CMSIS/CM3/CoreSupport/core_cm3.h **** #define ITM_TCR_SWOENA_Pos                  4                                             /*!< ITM 
 461:/home/oni/workspace/Naze32/lib/CMSIS/CM3/CoreSupport/core_cm3.h **** #define ITM_TCR_SWOENA_Msk                 (1ul << ITM_TCR_SWOENA_Pos)                    /*!< ITM 
 462:/home/oni/workspace/Naze32/lib/CMSIS/CM3/CoreSupport/core_cm3.h **** 
 463:/home/oni/workspace/Naze32/lib/CMSIS/CM3/CoreSupport/core_cm3.h **** #define ITM_TCR_DWTENA_Pos                  3                                             /*!< ITM 
 464:/home/oni/workspace/Naze32/lib/CMSIS/CM3/CoreSupport/core_cm3.h **** #define ITM_TCR_DWTENA_Msk                 (1ul << ITM_TCR_DWTENA_Pos)                    /*!< ITM 
 465:/home/oni/workspace/Naze32/lib/CMSIS/CM3/CoreSupport/core_cm3.h **** 
 466:/home/oni/workspace/Naze32/lib/CMSIS/CM3/CoreSupport/core_cm3.h **** #define ITM_TCR_SYNCENA_Pos                 2                                             /*!< ITM 
 467:/home/oni/workspace/Naze32/lib/CMSIS/CM3/CoreSupport/core_cm3.h **** #define ITM_TCR_SYNCENA_Msk                (1ul << ITM_TCR_SYNCENA_Pos)                   /*!< ITM 
 468:/home/oni/workspace/Naze32/lib/CMSIS/CM3/CoreSupport/core_cm3.h **** 
 469:/home/oni/workspace/Naze32/lib/CMSIS/CM3/CoreSupport/core_cm3.h **** #define ITM_TCR_TSENA_Pos                   1                                             /*!< ITM 
 470:/home/oni/workspace/Naze32/lib/CMSIS/CM3/CoreSupport/core_cm3.h **** #define ITM_TCR_TSENA_Msk                  (1ul << ITM_TCR_TSENA_Pos)                     /*!< ITM 
 471:/home/oni/workspace/Naze32/lib/CMSIS/CM3/CoreSupport/core_cm3.h **** 
 472:/home/oni/workspace/Naze32/lib/CMSIS/CM3/CoreSupport/core_cm3.h **** #define ITM_TCR_ITMENA_Pos                  0                                             /*!< ITM 
 473:/home/oni/workspace/Naze32/lib/CMSIS/CM3/CoreSupport/core_cm3.h **** #define ITM_TCR_ITMENA_Msk                 (1ul << ITM_TCR_ITMENA_Pos)                    /*!< ITM 
 474:/home/oni/workspace/Naze32/lib/CMSIS/CM3/CoreSupport/core_cm3.h **** 
 475:/home/oni/workspace/Naze32/lib/CMSIS/CM3/CoreSupport/core_cm3.h **** /* ITM Integration Write Register Definitions */
 476:/home/oni/workspace/Naze32/lib/CMSIS/CM3/CoreSupport/core_cm3.h **** #define ITM_IWR_ATVALIDM_Pos                0                                             /*!< ITM 
 477:/home/oni/workspace/Naze32/lib/CMSIS/CM3/CoreSupport/core_cm3.h **** #define ITM_IWR_ATVALIDM_Msk               (1ul << ITM_IWR_ATVALIDM_Pos)                  /*!< ITM 
 478:/home/oni/workspace/Naze32/lib/CMSIS/CM3/CoreSupport/core_cm3.h **** 
 479:/home/oni/workspace/Naze32/lib/CMSIS/CM3/CoreSupport/core_cm3.h **** /* ITM Integration Read Register Definitions */
 480:/home/oni/workspace/Naze32/lib/CMSIS/CM3/CoreSupport/core_cm3.h **** #define ITM_IRR_ATREADYM_Pos                0                                             /*!< ITM 
 481:/home/oni/workspace/Naze32/lib/CMSIS/CM3/CoreSupport/core_cm3.h **** #define ITM_IRR_ATREADYM_Msk               (1ul << ITM_IRR_ATREADYM_Pos)                  /*!< ITM 
 482:/home/oni/workspace/Naze32/lib/CMSIS/CM3/CoreSupport/core_cm3.h **** 
 483:/home/oni/workspace/Naze32/lib/CMSIS/CM3/CoreSupport/core_cm3.h **** /* ITM Integration Mode Control Register Definitions */
 484:/home/oni/workspace/Naze32/lib/CMSIS/CM3/CoreSupport/core_cm3.h **** #define ITM_IMCR_INTEGRATION_Pos            0                                             /*!< ITM 
 485:/home/oni/workspace/Naze32/lib/CMSIS/CM3/CoreSupport/core_cm3.h **** #define ITM_IMCR_INTEGRATION_Msk           (1ul << ITM_IMCR_INTEGRATION_Pos)              /*!< ITM 
 486:/home/oni/workspace/Naze32/lib/CMSIS/CM3/CoreSupport/core_cm3.h **** 
 487:/home/oni/workspace/Naze32/lib/CMSIS/CM3/CoreSupport/core_cm3.h **** /* ITM Lock Status Register Definitions */
 488:/home/oni/workspace/Naze32/lib/CMSIS/CM3/CoreSupport/core_cm3.h **** #define ITM_LSR_ByteAcc_Pos                 2                                             /*!< ITM 
 489:/home/oni/workspace/Naze32/lib/CMSIS/CM3/CoreSupport/core_cm3.h **** #define ITM_LSR_ByteAcc_Msk                (1ul << ITM_LSR_ByteAcc_Pos)                   /*!< ITM 
 490:/home/oni/workspace/Naze32/lib/CMSIS/CM3/CoreSupport/core_cm3.h **** 
 491:/home/oni/workspace/Naze32/lib/CMSIS/CM3/CoreSupport/core_cm3.h **** #define ITM_LSR_Access_Pos                  1                                             /*!< ITM 
 492:/home/oni/workspace/Naze32/lib/CMSIS/CM3/CoreSupport/core_cm3.h **** #define ITM_LSR_Access_Msk                 (1ul << ITM_LSR_Access_Pos)                    /*!< ITM 
 493:/home/oni/workspace/Naze32/lib/CMSIS/CM3/CoreSupport/core_cm3.h **** 
 494:/home/oni/workspace/Naze32/lib/CMSIS/CM3/CoreSupport/core_cm3.h **** #define ITM_LSR_Present_Pos                 0                                             /*!< ITM 
 495:/home/oni/workspace/Naze32/lib/CMSIS/CM3/CoreSupport/core_cm3.h **** #define ITM_LSR_Present_Msk                (1ul << ITM_LSR_Present_Pos)                   /*!< ITM 
 496:/home/oni/workspace/Naze32/lib/CMSIS/CM3/CoreSupport/core_cm3.h **** /*@}*/ /* end of group CMSIS_CM3_ITM */
 497:/home/oni/workspace/Naze32/lib/CMSIS/CM3/CoreSupport/core_cm3.h **** 
 498:/home/oni/workspace/Naze32/lib/CMSIS/CM3/CoreSupport/core_cm3.h **** 
 499:/home/oni/workspace/Naze32/lib/CMSIS/CM3/CoreSupport/core_cm3.h **** /** @addtogroup CMSIS_CM3_InterruptType CMSIS CM3 Interrupt Type
 500:/home/oni/workspace/Naze32/lib/CMSIS/CM3/CoreSupport/core_cm3.h ****   memory mapped structure for Interrupt Type
 501:/home/oni/workspace/Naze32/lib/CMSIS/CM3/CoreSupport/core_cm3.h ****   @{
 502:/home/oni/workspace/Naze32/lib/CMSIS/CM3/CoreSupport/core_cm3.h ****  */
 503:/home/oni/workspace/Naze32/lib/CMSIS/CM3/CoreSupport/core_cm3.h **** typedef struct
 504:/home/oni/workspace/Naze32/lib/CMSIS/CM3/CoreSupport/core_cm3.h **** {
 505:/home/oni/workspace/Naze32/lib/CMSIS/CM3/CoreSupport/core_cm3.h ****        uint32_t RESERVED0;
 506:/home/oni/workspace/Naze32/lib/CMSIS/CM3/CoreSupport/core_cm3.h ****   __I  uint32_t ICTR;                         /*!< Offset: 0x04  Interrupt Control Type Register */
 507:/home/oni/workspace/Naze32/lib/CMSIS/CM3/CoreSupport/core_cm3.h **** #if ((defined __CM3_REV) && (__CM3_REV >= 0x200))
 508:/home/oni/workspace/Naze32/lib/CMSIS/CM3/CoreSupport/core_cm3.h ****   __IO uint32_t ACTLR;                        /*!< Offset: 0x08  Auxiliary Control Register      */
 509:/home/oni/workspace/Naze32/lib/CMSIS/CM3/CoreSupport/core_cm3.h **** #else
 510:/home/oni/workspace/Naze32/lib/CMSIS/CM3/CoreSupport/core_cm3.h ****        uint32_t RESERVED1;
 511:/home/oni/workspace/Naze32/lib/CMSIS/CM3/CoreSupport/core_cm3.h **** #endif
 512:/home/oni/workspace/Naze32/lib/CMSIS/CM3/CoreSupport/core_cm3.h **** } InterruptType_Type;
 513:/home/oni/workspace/Naze32/lib/CMSIS/CM3/CoreSupport/core_cm3.h **** 
 514:/home/oni/workspace/Naze32/lib/CMSIS/CM3/CoreSupport/core_cm3.h **** /* Interrupt Controller Type Register Definitions */
 515:/home/oni/workspace/Naze32/lib/CMSIS/CM3/CoreSupport/core_cm3.h **** #define InterruptType_ICTR_INTLINESNUM_Pos  0                                             /*!< Inte
 516:/home/oni/workspace/Naze32/lib/CMSIS/CM3/CoreSupport/core_cm3.h **** #define InterruptType_ICTR_INTLINESNUM_Msk (0x1Ful << InterruptType_ICTR_INTLINESNUM_Pos) /*!< Inte
 517:/home/oni/workspace/Naze32/lib/CMSIS/CM3/CoreSupport/core_cm3.h **** 
 518:/home/oni/workspace/Naze32/lib/CMSIS/CM3/CoreSupport/core_cm3.h **** /* Auxiliary Control Register Definitions */
 519:/home/oni/workspace/Naze32/lib/CMSIS/CM3/CoreSupport/core_cm3.h **** #define InterruptType_ACTLR_DISFOLD_Pos     2                                             /*!< Inte
 520:/home/oni/workspace/Naze32/lib/CMSIS/CM3/CoreSupport/core_cm3.h **** #define InterruptType_ACTLR_DISFOLD_Msk    (1ul << InterruptType_ACTLR_DISFOLD_Pos)       /*!< Inte
 521:/home/oni/workspace/Naze32/lib/CMSIS/CM3/CoreSupport/core_cm3.h **** 
 522:/home/oni/workspace/Naze32/lib/CMSIS/CM3/CoreSupport/core_cm3.h **** #define InterruptType_ACTLR_DISDEFWBUF_Pos  1                                             /*!< Inte
 523:/home/oni/workspace/Naze32/lib/CMSIS/CM3/CoreSupport/core_cm3.h **** #define InterruptType_ACTLR_DISDEFWBUF_Msk (1ul << InterruptType_ACTLR_DISDEFWBUF_Pos)    /*!< Inte
 524:/home/oni/workspace/Naze32/lib/CMSIS/CM3/CoreSupport/core_cm3.h **** 
 525:/home/oni/workspace/Naze32/lib/CMSIS/CM3/CoreSupport/core_cm3.h **** #define InterruptType_ACTLR_DISMCYCINT_Pos  0                                             /*!< Inte
 526:/home/oni/workspace/Naze32/lib/CMSIS/CM3/CoreSupport/core_cm3.h **** #define InterruptType_ACTLR_DISMCYCINT_Msk (1ul << InterruptType_ACTLR_DISMCYCINT_Pos)    /*!< Inte
 527:/home/oni/workspace/Naze32/lib/CMSIS/CM3/CoreSupport/core_cm3.h **** /*@}*/ /* end of group CMSIS_CM3_InterruptType */
 528:/home/oni/workspace/Naze32/lib/CMSIS/CM3/CoreSupport/core_cm3.h **** 
 529:/home/oni/workspace/Naze32/lib/CMSIS/CM3/CoreSupport/core_cm3.h **** 
 530:/home/oni/workspace/Naze32/lib/CMSIS/CM3/CoreSupport/core_cm3.h **** #if defined (__MPU_PRESENT) && (__MPU_PRESENT == 1)
 531:/home/oni/workspace/Naze32/lib/CMSIS/CM3/CoreSupport/core_cm3.h **** /** @addtogroup CMSIS_CM3_MPU CMSIS CM3 MPU
 532:/home/oni/workspace/Naze32/lib/CMSIS/CM3/CoreSupport/core_cm3.h ****   memory mapped structure for Memory Protection Unit (MPU)
 533:/home/oni/workspace/Naze32/lib/CMSIS/CM3/CoreSupport/core_cm3.h ****   @{
 534:/home/oni/workspace/Naze32/lib/CMSIS/CM3/CoreSupport/core_cm3.h ****  */
 535:/home/oni/workspace/Naze32/lib/CMSIS/CM3/CoreSupport/core_cm3.h **** typedef struct
 536:/home/oni/workspace/Naze32/lib/CMSIS/CM3/CoreSupport/core_cm3.h **** {
 537:/home/oni/workspace/Naze32/lib/CMSIS/CM3/CoreSupport/core_cm3.h ****   __I  uint32_t TYPE;                         /*!< Offset: 0x00  MPU Type Register                 
 538:/home/oni/workspace/Naze32/lib/CMSIS/CM3/CoreSupport/core_cm3.h ****   __IO uint32_t CTRL;                         /*!< Offset: 0x04  MPU Control Register              
 539:/home/oni/workspace/Naze32/lib/CMSIS/CM3/CoreSupport/core_cm3.h ****   __IO uint32_t RNR;                          /*!< Offset: 0x08  MPU Region RNRber Register        
 540:/home/oni/workspace/Naze32/lib/CMSIS/CM3/CoreSupport/core_cm3.h ****   __IO uint32_t RBAR;                         /*!< Offset: 0x0C  MPU Region Base Address Register  
 541:/home/oni/workspace/Naze32/lib/CMSIS/CM3/CoreSupport/core_cm3.h ****   __IO uint32_t RASR;                         /*!< Offset: 0x10  MPU Region Attribute and Size Regi
 542:/home/oni/workspace/Naze32/lib/CMSIS/CM3/CoreSupport/core_cm3.h ****   __IO uint32_t RBAR_A1;                      /*!< Offset: 0x14  MPU Alias 1 Region Base Address Re
 543:/home/oni/workspace/Naze32/lib/CMSIS/CM3/CoreSupport/core_cm3.h ****   __IO uint32_t RASR_A1;                      /*!< Offset: 0x18  MPU Alias 1 Region Attribute and S
 544:/home/oni/workspace/Naze32/lib/CMSIS/CM3/CoreSupport/core_cm3.h ****   __IO uint32_t RBAR_A2;                      /*!< Offset: 0x1C  MPU Alias 2 Region Base Address Re
 545:/home/oni/workspace/Naze32/lib/CMSIS/CM3/CoreSupport/core_cm3.h ****   __IO uint32_t RASR_A2;                      /*!< Offset: 0x20  MPU Alias 2 Region Attribute and S
 546:/home/oni/workspace/Naze32/lib/CMSIS/CM3/CoreSupport/core_cm3.h ****   __IO uint32_t RBAR_A3;                      /*!< Offset: 0x24  MPU Alias 3 Region Base Address Re
 547:/home/oni/workspace/Naze32/lib/CMSIS/CM3/CoreSupport/core_cm3.h ****   __IO uint32_t RASR_A3;                      /*!< Offset: 0x28  MPU Alias 3 Region Attribute and S
 548:/home/oni/workspace/Naze32/lib/CMSIS/CM3/CoreSupport/core_cm3.h **** } MPU_Type;                                                
 549:/home/oni/workspace/Naze32/lib/CMSIS/CM3/CoreSupport/core_cm3.h **** 
 550:/home/oni/workspace/Naze32/lib/CMSIS/CM3/CoreSupport/core_cm3.h **** /* MPU Type Register */
 551:/home/oni/workspace/Naze32/lib/CMSIS/CM3/CoreSupport/core_cm3.h **** #define MPU_TYPE_IREGION_Pos               16                                             /*!< MPU 
 552:/home/oni/workspace/Naze32/lib/CMSIS/CM3/CoreSupport/core_cm3.h **** #define MPU_TYPE_IREGION_Msk               (0xFFul << MPU_TYPE_IREGION_Pos)               /*!< MPU 
 553:/home/oni/workspace/Naze32/lib/CMSIS/CM3/CoreSupport/core_cm3.h **** 
 554:/home/oni/workspace/Naze32/lib/CMSIS/CM3/CoreSupport/core_cm3.h **** #define MPU_TYPE_DREGION_Pos                8                                             /*!< MPU 
 555:/home/oni/workspace/Naze32/lib/CMSIS/CM3/CoreSupport/core_cm3.h **** #define MPU_TYPE_DREGION_Msk               (0xFFul << MPU_TYPE_DREGION_Pos)               /*!< MPU 
 556:/home/oni/workspace/Naze32/lib/CMSIS/CM3/CoreSupport/core_cm3.h **** 
 557:/home/oni/workspace/Naze32/lib/CMSIS/CM3/CoreSupport/core_cm3.h **** #define MPU_TYPE_SEPARATE_Pos               0                                             /*!< MPU 
 558:/home/oni/workspace/Naze32/lib/CMSIS/CM3/CoreSupport/core_cm3.h **** #define MPU_TYPE_SEPARATE_Msk              (1ul << MPU_TYPE_SEPARATE_Pos)                 /*!< MPU 
 559:/home/oni/workspace/Naze32/lib/CMSIS/CM3/CoreSupport/core_cm3.h **** 
 560:/home/oni/workspace/Naze32/lib/CMSIS/CM3/CoreSupport/core_cm3.h **** /* MPU Control Register */
 561:/home/oni/workspace/Naze32/lib/CMSIS/CM3/CoreSupport/core_cm3.h **** #define MPU_CTRL_PRIVDEFENA_Pos             2                                             /*!< MPU 
 562:/home/oni/workspace/Naze32/lib/CMSIS/CM3/CoreSupport/core_cm3.h **** #define MPU_CTRL_PRIVDEFENA_Msk            (1ul << MPU_CTRL_PRIVDEFENA_Pos)               /*!< MPU 
 563:/home/oni/workspace/Naze32/lib/CMSIS/CM3/CoreSupport/core_cm3.h **** 
 564:/home/oni/workspace/Naze32/lib/CMSIS/CM3/CoreSupport/core_cm3.h **** #define MPU_CTRL_HFNMIENA_Pos               1                                             /*!< MPU 
 565:/home/oni/workspace/Naze32/lib/CMSIS/CM3/CoreSupport/core_cm3.h **** #define MPU_CTRL_HFNMIENA_Msk              (1ul << MPU_CTRL_HFNMIENA_Pos)                 /*!< MPU 
 566:/home/oni/workspace/Naze32/lib/CMSIS/CM3/CoreSupport/core_cm3.h **** 
 567:/home/oni/workspace/Naze32/lib/CMSIS/CM3/CoreSupport/core_cm3.h **** #define MPU_CTRL_ENABLE_Pos                 0                                             /*!< MPU 
 568:/home/oni/workspace/Naze32/lib/CMSIS/CM3/CoreSupport/core_cm3.h **** #define MPU_CTRL_ENABLE_Msk                (1ul << MPU_CTRL_ENABLE_Pos)                   /*!< MPU 
 569:/home/oni/workspace/Naze32/lib/CMSIS/CM3/CoreSupport/core_cm3.h **** 
 570:/home/oni/workspace/Naze32/lib/CMSIS/CM3/CoreSupport/core_cm3.h **** /* MPU Region Number Register */
 571:/home/oni/workspace/Naze32/lib/CMSIS/CM3/CoreSupport/core_cm3.h **** #define MPU_RNR_REGION_Pos                  0                                             /*!< MPU 
 572:/home/oni/workspace/Naze32/lib/CMSIS/CM3/CoreSupport/core_cm3.h **** #define MPU_RNR_REGION_Msk                 (0xFFul << MPU_RNR_REGION_Pos)                 /*!< MPU 
 573:/home/oni/workspace/Naze32/lib/CMSIS/CM3/CoreSupport/core_cm3.h **** 
 574:/home/oni/workspace/Naze32/lib/CMSIS/CM3/CoreSupport/core_cm3.h **** /* MPU Region Base Address Register */
 575:/home/oni/workspace/Naze32/lib/CMSIS/CM3/CoreSupport/core_cm3.h **** #define MPU_RBAR_ADDR_Pos                   5                                             /*!< MPU 
 576:/home/oni/workspace/Naze32/lib/CMSIS/CM3/CoreSupport/core_cm3.h **** #define MPU_RBAR_ADDR_Msk                  (0x7FFFFFFul << MPU_RBAR_ADDR_Pos)             /*!< MPU 
 577:/home/oni/workspace/Naze32/lib/CMSIS/CM3/CoreSupport/core_cm3.h **** 
 578:/home/oni/workspace/Naze32/lib/CMSIS/CM3/CoreSupport/core_cm3.h **** #define MPU_RBAR_VALID_Pos                  4                                             /*!< MPU 
 579:/home/oni/workspace/Naze32/lib/CMSIS/CM3/CoreSupport/core_cm3.h **** #define MPU_RBAR_VALID_Msk                 (1ul << MPU_RBAR_VALID_Pos)                    /*!< MPU 
 580:/home/oni/workspace/Naze32/lib/CMSIS/CM3/CoreSupport/core_cm3.h **** 
 581:/home/oni/workspace/Naze32/lib/CMSIS/CM3/CoreSupport/core_cm3.h **** #define MPU_RBAR_REGION_Pos                 0                                             /*!< MPU 
 582:/home/oni/workspace/Naze32/lib/CMSIS/CM3/CoreSupport/core_cm3.h **** #define MPU_RBAR_REGION_Msk                (0xFul << MPU_RBAR_REGION_Pos)                 /*!< MPU 
 583:/home/oni/workspace/Naze32/lib/CMSIS/CM3/CoreSupport/core_cm3.h **** 
 584:/home/oni/workspace/Naze32/lib/CMSIS/CM3/CoreSupport/core_cm3.h **** /* MPU Region Attribute and Size Register */
 585:/home/oni/workspace/Naze32/lib/CMSIS/CM3/CoreSupport/core_cm3.h **** #define MPU_RASR_XN_Pos                    28                                             /*!< MPU 
 586:/home/oni/workspace/Naze32/lib/CMSIS/CM3/CoreSupport/core_cm3.h **** #define MPU_RASR_XN_Msk                    (1ul << MPU_RASR_XN_Pos)                       /*!< MPU 
 587:/home/oni/workspace/Naze32/lib/CMSIS/CM3/CoreSupport/core_cm3.h **** 
 588:/home/oni/workspace/Naze32/lib/CMSIS/CM3/CoreSupport/core_cm3.h **** #define MPU_RASR_AP_Pos                    24                                             /*!< MPU 
 589:/home/oni/workspace/Naze32/lib/CMSIS/CM3/CoreSupport/core_cm3.h **** #define MPU_RASR_AP_Msk                    (7ul << MPU_RASR_AP_Pos)                       /*!< MPU 
 590:/home/oni/workspace/Naze32/lib/CMSIS/CM3/CoreSupport/core_cm3.h **** 
 591:/home/oni/workspace/Naze32/lib/CMSIS/CM3/CoreSupport/core_cm3.h **** #define MPU_RASR_TEX_Pos                   19                                             /*!< MPU 
 592:/home/oni/workspace/Naze32/lib/CMSIS/CM3/CoreSupport/core_cm3.h **** #define MPU_RASR_TEX_Msk                   (7ul << MPU_RASR_TEX_Pos)                      /*!< MPU 
 593:/home/oni/workspace/Naze32/lib/CMSIS/CM3/CoreSupport/core_cm3.h **** 
 594:/home/oni/workspace/Naze32/lib/CMSIS/CM3/CoreSupport/core_cm3.h **** #define MPU_RASR_S_Pos                     18                                             /*!< MPU 
 595:/home/oni/workspace/Naze32/lib/CMSIS/CM3/CoreSupport/core_cm3.h **** #define MPU_RASR_S_Msk                     (1ul << MPU_RASR_S_Pos)                        /*!< MPU 
 596:/home/oni/workspace/Naze32/lib/CMSIS/CM3/CoreSupport/core_cm3.h **** 
 597:/home/oni/workspace/Naze32/lib/CMSIS/CM3/CoreSupport/core_cm3.h **** #define MPU_RASR_C_Pos                     17                                             /*!< MPU 
 598:/home/oni/workspace/Naze32/lib/CMSIS/CM3/CoreSupport/core_cm3.h **** #define MPU_RASR_C_Msk                     (1ul << MPU_RASR_C_Pos)                        /*!< MPU 
 599:/home/oni/workspace/Naze32/lib/CMSIS/CM3/CoreSupport/core_cm3.h **** 
 600:/home/oni/workspace/Naze32/lib/CMSIS/CM3/CoreSupport/core_cm3.h **** #define MPU_RASR_B_Pos                     16                                             /*!< MPU 
 601:/home/oni/workspace/Naze32/lib/CMSIS/CM3/CoreSupport/core_cm3.h **** #define MPU_RASR_B_Msk                     (1ul << MPU_RASR_B_Pos)                        /*!< MPU 
 602:/home/oni/workspace/Naze32/lib/CMSIS/CM3/CoreSupport/core_cm3.h **** 
 603:/home/oni/workspace/Naze32/lib/CMSIS/CM3/CoreSupport/core_cm3.h **** #define MPU_RASR_SRD_Pos                    8                                             /*!< MPU 
 604:/home/oni/workspace/Naze32/lib/CMSIS/CM3/CoreSupport/core_cm3.h **** #define MPU_RASR_SRD_Msk                   (0xFFul << MPU_RASR_SRD_Pos)                   /*!< MPU 
 605:/home/oni/workspace/Naze32/lib/CMSIS/CM3/CoreSupport/core_cm3.h **** 
 606:/home/oni/workspace/Naze32/lib/CMSIS/CM3/CoreSupport/core_cm3.h **** #define MPU_RASR_SIZE_Pos                   1                                             /*!< MPU 
 607:/home/oni/workspace/Naze32/lib/CMSIS/CM3/CoreSupport/core_cm3.h **** #define MPU_RASR_SIZE_Msk                  (0x1Ful << MPU_RASR_SIZE_Pos)                  /*!< MPU 
 608:/home/oni/workspace/Naze32/lib/CMSIS/CM3/CoreSupport/core_cm3.h **** 
 609:/home/oni/workspace/Naze32/lib/CMSIS/CM3/CoreSupport/core_cm3.h **** #define MPU_RASR_ENA_Pos                     0                                            /*!< MPU 
 610:/home/oni/workspace/Naze32/lib/CMSIS/CM3/CoreSupport/core_cm3.h **** #define MPU_RASR_ENA_Msk                    (0x1Ful << MPU_RASR_ENA_Pos)                  /*!< MPU 
 611:/home/oni/workspace/Naze32/lib/CMSIS/CM3/CoreSupport/core_cm3.h **** 
 612:/home/oni/workspace/Naze32/lib/CMSIS/CM3/CoreSupport/core_cm3.h **** /*@}*/ /* end of group CMSIS_CM3_MPU */
 613:/home/oni/workspace/Naze32/lib/CMSIS/CM3/CoreSupport/core_cm3.h **** #endif
 614:/home/oni/workspace/Naze32/lib/CMSIS/CM3/CoreSupport/core_cm3.h **** 
 615:/home/oni/workspace/Naze32/lib/CMSIS/CM3/CoreSupport/core_cm3.h **** 
 616:/home/oni/workspace/Naze32/lib/CMSIS/CM3/CoreSupport/core_cm3.h **** /** @addtogroup CMSIS_CM3_CoreDebug CMSIS CM3 Core Debug
 617:/home/oni/workspace/Naze32/lib/CMSIS/CM3/CoreSupport/core_cm3.h ****   memory mapped structure for Core Debug Register
 618:/home/oni/workspace/Naze32/lib/CMSIS/CM3/CoreSupport/core_cm3.h ****   @{
 619:/home/oni/workspace/Naze32/lib/CMSIS/CM3/CoreSupport/core_cm3.h ****  */
 620:/home/oni/workspace/Naze32/lib/CMSIS/CM3/CoreSupport/core_cm3.h **** typedef struct
 621:/home/oni/workspace/Naze32/lib/CMSIS/CM3/CoreSupport/core_cm3.h **** {
 622:/home/oni/workspace/Naze32/lib/CMSIS/CM3/CoreSupport/core_cm3.h ****   __IO uint32_t DHCSR;                        /*!< Offset: 0x00  Debug Halting Control and Status R
 623:/home/oni/workspace/Naze32/lib/CMSIS/CM3/CoreSupport/core_cm3.h ****   __O  uint32_t DCRSR;                        /*!< Offset: 0x04  Debug Core Register Selector Regis
 624:/home/oni/workspace/Naze32/lib/CMSIS/CM3/CoreSupport/core_cm3.h ****   __IO uint32_t DCRDR;                        /*!< Offset: 0x08  Debug Core Register Data Register 
 625:/home/oni/workspace/Naze32/lib/CMSIS/CM3/CoreSupport/core_cm3.h ****   __IO uint32_t DEMCR;                        /*!< Offset: 0x0C  Debug Exception and Monitor Contro
 626:/home/oni/workspace/Naze32/lib/CMSIS/CM3/CoreSupport/core_cm3.h **** } CoreDebug_Type;
 627:/home/oni/workspace/Naze32/lib/CMSIS/CM3/CoreSupport/core_cm3.h **** 
 628:/home/oni/workspace/Naze32/lib/CMSIS/CM3/CoreSupport/core_cm3.h **** /* Debug Halting Control and Status Register */
 629:/home/oni/workspace/Naze32/lib/CMSIS/CM3/CoreSupport/core_cm3.h **** #define CoreDebug_DHCSR_DBGKEY_Pos         16                                             /*!< Core
 630:/home/oni/workspace/Naze32/lib/CMSIS/CM3/CoreSupport/core_cm3.h **** #define CoreDebug_DHCSR_DBGKEY_Msk         (0xFFFFul << CoreDebug_DHCSR_DBGKEY_Pos)       /*!< Core
 631:/home/oni/workspace/Naze32/lib/CMSIS/CM3/CoreSupport/core_cm3.h **** 
 632:/home/oni/workspace/Naze32/lib/CMSIS/CM3/CoreSupport/core_cm3.h **** #define CoreDebug_DHCSR_S_RESET_ST_Pos     25                                             /*!< Core
 633:/home/oni/workspace/Naze32/lib/CMSIS/CM3/CoreSupport/core_cm3.h **** #define CoreDebug_DHCSR_S_RESET_ST_Msk     (1ul << CoreDebug_DHCSR_S_RESET_ST_Pos)        /*!< Core
 634:/home/oni/workspace/Naze32/lib/CMSIS/CM3/CoreSupport/core_cm3.h **** 
 635:/home/oni/workspace/Naze32/lib/CMSIS/CM3/CoreSupport/core_cm3.h **** #define CoreDebug_DHCSR_S_RETIRE_ST_Pos    24                                             /*!< Core
 636:/home/oni/workspace/Naze32/lib/CMSIS/CM3/CoreSupport/core_cm3.h **** #define CoreDebug_DHCSR_S_RETIRE_ST_Msk    (1ul << CoreDebug_DHCSR_S_RETIRE_ST_Pos)       /*!< Core
 637:/home/oni/workspace/Naze32/lib/CMSIS/CM3/CoreSupport/core_cm3.h **** 
 638:/home/oni/workspace/Naze32/lib/CMSIS/CM3/CoreSupport/core_cm3.h **** #define CoreDebug_DHCSR_S_LOCKUP_Pos       19                                             /*!< Core
 639:/home/oni/workspace/Naze32/lib/CMSIS/CM3/CoreSupport/core_cm3.h **** #define CoreDebug_DHCSR_S_LOCKUP_Msk       (1ul << CoreDebug_DHCSR_S_LOCKUP_Pos)          /*!< Core
 640:/home/oni/workspace/Naze32/lib/CMSIS/CM3/CoreSupport/core_cm3.h **** 
 641:/home/oni/workspace/Naze32/lib/CMSIS/CM3/CoreSupport/core_cm3.h **** #define CoreDebug_DHCSR_S_SLEEP_Pos        18                                             /*!< Core
 642:/home/oni/workspace/Naze32/lib/CMSIS/CM3/CoreSupport/core_cm3.h **** #define CoreDebug_DHCSR_S_SLEEP_Msk        (1ul << CoreDebug_DHCSR_S_SLEEP_Pos)           /*!< Core
 643:/home/oni/workspace/Naze32/lib/CMSIS/CM3/CoreSupport/core_cm3.h **** 
 644:/home/oni/workspace/Naze32/lib/CMSIS/CM3/CoreSupport/core_cm3.h **** #define CoreDebug_DHCSR_S_HALT_Pos         17                                             /*!< Core
 645:/home/oni/workspace/Naze32/lib/CMSIS/CM3/CoreSupport/core_cm3.h **** #define CoreDebug_DHCSR_S_HALT_Msk         (1ul << CoreDebug_DHCSR_S_HALT_Pos)            /*!< Core
 646:/home/oni/workspace/Naze32/lib/CMSIS/CM3/CoreSupport/core_cm3.h **** 
 647:/home/oni/workspace/Naze32/lib/CMSIS/CM3/CoreSupport/core_cm3.h **** #define CoreDebug_DHCSR_S_REGRDY_Pos       16                                             /*!< Core
 648:/home/oni/workspace/Naze32/lib/CMSIS/CM3/CoreSupport/core_cm3.h **** #define CoreDebug_DHCSR_S_REGRDY_Msk       (1ul << CoreDebug_DHCSR_S_REGRDY_Pos)          /*!< Core
 649:/home/oni/workspace/Naze32/lib/CMSIS/CM3/CoreSupport/core_cm3.h **** 
 650:/home/oni/workspace/Naze32/lib/CMSIS/CM3/CoreSupport/core_cm3.h **** #define CoreDebug_DHCSR_C_SNAPSTALL_Pos     5                                             /*!< Core
 651:/home/oni/workspace/Naze32/lib/CMSIS/CM3/CoreSupport/core_cm3.h **** #define CoreDebug_DHCSR_C_SNAPSTALL_Msk    (1ul << CoreDebug_DHCSR_C_SNAPSTALL_Pos)       /*!< Core
 652:/home/oni/workspace/Naze32/lib/CMSIS/CM3/CoreSupport/core_cm3.h **** 
 653:/home/oni/workspace/Naze32/lib/CMSIS/CM3/CoreSupport/core_cm3.h **** #define CoreDebug_DHCSR_C_MASKINTS_Pos      3                                             /*!< Core
 654:/home/oni/workspace/Naze32/lib/CMSIS/CM3/CoreSupport/core_cm3.h **** #define CoreDebug_DHCSR_C_MASKINTS_Msk     (1ul << CoreDebug_DHCSR_C_MASKINTS_Pos)        /*!< Core
 655:/home/oni/workspace/Naze32/lib/CMSIS/CM3/CoreSupport/core_cm3.h **** 
 656:/home/oni/workspace/Naze32/lib/CMSIS/CM3/CoreSupport/core_cm3.h **** #define CoreDebug_DHCSR_C_STEP_Pos          2                                             /*!< Core
 657:/home/oni/workspace/Naze32/lib/CMSIS/CM3/CoreSupport/core_cm3.h **** #define CoreDebug_DHCSR_C_STEP_Msk         (1ul << CoreDebug_DHCSR_C_STEP_Pos)            /*!< Core
 658:/home/oni/workspace/Naze32/lib/CMSIS/CM3/CoreSupport/core_cm3.h **** 
 659:/home/oni/workspace/Naze32/lib/CMSIS/CM3/CoreSupport/core_cm3.h **** #define CoreDebug_DHCSR_C_HALT_Pos          1                                             /*!< Core
 660:/home/oni/workspace/Naze32/lib/CMSIS/CM3/CoreSupport/core_cm3.h **** #define CoreDebug_DHCSR_C_HALT_Msk         (1ul << CoreDebug_DHCSR_C_HALT_Pos)            /*!< Core
 661:/home/oni/workspace/Naze32/lib/CMSIS/CM3/CoreSupport/core_cm3.h **** 
 662:/home/oni/workspace/Naze32/lib/CMSIS/CM3/CoreSupport/core_cm3.h **** #define CoreDebug_DHCSR_C_DEBUGEN_Pos       0                                             /*!< Core
 663:/home/oni/workspace/Naze32/lib/CMSIS/CM3/CoreSupport/core_cm3.h **** #define CoreDebug_DHCSR_C_DEBUGEN_Msk      (1ul << CoreDebug_DHCSR_C_DEBUGEN_Pos)         /*!< Core
 664:/home/oni/workspace/Naze32/lib/CMSIS/CM3/CoreSupport/core_cm3.h **** 
 665:/home/oni/workspace/Naze32/lib/CMSIS/CM3/CoreSupport/core_cm3.h **** /* Debug Core Register Selector Register */
 666:/home/oni/workspace/Naze32/lib/CMSIS/CM3/CoreSupport/core_cm3.h **** #define CoreDebug_DCRSR_REGWnR_Pos         16                                             /*!< Core
 667:/home/oni/workspace/Naze32/lib/CMSIS/CM3/CoreSupport/core_cm3.h **** #define CoreDebug_DCRSR_REGWnR_Msk         (1ul << CoreDebug_DCRSR_REGWnR_Pos)            /*!< Core
 668:/home/oni/workspace/Naze32/lib/CMSIS/CM3/CoreSupport/core_cm3.h **** 
 669:/home/oni/workspace/Naze32/lib/CMSIS/CM3/CoreSupport/core_cm3.h **** #define CoreDebug_DCRSR_REGSEL_Pos          0                                             /*!< Core
 670:/home/oni/workspace/Naze32/lib/CMSIS/CM3/CoreSupport/core_cm3.h **** #define CoreDebug_DCRSR_REGSEL_Msk         (0x1Ful << CoreDebug_DCRSR_REGSEL_Pos)         /*!< Core
 671:/home/oni/workspace/Naze32/lib/CMSIS/CM3/CoreSupport/core_cm3.h **** 
 672:/home/oni/workspace/Naze32/lib/CMSIS/CM3/CoreSupport/core_cm3.h **** /* Debug Exception and Monitor Control Register */
 673:/home/oni/workspace/Naze32/lib/CMSIS/CM3/CoreSupport/core_cm3.h **** #define CoreDebug_DEMCR_TRCENA_Pos         24                                             /*!< Core
 674:/home/oni/workspace/Naze32/lib/CMSIS/CM3/CoreSupport/core_cm3.h **** #define CoreDebug_DEMCR_TRCENA_Msk         (1ul << CoreDebug_DEMCR_TRCENA_Pos)            /*!< Core
 675:/home/oni/workspace/Naze32/lib/CMSIS/CM3/CoreSupport/core_cm3.h **** 
 676:/home/oni/workspace/Naze32/lib/CMSIS/CM3/CoreSupport/core_cm3.h **** #define CoreDebug_DEMCR_MON_REQ_Pos        19                                             /*!< Core
 677:/home/oni/workspace/Naze32/lib/CMSIS/CM3/CoreSupport/core_cm3.h **** #define CoreDebug_DEMCR_MON_REQ_Msk        (1ul << CoreDebug_DEMCR_MON_REQ_Pos)           /*!< Core
 678:/home/oni/workspace/Naze32/lib/CMSIS/CM3/CoreSupport/core_cm3.h **** 
 679:/home/oni/workspace/Naze32/lib/CMSIS/CM3/CoreSupport/core_cm3.h **** #define CoreDebug_DEMCR_MON_STEP_Pos       18                                             /*!< Core
 680:/home/oni/workspace/Naze32/lib/CMSIS/CM3/CoreSupport/core_cm3.h **** #define CoreDebug_DEMCR_MON_STEP_Msk       (1ul << CoreDebug_DEMCR_MON_STEP_Pos)          /*!< Core
 681:/home/oni/workspace/Naze32/lib/CMSIS/CM3/CoreSupport/core_cm3.h **** 
 682:/home/oni/workspace/Naze32/lib/CMSIS/CM3/CoreSupport/core_cm3.h **** #define CoreDebug_DEMCR_MON_PEND_Pos       17                                             /*!< Core
 683:/home/oni/workspace/Naze32/lib/CMSIS/CM3/CoreSupport/core_cm3.h **** #define CoreDebug_DEMCR_MON_PEND_Msk       (1ul << CoreDebug_DEMCR_MON_PEND_Pos)          /*!< Core
 684:/home/oni/workspace/Naze32/lib/CMSIS/CM3/CoreSupport/core_cm3.h **** 
 685:/home/oni/workspace/Naze32/lib/CMSIS/CM3/CoreSupport/core_cm3.h **** #define CoreDebug_DEMCR_MON_EN_Pos         16                                             /*!< Core
 686:/home/oni/workspace/Naze32/lib/CMSIS/CM3/CoreSupport/core_cm3.h **** #define CoreDebug_DEMCR_MON_EN_Msk         (1ul << CoreDebug_DEMCR_MON_EN_Pos)            /*!< Core
 687:/home/oni/workspace/Naze32/lib/CMSIS/CM3/CoreSupport/core_cm3.h **** 
 688:/home/oni/workspace/Naze32/lib/CMSIS/CM3/CoreSupport/core_cm3.h **** #define CoreDebug_DEMCR_VC_HARDERR_Pos     10                                             /*!< Core
 689:/home/oni/workspace/Naze32/lib/CMSIS/CM3/CoreSupport/core_cm3.h **** #define CoreDebug_DEMCR_VC_HARDERR_Msk     (1ul << CoreDebug_DEMCR_VC_HARDERR_Pos)        /*!< Core
 690:/home/oni/workspace/Naze32/lib/CMSIS/CM3/CoreSupport/core_cm3.h **** 
 691:/home/oni/workspace/Naze32/lib/CMSIS/CM3/CoreSupport/core_cm3.h **** #define CoreDebug_DEMCR_VC_INTERR_Pos       9                                             /*!< Core
 692:/home/oni/workspace/Naze32/lib/CMSIS/CM3/CoreSupport/core_cm3.h **** #define CoreDebug_DEMCR_VC_INTERR_Msk      (1ul << CoreDebug_DEMCR_VC_INTERR_Pos)         /*!< Core
 693:/home/oni/workspace/Naze32/lib/CMSIS/CM3/CoreSupport/core_cm3.h **** 
 694:/home/oni/workspace/Naze32/lib/CMSIS/CM3/CoreSupport/core_cm3.h **** #define CoreDebug_DEMCR_VC_BUSERR_Pos       8                                             /*!< Core
 695:/home/oni/workspace/Naze32/lib/CMSIS/CM3/CoreSupport/core_cm3.h **** #define CoreDebug_DEMCR_VC_BUSERR_Msk      (1ul << CoreDebug_DEMCR_VC_BUSERR_Pos)         /*!< Core
 696:/home/oni/workspace/Naze32/lib/CMSIS/CM3/CoreSupport/core_cm3.h **** 
 697:/home/oni/workspace/Naze32/lib/CMSIS/CM3/CoreSupport/core_cm3.h **** #define CoreDebug_DEMCR_VC_STATERR_Pos      7                                             /*!< Core
 698:/home/oni/workspace/Naze32/lib/CMSIS/CM3/CoreSupport/core_cm3.h **** #define CoreDebug_DEMCR_VC_STATERR_Msk     (1ul << CoreDebug_DEMCR_VC_STATERR_Pos)        /*!< Core
 699:/home/oni/workspace/Naze32/lib/CMSIS/CM3/CoreSupport/core_cm3.h **** 
 700:/home/oni/workspace/Naze32/lib/CMSIS/CM3/CoreSupport/core_cm3.h **** #define CoreDebug_DEMCR_VC_CHKERR_Pos       6                                             /*!< Core
 701:/home/oni/workspace/Naze32/lib/CMSIS/CM3/CoreSupport/core_cm3.h **** #define CoreDebug_DEMCR_VC_CHKERR_Msk      (1ul << CoreDebug_DEMCR_VC_CHKERR_Pos)         /*!< Core
 702:/home/oni/workspace/Naze32/lib/CMSIS/CM3/CoreSupport/core_cm3.h **** 
 703:/home/oni/workspace/Naze32/lib/CMSIS/CM3/CoreSupport/core_cm3.h **** #define CoreDebug_DEMCR_VC_NOCPERR_Pos      5                                             /*!< Core
 704:/home/oni/workspace/Naze32/lib/CMSIS/CM3/CoreSupport/core_cm3.h **** #define CoreDebug_DEMCR_VC_NOCPERR_Msk     (1ul << CoreDebug_DEMCR_VC_NOCPERR_Pos)        /*!< Core
 705:/home/oni/workspace/Naze32/lib/CMSIS/CM3/CoreSupport/core_cm3.h **** 
 706:/home/oni/workspace/Naze32/lib/CMSIS/CM3/CoreSupport/core_cm3.h **** #define CoreDebug_DEMCR_VC_MMERR_Pos        4                                             /*!< Core
 707:/home/oni/workspace/Naze32/lib/CMSIS/CM3/CoreSupport/core_cm3.h **** #define CoreDebug_DEMCR_VC_MMERR_Msk       (1ul << CoreDebug_DEMCR_VC_MMERR_Pos)          /*!< Core
 708:/home/oni/workspace/Naze32/lib/CMSIS/CM3/CoreSupport/core_cm3.h **** 
 709:/home/oni/workspace/Naze32/lib/CMSIS/CM3/CoreSupport/core_cm3.h **** #define CoreDebug_DEMCR_VC_CORERESET_Pos    0                                             /*!< Core
 710:/home/oni/workspace/Naze32/lib/CMSIS/CM3/CoreSupport/core_cm3.h **** #define CoreDebug_DEMCR_VC_CORERESET_Msk   (1ul << CoreDebug_DEMCR_VC_CORERESET_Pos)      /*!< Core
 711:/home/oni/workspace/Naze32/lib/CMSIS/CM3/CoreSupport/core_cm3.h **** /*@}*/ /* end of group CMSIS_CM3_CoreDebug */
 712:/home/oni/workspace/Naze32/lib/CMSIS/CM3/CoreSupport/core_cm3.h **** 
 713:/home/oni/workspace/Naze32/lib/CMSIS/CM3/CoreSupport/core_cm3.h **** 
 714:/home/oni/workspace/Naze32/lib/CMSIS/CM3/CoreSupport/core_cm3.h **** /* Memory mapping of Cortex-M3 Hardware */
 715:/home/oni/workspace/Naze32/lib/CMSIS/CM3/CoreSupport/core_cm3.h **** #define SCS_BASE            (0xE000E000)                              /*!< System Control Space Bas
 716:/home/oni/workspace/Naze32/lib/CMSIS/CM3/CoreSupport/core_cm3.h **** #define ITM_BASE            (0xE0000000)                              /*!< ITM Base Address        
 717:/home/oni/workspace/Naze32/lib/CMSIS/CM3/CoreSupport/core_cm3.h **** #define CoreDebug_BASE      (0xE000EDF0)                              /*!< Core Debug Base Address 
 718:/home/oni/workspace/Naze32/lib/CMSIS/CM3/CoreSupport/core_cm3.h **** #define SysTick_BASE        (SCS_BASE +  0x0010)                      /*!< SysTick Base Address    
 719:/home/oni/workspace/Naze32/lib/CMSIS/CM3/CoreSupport/core_cm3.h **** #define NVIC_BASE           (SCS_BASE +  0x0100)                      /*!< NVIC Base Address       
 720:/home/oni/workspace/Naze32/lib/CMSIS/CM3/CoreSupport/core_cm3.h **** #define SCB_BASE            (SCS_BASE +  0x0D00)                      /*!< System Control Block Bas
 721:/home/oni/workspace/Naze32/lib/CMSIS/CM3/CoreSupport/core_cm3.h **** 
 722:/home/oni/workspace/Naze32/lib/CMSIS/CM3/CoreSupport/core_cm3.h **** #define InterruptType       ((InterruptType_Type *) SCS_BASE)         /*!< Interrupt Type Register 
 723:/home/oni/workspace/Naze32/lib/CMSIS/CM3/CoreSupport/core_cm3.h **** #define SCB                 ((SCB_Type *)           SCB_BASE)         /*!< SCB configuration struct
 724:/home/oni/workspace/Naze32/lib/CMSIS/CM3/CoreSupport/core_cm3.h **** #define SysTick             ((SysTick_Type *)       SysTick_BASE)     /*!< SysTick configuration st
 725:/home/oni/workspace/Naze32/lib/CMSIS/CM3/CoreSupport/core_cm3.h **** #define NVIC                ((NVIC_Type *)          NVIC_BASE)        /*!< NVIC configuration struc
 726:/home/oni/workspace/Naze32/lib/CMSIS/CM3/CoreSupport/core_cm3.h **** #define ITM                 ((ITM_Type *)           ITM_BASE)         /*!< ITM configuration struct
 727:/home/oni/workspace/Naze32/lib/CMSIS/CM3/CoreSupport/core_cm3.h **** #define CoreDebug           ((CoreDebug_Type *)     CoreDebug_BASE)   /*!< Core Debug configuration
 728:/home/oni/workspace/Naze32/lib/CMSIS/CM3/CoreSupport/core_cm3.h **** 
 729:/home/oni/workspace/Naze32/lib/CMSIS/CM3/CoreSupport/core_cm3.h **** #if defined (__MPU_PRESENT) && (__MPU_PRESENT == 1)
 730:/home/oni/workspace/Naze32/lib/CMSIS/CM3/CoreSupport/core_cm3.h ****   #define MPU_BASE          (SCS_BASE +  0x0D90)                      /*!< Memory Protection Unit  
 731:/home/oni/workspace/Naze32/lib/CMSIS/CM3/CoreSupport/core_cm3.h ****   #define MPU               ((MPU_Type*)            MPU_BASE)         /*!< Memory Protection Unit  
 732:/home/oni/workspace/Naze32/lib/CMSIS/CM3/CoreSupport/core_cm3.h **** #endif
 733:/home/oni/workspace/Naze32/lib/CMSIS/CM3/CoreSupport/core_cm3.h **** 
 734:/home/oni/workspace/Naze32/lib/CMSIS/CM3/CoreSupport/core_cm3.h **** /*@}*/ /* end of group CMSIS_CM3_core_register */
 735:/home/oni/workspace/Naze32/lib/CMSIS/CM3/CoreSupport/core_cm3.h **** 
 736:/home/oni/workspace/Naze32/lib/CMSIS/CM3/CoreSupport/core_cm3.h **** 
 737:/home/oni/workspace/Naze32/lib/CMSIS/CM3/CoreSupport/core_cm3.h **** /*******************************************************************************
 738:/home/oni/workspace/Naze32/lib/CMSIS/CM3/CoreSupport/core_cm3.h ****  *                Hardware Abstraction Layer
 739:/home/oni/workspace/Naze32/lib/CMSIS/CM3/CoreSupport/core_cm3.h ****  ******************************************************************************/
 740:/home/oni/workspace/Naze32/lib/CMSIS/CM3/CoreSupport/core_cm3.h **** 
 741:/home/oni/workspace/Naze32/lib/CMSIS/CM3/CoreSupport/core_cm3.h **** #if defined ( __CC_ARM   )
 742:/home/oni/workspace/Naze32/lib/CMSIS/CM3/CoreSupport/core_cm3.h ****   #define __ASM            __asm                                      /*!< asm keyword for ARM Comp
 743:/home/oni/workspace/Naze32/lib/CMSIS/CM3/CoreSupport/core_cm3.h ****   #define __INLINE         __inline                                   /*!< inline keyword for ARM C
 744:/home/oni/workspace/Naze32/lib/CMSIS/CM3/CoreSupport/core_cm3.h **** 
 745:/home/oni/workspace/Naze32/lib/CMSIS/CM3/CoreSupport/core_cm3.h **** #elif defined ( __ICCARM__ )
 746:/home/oni/workspace/Naze32/lib/CMSIS/CM3/CoreSupport/core_cm3.h ****   #define __ASM           __asm                                       /*!< asm keyword for IAR Comp
 747:/home/oni/workspace/Naze32/lib/CMSIS/CM3/CoreSupport/core_cm3.h ****   #define __INLINE        inline                                      /*!< inline keyword for IAR C
 748:/home/oni/workspace/Naze32/lib/CMSIS/CM3/CoreSupport/core_cm3.h **** 
 749:/home/oni/workspace/Naze32/lib/CMSIS/CM3/CoreSupport/core_cm3.h **** #elif defined   (  __GNUC__  )
 750:/home/oni/workspace/Naze32/lib/CMSIS/CM3/CoreSupport/core_cm3.h ****   #define __ASM            __asm                                      /*!< asm keyword for GNU Comp
 751:/home/oni/workspace/Naze32/lib/CMSIS/CM3/CoreSupport/core_cm3.h ****   #define __INLINE         inline                                     /*!< inline keyword for GNU C
 752:/home/oni/workspace/Naze32/lib/CMSIS/CM3/CoreSupport/core_cm3.h **** 
 753:/home/oni/workspace/Naze32/lib/CMSIS/CM3/CoreSupport/core_cm3.h **** #elif defined   (  __TASKING__  )
 754:/home/oni/workspace/Naze32/lib/CMSIS/CM3/CoreSupport/core_cm3.h ****   #define __ASM            __asm                                      /*!< asm keyword for TASKING 
 755:/home/oni/workspace/Naze32/lib/CMSIS/CM3/CoreSupport/core_cm3.h ****   #define __INLINE         inline                                     /*!< inline keyword for TASKI
 756:/home/oni/workspace/Naze32/lib/CMSIS/CM3/CoreSupport/core_cm3.h **** 
 757:/home/oni/workspace/Naze32/lib/CMSIS/CM3/CoreSupport/core_cm3.h **** #endif
 758:/home/oni/workspace/Naze32/lib/CMSIS/CM3/CoreSupport/core_cm3.h **** 
 759:/home/oni/workspace/Naze32/lib/CMSIS/CM3/CoreSupport/core_cm3.h **** 
 760:/home/oni/workspace/Naze32/lib/CMSIS/CM3/CoreSupport/core_cm3.h **** /* ###################  Compiler specific Intrinsics  ########################### */
 761:/home/oni/workspace/Naze32/lib/CMSIS/CM3/CoreSupport/core_cm3.h **** 
 762:/home/oni/workspace/Naze32/lib/CMSIS/CM3/CoreSupport/core_cm3.h **** #if defined ( __CC_ARM   ) /*------------------RealView Compiler -----------------*/
 763:/home/oni/workspace/Naze32/lib/CMSIS/CM3/CoreSupport/core_cm3.h **** /* ARM armcc specific functions */
 764:/home/oni/workspace/Naze32/lib/CMSIS/CM3/CoreSupport/core_cm3.h **** 
 765:/home/oni/workspace/Naze32/lib/CMSIS/CM3/CoreSupport/core_cm3.h **** #define __enable_fault_irq                __enable_fiq
 766:/home/oni/workspace/Naze32/lib/CMSIS/CM3/CoreSupport/core_cm3.h **** #define __disable_fault_irq               __disable_fiq
 767:/home/oni/workspace/Naze32/lib/CMSIS/CM3/CoreSupport/core_cm3.h **** 
 768:/home/oni/workspace/Naze32/lib/CMSIS/CM3/CoreSupport/core_cm3.h **** #define __NOP                             __nop
 769:/home/oni/workspace/Naze32/lib/CMSIS/CM3/CoreSupport/core_cm3.h **** #define __WFI                             __wfi
 770:/home/oni/workspace/Naze32/lib/CMSIS/CM3/CoreSupport/core_cm3.h **** #define __WFE                             __wfe
 771:/home/oni/workspace/Naze32/lib/CMSIS/CM3/CoreSupport/core_cm3.h **** #define __SEV                             __sev
 772:/home/oni/workspace/Naze32/lib/CMSIS/CM3/CoreSupport/core_cm3.h **** #define __ISB()                           __isb(0)
 773:/home/oni/workspace/Naze32/lib/CMSIS/CM3/CoreSupport/core_cm3.h **** #define __DSB()                           __dsb(0)
 774:/home/oni/workspace/Naze32/lib/CMSIS/CM3/CoreSupport/core_cm3.h **** #define __DMB()                           __dmb(0)
 775:/home/oni/workspace/Naze32/lib/CMSIS/CM3/CoreSupport/core_cm3.h **** #define __REV                             __rev
 776:/home/oni/workspace/Naze32/lib/CMSIS/CM3/CoreSupport/core_cm3.h **** #define __RBIT                            __rbit
 777:/home/oni/workspace/Naze32/lib/CMSIS/CM3/CoreSupport/core_cm3.h **** #define __LDREXB(ptr)                     ((unsigned char ) __ldrex(ptr))
 778:/home/oni/workspace/Naze32/lib/CMSIS/CM3/CoreSupport/core_cm3.h **** #define __LDREXH(ptr)                     ((unsigned short) __ldrex(ptr))
 779:/home/oni/workspace/Naze32/lib/CMSIS/CM3/CoreSupport/core_cm3.h **** #define __LDREXW(ptr)                     ((unsigned int  ) __ldrex(ptr))
 780:/home/oni/workspace/Naze32/lib/CMSIS/CM3/CoreSupport/core_cm3.h **** #define __STREXB(value, ptr)              __strex(value, ptr)
 781:/home/oni/workspace/Naze32/lib/CMSIS/CM3/CoreSupport/core_cm3.h **** #define __STREXH(value, ptr)              __strex(value, ptr)
 782:/home/oni/workspace/Naze32/lib/CMSIS/CM3/CoreSupport/core_cm3.h **** #define __STREXW(value, ptr)              __strex(value, ptr)
 783:/home/oni/workspace/Naze32/lib/CMSIS/CM3/CoreSupport/core_cm3.h **** 
 784:/home/oni/workspace/Naze32/lib/CMSIS/CM3/CoreSupport/core_cm3.h **** 
 785:/home/oni/workspace/Naze32/lib/CMSIS/CM3/CoreSupport/core_cm3.h **** /* intrinsic unsigned long long __ldrexd(volatile void *ptr) */
 786:/home/oni/workspace/Naze32/lib/CMSIS/CM3/CoreSupport/core_cm3.h **** /* intrinsic int __strexd(unsigned long long val, volatile void *ptr) */
 787:/home/oni/workspace/Naze32/lib/CMSIS/CM3/CoreSupport/core_cm3.h **** /* intrinsic void __enable_irq();     */
 788:/home/oni/workspace/Naze32/lib/CMSIS/CM3/CoreSupport/core_cm3.h **** /* intrinsic void __disable_irq();    */
 789:/home/oni/workspace/Naze32/lib/CMSIS/CM3/CoreSupport/core_cm3.h **** 
 790:/home/oni/workspace/Naze32/lib/CMSIS/CM3/CoreSupport/core_cm3.h **** 
 791:/home/oni/workspace/Naze32/lib/CMSIS/CM3/CoreSupport/core_cm3.h **** /**
 792:/home/oni/workspace/Naze32/lib/CMSIS/CM3/CoreSupport/core_cm3.h ****  * @brief  Return the Process Stack Pointer
 793:/home/oni/workspace/Naze32/lib/CMSIS/CM3/CoreSupport/core_cm3.h ****  *
 794:/home/oni/workspace/Naze32/lib/CMSIS/CM3/CoreSupport/core_cm3.h ****  * @return ProcessStackPointer
 795:/home/oni/workspace/Naze32/lib/CMSIS/CM3/CoreSupport/core_cm3.h ****  *
 796:/home/oni/workspace/Naze32/lib/CMSIS/CM3/CoreSupport/core_cm3.h ****  * Return the actual process stack pointer
 797:/home/oni/workspace/Naze32/lib/CMSIS/CM3/CoreSupport/core_cm3.h ****  */
 798:/home/oni/workspace/Naze32/lib/CMSIS/CM3/CoreSupport/core_cm3.h **** extern uint32_t __get_PSP(void);
 799:/home/oni/workspace/Naze32/lib/CMSIS/CM3/CoreSupport/core_cm3.h **** 
 800:/home/oni/workspace/Naze32/lib/CMSIS/CM3/CoreSupport/core_cm3.h **** /**
 801:/home/oni/workspace/Naze32/lib/CMSIS/CM3/CoreSupport/core_cm3.h ****  * @brief  Set the Process Stack Pointer
 802:/home/oni/workspace/Naze32/lib/CMSIS/CM3/CoreSupport/core_cm3.h ****  *
 803:/home/oni/workspace/Naze32/lib/CMSIS/CM3/CoreSupport/core_cm3.h ****  * @param  topOfProcStack  Process Stack Pointer
 804:/home/oni/workspace/Naze32/lib/CMSIS/CM3/CoreSupport/core_cm3.h ****  *
 805:/home/oni/workspace/Naze32/lib/CMSIS/CM3/CoreSupport/core_cm3.h ****  * Assign the value ProcessStackPointer to the MSP 
 806:/home/oni/workspace/Naze32/lib/CMSIS/CM3/CoreSupport/core_cm3.h ****  * (process stack pointer) Cortex processor register
 807:/home/oni/workspace/Naze32/lib/CMSIS/CM3/CoreSupport/core_cm3.h ****  */
 808:/home/oni/workspace/Naze32/lib/CMSIS/CM3/CoreSupport/core_cm3.h **** extern void __set_PSP(uint32_t topOfProcStack);
 809:/home/oni/workspace/Naze32/lib/CMSIS/CM3/CoreSupport/core_cm3.h **** 
 810:/home/oni/workspace/Naze32/lib/CMSIS/CM3/CoreSupport/core_cm3.h **** /**
 811:/home/oni/workspace/Naze32/lib/CMSIS/CM3/CoreSupport/core_cm3.h ****  * @brief  Return the Main Stack Pointer
 812:/home/oni/workspace/Naze32/lib/CMSIS/CM3/CoreSupport/core_cm3.h ****  *
 813:/home/oni/workspace/Naze32/lib/CMSIS/CM3/CoreSupport/core_cm3.h ****  * @return Main Stack Pointer
 814:/home/oni/workspace/Naze32/lib/CMSIS/CM3/CoreSupport/core_cm3.h ****  *
 815:/home/oni/workspace/Naze32/lib/CMSIS/CM3/CoreSupport/core_cm3.h ****  * Return the current value of the MSP (main stack pointer)
 816:/home/oni/workspace/Naze32/lib/CMSIS/CM3/CoreSupport/core_cm3.h ****  * Cortex processor register
 817:/home/oni/workspace/Naze32/lib/CMSIS/CM3/CoreSupport/core_cm3.h ****  */
 818:/home/oni/workspace/Naze32/lib/CMSIS/CM3/CoreSupport/core_cm3.h **** extern uint32_t __get_MSP(void);
 819:/home/oni/workspace/Naze32/lib/CMSIS/CM3/CoreSupport/core_cm3.h **** 
 820:/home/oni/workspace/Naze32/lib/CMSIS/CM3/CoreSupport/core_cm3.h **** /**
 821:/home/oni/workspace/Naze32/lib/CMSIS/CM3/CoreSupport/core_cm3.h ****  * @brief  Set the Main Stack Pointer
 822:/home/oni/workspace/Naze32/lib/CMSIS/CM3/CoreSupport/core_cm3.h ****  *
 823:/home/oni/workspace/Naze32/lib/CMSIS/CM3/CoreSupport/core_cm3.h ****  * @param  topOfMainStack  Main Stack Pointer
 824:/home/oni/workspace/Naze32/lib/CMSIS/CM3/CoreSupport/core_cm3.h ****  *
 825:/home/oni/workspace/Naze32/lib/CMSIS/CM3/CoreSupport/core_cm3.h ****  * Assign the value mainStackPointer to the MSP 
 826:/home/oni/workspace/Naze32/lib/CMSIS/CM3/CoreSupport/core_cm3.h ****  * (main stack pointer) Cortex processor register
 827:/home/oni/workspace/Naze32/lib/CMSIS/CM3/CoreSupport/core_cm3.h ****  */
 828:/home/oni/workspace/Naze32/lib/CMSIS/CM3/CoreSupport/core_cm3.h **** extern void __set_MSP(uint32_t topOfMainStack);
 829:/home/oni/workspace/Naze32/lib/CMSIS/CM3/CoreSupport/core_cm3.h **** 
 830:/home/oni/workspace/Naze32/lib/CMSIS/CM3/CoreSupport/core_cm3.h **** /**
 831:/home/oni/workspace/Naze32/lib/CMSIS/CM3/CoreSupport/core_cm3.h ****  * @brief  Reverse byte order in unsigned short value
 832:/home/oni/workspace/Naze32/lib/CMSIS/CM3/CoreSupport/core_cm3.h ****  *
 833:/home/oni/workspace/Naze32/lib/CMSIS/CM3/CoreSupport/core_cm3.h ****  * @param   value  value to reverse
 834:/home/oni/workspace/Naze32/lib/CMSIS/CM3/CoreSupport/core_cm3.h ****  * @return         reversed value
 835:/home/oni/workspace/Naze32/lib/CMSIS/CM3/CoreSupport/core_cm3.h ****  *
 836:/home/oni/workspace/Naze32/lib/CMSIS/CM3/CoreSupport/core_cm3.h ****  * Reverse byte order in unsigned short value
 837:/home/oni/workspace/Naze32/lib/CMSIS/CM3/CoreSupport/core_cm3.h ****  */
 838:/home/oni/workspace/Naze32/lib/CMSIS/CM3/CoreSupport/core_cm3.h **** extern uint32_t __REV16(uint16_t value);
 839:/home/oni/workspace/Naze32/lib/CMSIS/CM3/CoreSupport/core_cm3.h **** 
 840:/home/oni/workspace/Naze32/lib/CMSIS/CM3/CoreSupport/core_cm3.h **** /**
 841:/home/oni/workspace/Naze32/lib/CMSIS/CM3/CoreSupport/core_cm3.h ****  * @brief  Reverse byte order in signed short value with sign extension to integer
 842:/home/oni/workspace/Naze32/lib/CMSIS/CM3/CoreSupport/core_cm3.h ****  *
 843:/home/oni/workspace/Naze32/lib/CMSIS/CM3/CoreSupport/core_cm3.h ****  * @param   value  value to reverse
 844:/home/oni/workspace/Naze32/lib/CMSIS/CM3/CoreSupport/core_cm3.h ****  * @return         reversed value
 845:/home/oni/workspace/Naze32/lib/CMSIS/CM3/CoreSupport/core_cm3.h ****  *
 846:/home/oni/workspace/Naze32/lib/CMSIS/CM3/CoreSupport/core_cm3.h ****  * Reverse byte order in signed short value with sign extension to integer
 847:/home/oni/workspace/Naze32/lib/CMSIS/CM3/CoreSupport/core_cm3.h ****  */
 848:/home/oni/workspace/Naze32/lib/CMSIS/CM3/CoreSupport/core_cm3.h **** extern int32_t __REVSH(int16_t value);
 849:/home/oni/workspace/Naze32/lib/CMSIS/CM3/CoreSupport/core_cm3.h **** 
 850:/home/oni/workspace/Naze32/lib/CMSIS/CM3/CoreSupport/core_cm3.h **** 
 851:/home/oni/workspace/Naze32/lib/CMSIS/CM3/CoreSupport/core_cm3.h **** #if (__ARMCC_VERSION < 400000)
 852:/home/oni/workspace/Naze32/lib/CMSIS/CM3/CoreSupport/core_cm3.h **** 
 853:/home/oni/workspace/Naze32/lib/CMSIS/CM3/CoreSupport/core_cm3.h **** /**
 854:/home/oni/workspace/Naze32/lib/CMSIS/CM3/CoreSupport/core_cm3.h ****  * @brief  Remove the exclusive lock created by ldrex
 855:/home/oni/workspace/Naze32/lib/CMSIS/CM3/CoreSupport/core_cm3.h ****  *
 856:/home/oni/workspace/Naze32/lib/CMSIS/CM3/CoreSupport/core_cm3.h ****  * Removes the exclusive lock which is created by ldrex.
 857:/home/oni/workspace/Naze32/lib/CMSIS/CM3/CoreSupport/core_cm3.h ****  */
 858:/home/oni/workspace/Naze32/lib/CMSIS/CM3/CoreSupport/core_cm3.h **** extern void __CLREX(void);
 859:/home/oni/workspace/Naze32/lib/CMSIS/CM3/CoreSupport/core_cm3.h **** 
 860:/home/oni/workspace/Naze32/lib/CMSIS/CM3/CoreSupport/core_cm3.h **** /**
 861:/home/oni/workspace/Naze32/lib/CMSIS/CM3/CoreSupport/core_cm3.h ****  * @brief  Return the Base Priority value
 862:/home/oni/workspace/Naze32/lib/CMSIS/CM3/CoreSupport/core_cm3.h ****  *
 863:/home/oni/workspace/Naze32/lib/CMSIS/CM3/CoreSupport/core_cm3.h ****  * @return BasePriority
 864:/home/oni/workspace/Naze32/lib/CMSIS/CM3/CoreSupport/core_cm3.h ****  *
 865:/home/oni/workspace/Naze32/lib/CMSIS/CM3/CoreSupport/core_cm3.h ****  * Return the content of the base priority register
 866:/home/oni/workspace/Naze32/lib/CMSIS/CM3/CoreSupport/core_cm3.h ****  */
 867:/home/oni/workspace/Naze32/lib/CMSIS/CM3/CoreSupport/core_cm3.h **** extern uint32_t __get_BASEPRI(void);
 868:/home/oni/workspace/Naze32/lib/CMSIS/CM3/CoreSupport/core_cm3.h **** 
 869:/home/oni/workspace/Naze32/lib/CMSIS/CM3/CoreSupport/core_cm3.h **** /**
 870:/home/oni/workspace/Naze32/lib/CMSIS/CM3/CoreSupport/core_cm3.h ****  * @brief  Set the Base Priority value
 871:/home/oni/workspace/Naze32/lib/CMSIS/CM3/CoreSupport/core_cm3.h ****  *
 872:/home/oni/workspace/Naze32/lib/CMSIS/CM3/CoreSupport/core_cm3.h ****  * @param  basePri  BasePriority
 873:/home/oni/workspace/Naze32/lib/CMSIS/CM3/CoreSupport/core_cm3.h ****  *
 874:/home/oni/workspace/Naze32/lib/CMSIS/CM3/CoreSupport/core_cm3.h ****  * Set the base priority register
 875:/home/oni/workspace/Naze32/lib/CMSIS/CM3/CoreSupport/core_cm3.h ****  */
 876:/home/oni/workspace/Naze32/lib/CMSIS/CM3/CoreSupport/core_cm3.h **** extern void __set_BASEPRI(uint32_t basePri);
 877:/home/oni/workspace/Naze32/lib/CMSIS/CM3/CoreSupport/core_cm3.h **** 
 878:/home/oni/workspace/Naze32/lib/CMSIS/CM3/CoreSupport/core_cm3.h **** /**
 879:/home/oni/workspace/Naze32/lib/CMSIS/CM3/CoreSupport/core_cm3.h ****  * @brief  Return the Priority Mask value
 880:/home/oni/workspace/Naze32/lib/CMSIS/CM3/CoreSupport/core_cm3.h ****  *
 881:/home/oni/workspace/Naze32/lib/CMSIS/CM3/CoreSupport/core_cm3.h ****  * @return PriMask
 882:/home/oni/workspace/Naze32/lib/CMSIS/CM3/CoreSupport/core_cm3.h ****  *
 883:/home/oni/workspace/Naze32/lib/CMSIS/CM3/CoreSupport/core_cm3.h ****  * Return state of the priority mask bit from the priority mask register
 884:/home/oni/workspace/Naze32/lib/CMSIS/CM3/CoreSupport/core_cm3.h ****  */
 885:/home/oni/workspace/Naze32/lib/CMSIS/CM3/CoreSupport/core_cm3.h **** extern uint32_t __get_PRIMASK(void);
 886:/home/oni/workspace/Naze32/lib/CMSIS/CM3/CoreSupport/core_cm3.h **** 
 887:/home/oni/workspace/Naze32/lib/CMSIS/CM3/CoreSupport/core_cm3.h **** /**
 888:/home/oni/workspace/Naze32/lib/CMSIS/CM3/CoreSupport/core_cm3.h ****  * @brief  Set the Priority Mask value
 889:/home/oni/workspace/Naze32/lib/CMSIS/CM3/CoreSupport/core_cm3.h ****  *
 890:/home/oni/workspace/Naze32/lib/CMSIS/CM3/CoreSupport/core_cm3.h ****  * @param   priMask  PriMask
 891:/home/oni/workspace/Naze32/lib/CMSIS/CM3/CoreSupport/core_cm3.h ****  *
 892:/home/oni/workspace/Naze32/lib/CMSIS/CM3/CoreSupport/core_cm3.h ****  * Set the priority mask bit in the priority mask register
 893:/home/oni/workspace/Naze32/lib/CMSIS/CM3/CoreSupport/core_cm3.h ****  */
 894:/home/oni/workspace/Naze32/lib/CMSIS/CM3/CoreSupport/core_cm3.h **** extern void __set_PRIMASK(uint32_t priMask);
 895:/home/oni/workspace/Naze32/lib/CMSIS/CM3/CoreSupport/core_cm3.h **** 
 896:/home/oni/workspace/Naze32/lib/CMSIS/CM3/CoreSupport/core_cm3.h **** /**
 897:/home/oni/workspace/Naze32/lib/CMSIS/CM3/CoreSupport/core_cm3.h ****  * @brief  Return the Fault Mask value
 898:/home/oni/workspace/Naze32/lib/CMSIS/CM3/CoreSupport/core_cm3.h ****  *
 899:/home/oni/workspace/Naze32/lib/CMSIS/CM3/CoreSupport/core_cm3.h ****  * @return FaultMask
 900:/home/oni/workspace/Naze32/lib/CMSIS/CM3/CoreSupport/core_cm3.h ****  *
 901:/home/oni/workspace/Naze32/lib/CMSIS/CM3/CoreSupport/core_cm3.h ****  * Return the content of the fault mask register
 902:/home/oni/workspace/Naze32/lib/CMSIS/CM3/CoreSupport/core_cm3.h ****  */
 903:/home/oni/workspace/Naze32/lib/CMSIS/CM3/CoreSupport/core_cm3.h **** extern uint32_t __get_FAULTMASK(void);
 904:/home/oni/workspace/Naze32/lib/CMSIS/CM3/CoreSupport/core_cm3.h **** 
 905:/home/oni/workspace/Naze32/lib/CMSIS/CM3/CoreSupport/core_cm3.h **** /**
 906:/home/oni/workspace/Naze32/lib/CMSIS/CM3/CoreSupport/core_cm3.h ****  * @brief  Set the Fault Mask value
 907:/home/oni/workspace/Naze32/lib/CMSIS/CM3/CoreSupport/core_cm3.h ****  *
 908:/home/oni/workspace/Naze32/lib/CMSIS/CM3/CoreSupport/core_cm3.h ****  * @param  faultMask faultMask value
 909:/home/oni/workspace/Naze32/lib/CMSIS/CM3/CoreSupport/core_cm3.h ****  *
 910:/home/oni/workspace/Naze32/lib/CMSIS/CM3/CoreSupport/core_cm3.h ****  * Set the fault mask register
 911:/home/oni/workspace/Naze32/lib/CMSIS/CM3/CoreSupport/core_cm3.h ****  */
 912:/home/oni/workspace/Naze32/lib/CMSIS/CM3/CoreSupport/core_cm3.h **** extern void __set_FAULTMASK(uint32_t faultMask);
 913:/home/oni/workspace/Naze32/lib/CMSIS/CM3/CoreSupport/core_cm3.h **** 
 914:/home/oni/workspace/Naze32/lib/CMSIS/CM3/CoreSupport/core_cm3.h **** /**
 915:/home/oni/workspace/Naze32/lib/CMSIS/CM3/CoreSupport/core_cm3.h ****  * @brief  Return the Control Register value
 916:/home/oni/workspace/Naze32/lib/CMSIS/CM3/CoreSupport/core_cm3.h ****  * 
 917:/home/oni/workspace/Naze32/lib/CMSIS/CM3/CoreSupport/core_cm3.h ****  * @return Control value
 918:/home/oni/workspace/Naze32/lib/CMSIS/CM3/CoreSupport/core_cm3.h ****  *
 919:/home/oni/workspace/Naze32/lib/CMSIS/CM3/CoreSupport/core_cm3.h ****  * Return the content of the control register
 920:/home/oni/workspace/Naze32/lib/CMSIS/CM3/CoreSupport/core_cm3.h ****  */
 921:/home/oni/workspace/Naze32/lib/CMSIS/CM3/CoreSupport/core_cm3.h **** extern uint32_t __get_CONTROL(void);
 922:/home/oni/workspace/Naze32/lib/CMSIS/CM3/CoreSupport/core_cm3.h **** 
 923:/home/oni/workspace/Naze32/lib/CMSIS/CM3/CoreSupport/core_cm3.h **** /**
 924:/home/oni/workspace/Naze32/lib/CMSIS/CM3/CoreSupport/core_cm3.h ****  * @brief  Set the Control Register value
 925:/home/oni/workspace/Naze32/lib/CMSIS/CM3/CoreSupport/core_cm3.h ****  *
 926:/home/oni/workspace/Naze32/lib/CMSIS/CM3/CoreSupport/core_cm3.h ****  * @param  control  Control value
 927:/home/oni/workspace/Naze32/lib/CMSIS/CM3/CoreSupport/core_cm3.h ****  *
 928:/home/oni/workspace/Naze32/lib/CMSIS/CM3/CoreSupport/core_cm3.h ****  * Set the control register
 929:/home/oni/workspace/Naze32/lib/CMSIS/CM3/CoreSupport/core_cm3.h ****  */
 930:/home/oni/workspace/Naze32/lib/CMSIS/CM3/CoreSupport/core_cm3.h **** extern void __set_CONTROL(uint32_t control);
 931:/home/oni/workspace/Naze32/lib/CMSIS/CM3/CoreSupport/core_cm3.h **** 
 932:/home/oni/workspace/Naze32/lib/CMSIS/CM3/CoreSupport/core_cm3.h **** #else  /* (__ARMCC_VERSION >= 400000)  */
 933:/home/oni/workspace/Naze32/lib/CMSIS/CM3/CoreSupport/core_cm3.h **** 
 934:/home/oni/workspace/Naze32/lib/CMSIS/CM3/CoreSupport/core_cm3.h **** /**
 935:/home/oni/workspace/Naze32/lib/CMSIS/CM3/CoreSupport/core_cm3.h ****  * @brief  Remove the exclusive lock created by ldrex
 936:/home/oni/workspace/Naze32/lib/CMSIS/CM3/CoreSupport/core_cm3.h ****  *
 937:/home/oni/workspace/Naze32/lib/CMSIS/CM3/CoreSupport/core_cm3.h ****  * Removes the exclusive lock which is created by ldrex.
 938:/home/oni/workspace/Naze32/lib/CMSIS/CM3/CoreSupport/core_cm3.h ****  */
 939:/home/oni/workspace/Naze32/lib/CMSIS/CM3/CoreSupport/core_cm3.h **** #define __CLREX                           __clrex
 940:/home/oni/workspace/Naze32/lib/CMSIS/CM3/CoreSupport/core_cm3.h **** 
 941:/home/oni/workspace/Naze32/lib/CMSIS/CM3/CoreSupport/core_cm3.h **** /**
 942:/home/oni/workspace/Naze32/lib/CMSIS/CM3/CoreSupport/core_cm3.h ****  * @brief  Return the Base Priority value
 943:/home/oni/workspace/Naze32/lib/CMSIS/CM3/CoreSupport/core_cm3.h ****  *
 944:/home/oni/workspace/Naze32/lib/CMSIS/CM3/CoreSupport/core_cm3.h ****  * @return BasePriority
 945:/home/oni/workspace/Naze32/lib/CMSIS/CM3/CoreSupport/core_cm3.h ****  *
 946:/home/oni/workspace/Naze32/lib/CMSIS/CM3/CoreSupport/core_cm3.h ****  * Return the content of the base priority register
 947:/home/oni/workspace/Naze32/lib/CMSIS/CM3/CoreSupport/core_cm3.h ****  */
 948:/home/oni/workspace/Naze32/lib/CMSIS/CM3/CoreSupport/core_cm3.h **** static __INLINE uint32_t  __get_BASEPRI(void)
 949:/home/oni/workspace/Naze32/lib/CMSIS/CM3/CoreSupport/core_cm3.h **** {
 950:/home/oni/workspace/Naze32/lib/CMSIS/CM3/CoreSupport/core_cm3.h ****   register uint32_t __regBasePri         __ASM("basepri");
 951:/home/oni/workspace/Naze32/lib/CMSIS/CM3/CoreSupport/core_cm3.h ****   return(__regBasePri);
 952:/home/oni/workspace/Naze32/lib/CMSIS/CM3/CoreSupport/core_cm3.h **** }
 953:/home/oni/workspace/Naze32/lib/CMSIS/CM3/CoreSupport/core_cm3.h **** 
 954:/home/oni/workspace/Naze32/lib/CMSIS/CM3/CoreSupport/core_cm3.h **** /**
 955:/home/oni/workspace/Naze32/lib/CMSIS/CM3/CoreSupport/core_cm3.h ****  * @brief  Set the Base Priority value
 956:/home/oni/workspace/Naze32/lib/CMSIS/CM3/CoreSupport/core_cm3.h ****  *
 957:/home/oni/workspace/Naze32/lib/CMSIS/CM3/CoreSupport/core_cm3.h ****  * @param  basePri  BasePriority
 958:/home/oni/workspace/Naze32/lib/CMSIS/CM3/CoreSupport/core_cm3.h ****  *
 959:/home/oni/workspace/Naze32/lib/CMSIS/CM3/CoreSupport/core_cm3.h ****  * Set the base priority register
 960:/home/oni/workspace/Naze32/lib/CMSIS/CM3/CoreSupport/core_cm3.h ****  */
 961:/home/oni/workspace/Naze32/lib/CMSIS/CM3/CoreSupport/core_cm3.h **** static __INLINE void __set_BASEPRI(uint32_t basePri)
 962:/home/oni/workspace/Naze32/lib/CMSIS/CM3/CoreSupport/core_cm3.h **** {
 963:/home/oni/workspace/Naze32/lib/CMSIS/CM3/CoreSupport/core_cm3.h ****   register uint32_t __regBasePri         __ASM("basepri");
 964:/home/oni/workspace/Naze32/lib/CMSIS/CM3/CoreSupport/core_cm3.h ****   __regBasePri = (basePri & 0xff);
 965:/home/oni/workspace/Naze32/lib/CMSIS/CM3/CoreSupport/core_cm3.h **** }
 966:/home/oni/workspace/Naze32/lib/CMSIS/CM3/CoreSupport/core_cm3.h **** 
 967:/home/oni/workspace/Naze32/lib/CMSIS/CM3/CoreSupport/core_cm3.h **** /**
 968:/home/oni/workspace/Naze32/lib/CMSIS/CM3/CoreSupport/core_cm3.h ****  * @brief  Return the Priority Mask value
 969:/home/oni/workspace/Naze32/lib/CMSIS/CM3/CoreSupport/core_cm3.h ****  *
 970:/home/oni/workspace/Naze32/lib/CMSIS/CM3/CoreSupport/core_cm3.h ****  * @return PriMask
 971:/home/oni/workspace/Naze32/lib/CMSIS/CM3/CoreSupport/core_cm3.h ****  *
 972:/home/oni/workspace/Naze32/lib/CMSIS/CM3/CoreSupport/core_cm3.h ****  * Return state of the priority mask bit from the priority mask register
 973:/home/oni/workspace/Naze32/lib/CMSIS/CM3/CoreSupport/core_cm3.h ****  */
 974:/home/oni/workspace/Naze32/lib/CMSIS/CM3/CoreSupport/core_cm3.h **** static __INLINE uint32_t __get_PRIMASK(void)
 975:/home/oni/workspace/Naze32/lib/CMSIS/CM3/CoreSupport/core_cm3.h **** {
 976:/home/oni/workspace/Naze32/lib/CMSIS/CM3/CoreSupport/core_cm3.h ****   register uint32_t __regPriMask         __ASM("primask");
 977:/home/oni/workspace/Naze32/lib/CMSIS/CM3/CoreSupport/core_cm3.h ****   return(__regPriMask);
 978:/home/oni/workspace/Naze32/lib/CMSIS/CM3/CoreSupport/core_cm3.h **** }
 979:/home/oni/workspace/Naze32/lib/CMSIS/CM3/CoreSupport/core_cm3.h **** 
 980:/home/oni/workspace/Naze32/lib/CMSIS/CM3/CoreSupport/core_cm3.h **** /**
 981:/home/oni/workspace/Naze32/lib/CMSIS/CM3/CoreSupport/core_cm3.h ****  * @brief  Set the Priority Mask value
 982:/home/oni/workspace/Naze32/lib/CMSIS/CM3/CoreSupport/core_cm3.h ****  *
 983:/home/oni/workspace/Naze32/lib/CMSIS/CM3/CoreSupport/core_cm3.h ****  * @param  priMask  PriMask
 984:/home/oni/workspace/Naze32/lib/CMSIS/CM3/CoreSupport/core_cm3.h ****  *
 985:/home/oni/workspace/Naze32/lib/CMSIS/CM3/CoreSupport/core_cm3.h ****  * Set the priority mask bit in the priority mask register
 986:/home/oni/workspace/Naze32/lib/CMSIS/CM3/CoreSupport/core_cm3.h ****  */
 987:/home/oni/workspace/Naze32/lib/CMSIS/CM3/CoreSupport/core_cm3.h **** static __INLINE void __set_PRIMASK(uint32_t priMask)
 988:/home/oni/workspace/Naze32/lib/CMSIS/CM3/CoreSupport/core_cm3.h **** {
 989:/home/oni/workspace/Naze32/lib/CMSIS/CM3/CoreSupport/core_cm3.h ****   register uint32_t __regPriMask         __ASM("primask");
 990:/home/oni/workspace/Naze32/lib/CMSIS/CM3/CoreSupport/core_cm3.h ****   __regPriMask = (priMask);
 991:/home/oni/workspace/Naze32/lib/CMSIS/CM3/CoreSupport/core_cm3.h **** }
 992:/home/oni/workspace/Naze32/lib/CMSIS/CM3/CoreSupport/core_cm3.h **** 
 993:/home/oni/workspace/Naze32/lib/CMSIS/CM3/CoreSupport/core_cm3.h **** /**
 994:/home/oni/workspace/Naze32/lib/CMSIS/CM3/CoreSupport/core_cm3.h ****  * @brief  Return the Fault Mask value
 995:/home/oni/workspace/Naze32/lib/CMSIS/CM3/CoreSupport/core_cm3.h ****  *
 996:/home/oni/workspace/Naze32/lib/CMSIS/CM3/CoreSupport/core_cm3.h ****  * @return FaultMask
 997:/home/oni/workspace/Naze32/lib/CMSIS/CM3/CoreSupport/core_cm3.h ****  *
 998:/home/oni/workspace/Naze32/lib/CMSIS/CM3/CoreSupport/core_cm3.h ****  * Return the content of the fault mask register
 999:/home/oni/workspace/Naze32/lib/CMSIS/CM3/CoreSupport/core_cm3.h ****  */
1000:/home/oni/workspace/Naze32/lib/CMSIS/CM3/CoreSupport/core_cm3.h **** static __INLINE uint32_t __get_FAULTMASK(void)
1001:/home/oni/workspace/Naze32/lib/CMSIS/CM3/CoreSupport/core_cm3.h **** {
1002:/home/oni/workspace/Naze32/lib/CMSIS/CM3/CoreSupport/core_cm3.h ****   register uint32_t __regFaultMask       __ASM("faultmask");
1003:/home/oni/workspace/Naze32/lib/CMSIS/CM3/CoreSupport/core_cm3.h ****   return(__regFaultMask);
1004:/home/oni/workspace/Naze32/lib/CMSIS/CM3/CoreSupport/core_cm3.h **** }
1005:/home/oni/workspace/Naze32/lib/CMSIS/CM3/CoreSupport/core_cm3.h **** 
1006:/home/oni/workspace/Naze32/lib/CMSIS/CM3/CoreSupport/core_cm3.h **** /**
1007:/home/oni/workspace/Naze32/lib/CMSIS/CM3/CoreSupport/core_cm3.h ****  * @brief  Set the Fault Mask value
1008:/home/oni/workspace/Naze32/lib/CMSIS/CM3/CoreSupport/core_cm3.h ****  *
1009:/home/oni/workspace/Naze32/lib/CMSIS/CM3/CoreSupport/core_cm3.h ****  * @param  faultMask  faultMask value
1010:/home/oni/workspace/Naze32/lib/CMSIS/CM3/CoreSupport/core_cm3.h ****  *
1011:/home/oni/workspace/Naze32/lib/CMSIS/CM3/CoreSupport/core_cm3.h ****  * Set the fault mask register
1012:/home/oni/workspace/Naze32/lib/CMSIS/CM3/CoreSupport/core_cm3.h ****  */
1013:/home/oni/workspace/Naze32/lib/CMSIS/CM3/CoreSupport/core_cm3.h **** static __INLINE void __set_FAULTMASK(uint32_t faultMask)
1014:/home/oni/workspace/Naze32/lib/CMSIS/CM3/CoreSupport/core_cm3.h **** {
1015:/home/oni/workspace/Naze32/lib/CMSIS/CM3/CoreSupport/core_cm3.h ****   register uint32_t __regFaultMask       __ASM("faultmask");
1016:/home/oni/workspace/Naze32/lib/CMSIS/CM3/CoreSupport/core_cm3.h ****   __regFaultMask = (faultMask & 1);
1017:/home/oni/workspace/Naze32/lib/CMSIS/CM3/CoreSupport/core_cm3.h **** }
1018:/home/oni/workspace/Naze32/lib/CMSIS/CM3/CoreSupport/core_cm3.h **** 
1019:/home/oni/workspace/Naze32/lib/CMSIS/CM3/CoreSupport/core_cm3.h **** /**
1020:/home/oni/workspace/Naze32/lib/CMSIS/CM3/CoreSupport/core_cm3.h ****  * @brief  Return the Control Register value
1021:/home/oni/workspace/Naze32/lib/CMSIS/CM3/CoreSupport/core_cm3.h ****  * 
1022:/home/oni/workspace/Naze32/lib/CMSIS/CM3/CoreSupport/core_cm3.h ****  * @return Control value
1023:/home/oni/workspace/Naze32/lib/CMSIS/CM3/CoreSupport/core_cm3.h ****  *
1024:/home/oni/workspace/Naze32/lib/CMSIS/CM3/CoreSupport/core_cm3.h ****  * Return the content of the control register
1025:/home/oni/workspace/Naze32/lib/CMSIS/CM3/CoreSupport/core_cm3.h ****  */
1026:/home/oni/workspace/Naze32/lib/CMSIS/CM3/CoreSupport/core_cm3.h **** static __INLINE uint32_t __get_CONTROL(void)
1027:/home/oni/workspace/Naze32/lib/CMSIS/CM3/CoreSupport/core_cm3.h **** {
1028:/home/oni/workspace/Naze32/lib/CMSIS/CM3/CoreSupport/core_cm3.h ****   register uint32_t __regControl         __ASM("control");
1029:/home/oni/workspace/Naze32/lib/CMSIS/CM3/CoreSupport/core_cm3.h ****   return(__regControl);
1030:/home/oni/workspace/Naze32/lib/CMSIS/CM3/CoreSupport/core_cm3.h **** }
1031:/home/oni/workspace/Naze32/lib/CMSIS/CM3/CoreSupport/core_cm3.h **** 
1032:/home/oni/workspace/Naze32/lib/CMSIS/CM3/CoreSupport/core_cm3.h **** /**
1033:/home/oni/workspace/Naze32/lib/CMSIS/CM3/CoreSupport/core_cm3.h ****  * @brief  Set the Control Register value
1034:/home/oni/workspace/Naze32/lib/CMSIS/CM3/CoreSupport/core_cm3.h ****  *
1035:/home/oni/workspace/Naze32/lib/CMSIS/CM3/CoreSupport/core_cm3.h ****  * @param  control  Control value
1036:/home/oni/workspace/Naze32/lib/CMSIS/CM3/CoreSupport/core_cm3.h ****  *
1037:/home/oni/workspace/Naze32/lib/CMSIS/CM3/CoreSupport/core_cm3.h ****  * Set the control register
1038:/home/oni/workspace/Naze32/lib/CMSIS/CM3/CoreSupport/core_cm3.h ****  */
1039:/home/oni/workspace/Naze32/lib/CMSIS/CM3/CoreSupport/core_cm3.h **** static __INLINE void __set_CONTROL(uint32_t control)
1040:/home/oni/workspace/Naze32/lib/CMSIS/CM3/CoreSupport/core_cm3.h **** {
1041:/home/oni/workspace/Naze32/lib/CMSIS/CM3/CoreSupport/core_cm3.h ****   register uint32_t __regControl         __ASM("control");
1042:/home/oni/workspace/Naze32/lib/CMSIS/CM3/CoreSupport/core_cm3.h ****   __regControl = control;
1043:/home/oni/workspace/Naze32/lib/CMSIS/CM3/CoreSupport/core_cm3.h **** }
1044:/home/oni/workspace/Naze32/lib/CMSIS/CM3/CoreSupport/core_cm3.h **** 
1045:/home/oni/workspace/Naze32/lib/CMSIS/CM3/CoreSupport/core_cm3.h **** #endif /* __ARMCC_VERSION  */ 
1046:/home/oni/workspace/Naze32/lib/CMSIS/CM3/CoreSupport/core_cm3.h **** 
1047:/home/oni/workspace/Naze32/lib/CMSIS/CM3/CoreSupport/core_cm3.h **** 
1048:/home/oni/workspace/Naze32/lib/CMSIS/CM3/CoreSupport/core_cm3.h **** 
1049:/home/oni/workspace/Naze32/lib/CMSIS/CM3/CoreSupport/core_cm3.h **** #elif (defined (__ICCARM__)) /*------------------ ICC Compiler -------------------*/
1050:/home/oni/workspace/Naze32/lib/CMSIS/CM3/CoreSupport/core_cm3.h **** /* IAR iccarm specific functions */
1051:/home/oni/workspace/Naze32/lib/CMSIS/CM3/CoreSupport/core_cm3.h **** 
1052:/home/oni/workspace/Naze32/lib/CMSIS/CM3/CoreSupport/core_cm3.h **** #define __enable_irq                              __enable_interrupt        /*!< global Interrupt e
1053:/home/oni/workspace/Naze32/lib/CMSIS/CM3/CoreSupport/core_cm3.h **** #define __disable_irq                             __disable_interrupt       /*!< global Interrupt d
1054:/home/oni/workspace/Naze32/lib/CMSIS/CM3/CoreSupport/core_cm3.h **** 
1055:/home/oni/workspace/Naze32/lib/CMSIS/CM3/CoreSupport/core_cm3.h **** static __INLINE void __enable_fault_irq()         { __ASM ("cpsie f"); }
1056:/home/oni/workspace/Naze32/lib/CMSIS/CM3/CoreSupport/core_cm3.h **** static __INLINE void __disable_fault_irq()        { __ASM ("cpsid f"); }
1057:/home/oni/workspace/Naze32/lib/CMSIS/CM3/CoreSupport/core_cm3.h **** 
1058:/home/oni/workspace/Naze32/lib/CMSIS/CM3/CoreSupport/core_cm3.h **** #define __NOP                                     __no_operation            /*!< no operation intri
1059:/home/oni/workspace/Naze32/lib/CMSIS/CM3/CoreSupport/core_cm3.h **** static __INLINE  void __WFI()                     { __ASM ("wfi"); }
1060:/home/oni/workspace/Naze32/lib/CMSIS/CM3/CoreSupport/core_cm3.h **** static __INLINE  void __WFE()                     { __ASM ("wfe"); }
1061:/home/oni/workspace/Naze32/lib/CMSIS/CM3/CoreSupport/core_cm3.h **** static __INLINE  void __SEV()                     { __ASM ("sev"); }
1062:/home/oni/workspace/Naze32/lib/CMSIS/CM3/CoreSupport/core_cm3.h **** static __INLINE  void __CLREX()                   { __ASM ("clrex"); }
1063:/home/oni/workspace/Naze32/lib/CMSIS/CM3/CoreSupport/core_cm3.h **** 
1064:/home/oni/workspace/Naze32/lib/CMSIS/CM3/CoreSupport/core_cm3.h **** /* intrinsic void __ISB(void)                                     */
1065:/home/oni/workspace/Naze32/lib/CMSIS/CM3/CoreSupport/core_cm3.h **** /* intrinsic void __DSB(void)                                     */
1066:/home/oni/workspace/Naze32/lib/CMSIS/CM3/CoreSupport/core_cm3.h **** /* intrinsic void __DMB(void)                                     */
1067:/home/oni/workspace/Naze32/lib/CMSIS/CM3/CoreSupport/core_cm3.h **** /* intrinsic void __set_PRIMASK();                                */
1068:/home/oni/workspace/Naze32/lib/CMSIS/CM3/CoreSupport/core_cm3.h **** /* intrinsic void __get_PRIMASK();                                */
1069:/home/oni/workspace/Naze32/lib/CMSIS/CM3/CoreSupport/core_cm3.h **** /* intrinsic void __set_FAULTMASK();                              */
1070:/home/oni/workspace/Naze32/lib/CMSIS/CM3/CoreSupport/core_cm3.h **** /* intrinsic void __get_FAULTMASK();                              */
1071:/home/oni/workspace/Naze32/lib/CMSIS/CM3/CoreSupport/core_cm3.h **** /* intrinsic uint32_t __REV(uint32_t value);                      */
1072:/home/oni/workspace/Naze32/lib/CMSIS/CM3/CoreSupport/core_cm3.h **** /* intrinsic uint32_t __REVSH(uint32_t value);                    */
1073:/home/oni/workspace/Naze32/lib/CMSIS/CM3/CoreSupport/core_cm3.h **** /* intrinsic unsigned long __STREX(unsigned long, unsigned long); */
1074:/home/oni/workspace/Naze32/lib/CMSIS/CM3/CoreSupport/core_cm3.h **** /* intrinsic unsigned long __LDREX(unsigned long *);              */
1075:/home/oni/workspace/Naze32/lib/CMSIS/CM3/CoreSupport/core_cm3.h **** 
1076:/home/oni/workspace/Naze32/lib/CMSIS/CM3/CoreSupport/core_cm3.h **** 
1077:/home/oni/workspace/Naze32/lib/CMSIS/CM3/CoreSupport/core_cm3.h **** /**
1078:/home/oni/workspace/Naze32/lib/CMSIS/CM3/CoreSupport/core_cm3.h ****  * @brief  Return the Process Stack Pointer
1079:/home/oni/workspace/Naze32/lib/CMSIS/CM3/CoreSupport/core_cm3.h ****  *
1080:/home/oni/workspace/Naze32/lib/CMSIS/CM3/CoreSupport/core_cm3.h ****  * @return ProcessStackPointer
1081:/home/oni/workspace/Naze32/lib/CMSIS/CM3/CoreSupport/core_cm3.h ****  *
1082:/home/oni/workspace/Naze32/lib/CMSIS/CM3/CoreSupport/core_cm3.h ****  * Return the actual process stack pointer
1083:/home/oni/workspace/Naze32/lib/CMSIS/CM3/CoreSupport/core_cm3.h ****  */
1084:/home/oni/workspace/Naze32/lib/CMSIS/CM3/CoreSupport/core_cm3.h **** extern uint32_t __get_PSP(void);
1085:/home/oni/workspace/Naze32/lib/CMSIS/CM3/CoreSupport/core_cm3.h **** 
1086:/home/oni/workspace/Naze32/lib/CMSIS/CM3/CoreSupport/core_cm3.h **** /**
1087:/home/oni/workspace/Naze32/lib/CMSIS/CM3/CoreSupport/core_cm3.h ****  * @brief  Set the Process Stack Pointer
1088:/home/oni/workspace/Naze32/lib/CMSIS/CM3/CoreSupport/core_cm3.h ****  *
1089:/home/oni/workspace/Naze32/lib/CMSIS/CM3/CoreSupport/core_cm3.h ****  * @param  topOfProcStack  Process Stack Pointer
1090:/home/oni/workspace/Naze32/lib/CMSIS/CM3/CoreSupport/core_cm3.h ****  *
1091:/home/oni/workspace/Naze32/lib/CMSIS/CM3/CoreSupport/core_cm3.h ****  * Assign the value ProcessStackPointer to the MSP 
1092:/home/oni/workspace/Naze32/lib/CMSIS/CM3/CoreSupport/core_cm3.h ****  * (process stack pointer) Cortex processor register
1093:/home/oni/workspace/Naze32/lib/CMSIS/CM3/CoreSupport/core_cm3.h ****  */
1094:/home/oni/workspace/Naze32/lib/CMSIS/CM3/CoreSupport/core_cm3.h **** extern void __set_PSP(uint32_t topOfProcStack);
1095:/home/oni/workspace/Naze32/lib/CMSIS/CM3/CoreSupport/core_cm3.h **** 
1096:/home/oni/workspace/Naze32/lib/CMSIS/CM3/CoreSupport/core_cm3.h **** /**
1097:/home/oni/workspace/Naze32/lib/CMSIS/CM3/CoreSupport/core_cm3.h ****  * @brief  Return the Main Stack Pointer
1098:/home/oni/workspace/Naze32/lib/CMSIS/CM3/CoreSupport/core_cm3.h ****  *
1099:/home/oni/workspace/Naze32/lib/CMSIS/CM3/CoreSupport/core_cm3.h ****  * @return Main Stack Pointer
1100:/home/oni/workspace/Naze32/lib/CMSIS/CM3/CoreSupport/core_cm3.h ****  *
1101:/home/oni/workspace/Naze32/lib/CMSIS/CM3/CoreSupport/core_cm3.h ****  * Return the current value of the MSP (main stack pointer)
1102:/home/oni/workspace/Naze32/lib/CMSIS/CM3/CoreSupport/core_cm3.h ****  * Cortex processor register
1103:/home/oni/workspace/Naze32/lib/CMSIS/CM3/CoreSupport/core_cm3.h ****  */
1104:/home/oni/workspace/Naze32/lib/CMSIS/CM3/CoreSupport/core_cm3.h **** extern uint32_t __get_MSP(void);
1105:/home/oni/workspace/Naze32/lib/CMSIS/CM3/CoreSupport/core_cm3.h **** 
1106:/home/oni/workspace/Naze32/lib/CMSIS/CM3/CoreSupport/core_cm3.h **** /**
1107:/home/oni/workspace/Naze32/lib/CMSIS/CM3/CoreSupport/core_cm3.h ****  * @brief  Set the Main Stack Pointer
1108:/home/oni/workspace/Naze32/lib/CMSIS/CM3/CoreSupport/core_cm3.h ****  *
1109:/home/oni/workspace/Naze32/lib/CMSIS/CM3/CoreSupport/core_cm3.h ****  * @param  topOfMainStack  Main Stack Pointer
1110:/home/oni/workspace/Naze32/lib/CMSIS/CM3/CoreSupport/core_cm3.h ****  *
1111:/home/oni/workspace/Naze32/lib/CMSIS/CM3/CoreSupport/core_cm3.h ****  * Assign the value mainStackPointer to the MSP 
1112:/home/oni/workspace/Naze32/lib/CMSIS/CM3/CoreSupport/core_cm3.h ****  * (main stack pointer) Cortex processor register
1113:/home/oni/workspace/Naze32/lib/CMSIS/CM3/CoreSupport/core_cm3.h ****  */
1114:/home/oni/workspace/Naze32/lib/CMSIS/CM3/CoreSupport/core_cm3.h **** extern void __set_MSP(uint32_t topOfMainStack);
1115:/home/oni/workspace/Naze32/lib/CMSIS/CM3/CoreSupport/core_cm3.h **** 
1116:/home/oni/workspace/Naze32/lib/CMSIS/CM3/CoreSupport/core_cm3.h **** /**
1117:/home/oni/workspace/Naze32/lib/CMSIS/CM3/CoreSupport/core_cm3.h ****  * @brief  Reverse byte order in unsigned short value
1118:/home/oni/workspace/Naze32/lib/CMSIS/CM3/CoreSupport/core_cm3.h ****  *
1119:/home/oni/workspace/Naze32/lib/CMSIS/CM3/CoreSupport/core_cm3.h ****  * @param  value  value to reverse
1120:/home/oni/workspace/Naze32/lib/CMSIS/CM3/CoreSupport/core_cm3.h ****  * @return        reversed value
1121:/home/oni/workspace/Naze32/lib/CMSIS/CM3/CoreSupport/core_cm3.h ****  *
1122:/home/oni/workspace/Naze32/lib/CMSIS/CM3/CoreSupport/core_cm3.h ****  * Reverse byte order in unsigned short value
1123:/home/oni/workspace/Naze32/lib/CMSIS/CM3/CoreSupport/core_cm3.h ****  */
1124:/home/oni/workspace/Naze32/lib/CMSIS/CM3/CoreSupport/core_cm3.h **** extern uint32_t __REV16(uint16_t value);
1125:/home/oni/workspace/Naze32/lib/CMSIS/CM3/CoreSupport/core_cm3.h **** 
1126:/home/oni/workspace/Naze32/lib/CMSIS/CM3/CoreSupport/core_cm3.h **** /**
1127:/home/oni/workspace/Naze32/lib/CMSIS/CM3/CoreSupport/core_cm3.h ****  * @brief  Reverse bit order of value
1128:/home/oni/workspace/Naze32/lib/CMSIS/CM3/CoreSupport/core_cm3.h ****  *
1129:/home/oni/workspace/Naze32/lib/CMSIS/CM3/CoreSupport/core_cm3.h ****  * @param  value  value to reverse
1130:/home/oni/workspace/Naze32/lib/CMSIS/CM3/CoreSupport/core_cm3.h ****  * @return        reversed value
1131:/home/oni/workspace/Naze32/lib/CMSIS/CM3/CoreSupport/core_cm3.h ****  *
1132:/home/oni/workspace/Naze32/lib/CMSIS/CM3/CoreSupport/core_cm3.h ****  * Reverse bit order of value
1133:/home/oni/workspace/Naze32/lib/CMSIS/CM3/CoreSupport/core_cm3.h ****  */
1134:/home/oni/workspace/Naze32/lib/CMSIS/CM3/CoreSupport/core_cm3.h **** extern uint32_t __RBIT(uint32_t value);
1135:/home/oni/workspace/Naze32/lib/CMSIS/CM3/CoreSupport/core_cm3.h **** 
1136:/home/oni/workspace/Naze32/lib/CMSIS/CM3/CoreSupport/core_cm3.h **** /**
1137:/home/oni/workspace/Naze32/lib/CMSIS/CM3/CoreSupport/core_cm3.h ****  * @brief  LDR Exclusive (8 bit)
1138:/home/oni/workspace/Naze32/lib/CMSIS/CM3/CoreSupport/core_cm3.h ****  *
1139:/home/oni/workspace/Naze32/lib/CMSIS/CM3/CoreSupport/core_cm3.h ****  * @param  *addr  address pointer
1140:/home/oni/workspace/Naze32/lib/CMSIS/CM3/CoreSupport/core_cm3.h ****  * @return        value of (*address)
1141:/home/oni/workspace/Naze32/lib/CMSIS/CM3/CoreSupport/core_cm3.h ****  *
1142:/home/oni/workspace/Naze32/lib/CMSIS/CM3/CoreSupport/core_cm3.h ****  * Exclusive LDR command for 8 bit values)
1143:/home/oni/workspace/Naze32/lib/CMSIS/CM3/CoreSupport/core_cm3.h ****  */
1144:/home/oni/workspace/Naze32/lib/CMSIS/CM3/CoreSupport/core_cm3.h **** extern uint8_t __LDREXB(uint8_t *addr);
1145:/home/oni/workspace/Naze32/lib/CMSIS/CM3/CoreSupport/core_cm3.h **** 
1146:/home/oni/workspace/Naze32/lib/CMSIS/CM3/CoreSupport/core_cm3.h **** /**
1147:/home/oni/workspace/Naze32/lib/CMSIS/CM3/CoreSupport/core_cm3.h ****  * @brief  LDR Exclusive (16 bit)
1148:/home/oni/workspace/Naze32/lib/CMSIS/CM3/CoreSupport/core_cm3.h ****  *
1149:/home/oni/workspace/Naze32/lib/CMSIS/CM3/CoreSupport/core_cm3.h ****  * @param  *addr  address pointer
1150:/home/oni/workspace/Naze32/lib/CMSIS/CM3/CoreSupport/core_cm3.h ****  * @return        value of (*address)
1151:/home/oni/workspace/Naze32/lib/CMSIS/CM3/CoreSupport/core_cm3.h ****  *
1152:/home/oni/workspace/Naze32/lib/CMSIS/CM3/CoreSupport/core_cm3.h ****  * Exclusive LDR command for 16 bit values
1153:/home/oni/workspace/Naze32/lib/CMSIS/CM3/CoreSupport/core_cm3.h ****  */
1154:/home/oni/workspace/Naze32/lib/CMSIS/CM3/CoreSupport/core_cm3.h **** extern uint16_t __LDREXH(uint16_t *addr);
1155:/home/oni/workspace/Naze32/lib/CMSIS/CM3/CoreSupport/core_cm3.h **** 
1156:/home/oni/workspace/Naze32/lib/CMSIS/CM3/CoreSupport/core_cm3.h **** /**
1157:/home/oni/workspace/Naze32/lib/CMSIS/CM3/CoreSupport/core_cm3.h ****  * @brief  LDR Exclusive (32 bit)
1158:/home/oni/workspace/Naze32/lib/CMSIS/CM3/CoreSupport/core_cm3.h ****  *
1159:/home/oni/workspace/Naze32/lib/CMSIS/CM3/CoreSupport/core_cm3.h ****  * @param  *addr  address pointer
1160:/home/oni/workspace/Naze32/lib/CMSIS/CM3/CoreSupport/core_cm3.h ****  * @return        value of (*address)
1161:/home/oni/workspace/Naze32/lib/CMSIS/CM3/CoreSupport/core_cm3.h ****  *
1162:/home/oni/workspace/Naze32/lib/CMSIS/CM3/CoreSupport/core_cm3.h ****  * Exclusive LDR command for 32 bit values
1163:/home/oni/workspace/Naze32/lib/CMSIS/CM3/CoreSupport/core_cm3.h ****  */
1164:/home/oni/workspace/Naze32/lib/CMSIS/CM3/CoreSupport/core_cm3.h **** extern uint32_t __LDREXW(uint32_t *addr);
1165:/home/oni/workspace/Naze32/lib/CMSIS/CM3/CoreSupport/core_cm3.h **** 
1166:/home/oni/workspace/Naze32/lib/CMSIS/CM3/CoreSupport/core_cm3.h **** /**
1167:/home/oni/workspace/Naze32/lib/CMSIS/CM3/CoreSupport/core_cm3.h ****  * @brief  STR Exclusive (8 bit)
1168:/home/oni/workspace/Naze32/lib/CMSIS/CM3/CoreSupport/core_cm3.h ****  *
1169:/home/oni/workspace/Naze32/lib/CMSIS/CM3/CoreSupport/core_cm3.h ****  * @param  value  value to store
1170:/home/oni/workspace/Naze32/lib/CMSIS/CM3/CoreSupport/core_cm3.h ****  * @param  *addr  address pointer
1171:/home/oni/workspace/Naze32/lib/CMSIS/CM3/CoreSupport/core_cm3.h ****  * @return        successful / failed
1172:/home/oni/workspace/Naze32/lib/CMSIS/CM3/CoreSupport/core_cm3.h ****  *
1173:/home/oni/workspace/Naze32/lib/CMSIS/CM3/CoreSupport/core_cm3.h ****  * Exclusive STR command for 8 bit values
1174:/home/oni/workspace/Naze32/lib/CMSIS/CM3/CoreSupport/core_cm3.h ****  */
1175:/home/oni/workspace/Naze32/lib/CMSIS/CM3/CoreSupport/core_cm3.h **** extern uint32_t __STREXB(uint8_t value, uint8_t *addr);
1176:/home/oni/workspace/Naze32/lib/CMSIS/CM3/CoreSupport/core_cm3.h **** 
1177:/home/oni/workspace/Naze32/lib/CMSIS/CM3/CoreSupport/core_cm3.h **** /**
1178:/home/oni/workspace/Naze32/lib/CMSIS/CM3/CoreSupport/core_cm3.h ****  * @brief  STR Exclusive (16 bit)
1179:/home/oni/workspace/Naze32/lib/CMSIS/CM3/CoreSupport/core_cm3.h ****  *
1180:/home/oni/workspace/Naze32/lib/CMSIS/CM3/CoreSupport/core_cm3.h ****  * @param  value  value to store
1181:/home/oni/workspace/Naze32/lib/CMSIS/CM3/CoreSupport/core_cm3.h ****  * @param  *addr  address pointer
1182:/home/oni/workspace/Naze32/lib/CMSIS/CM3/CoreSupport/core_cm3.h ****  * @return        successful / failed
1183:/home/oni/workspace/Naze32/lib/CMSIS/CM3/CoreSupport/core_cm3.h ****  *
1184:/home/oni/workspace/Naze32/lib/CMSIS/CM3/CoreSupport/core_cm3.h ****  * Exclusive STR command for 16 bit values
1185:/home/oni/workspace/Naze32/lib/CMSIS/CM3/CoreSupport/core_cm3.h ****  */
1186:/home/oni/workspace/Naze32/lib/CMSIS/CM3/CoreSupport/core_cm3.h **** extern uint32_t __STREXH(uint16_t value, uint16_t *addr);
1187:/home/oni/workspace/Naze32/lib/CMSIS/CM3/CoreSupport/core_cm3.h **** 
1188:/home/oni/workspace/Naze32/lib/CMSIS/CM3/CoreSupport/core_cm3.h **** /**
1189:/home/oni/workspace/Naze32/lib/CMSIS/CM3/CoreSupport/core_cm3.h ****  * @brief  STR Exclusive (32 bit)
1190:/home/oni/workspace/Naze32/lib/CMSIS/CM3/CoreSupport/core_cm3.h ****  *
1191:/home/oni/workspace/Naze32/lib/CMSIS/CM3/CoreSupport/core_cm3.h ****  * @param  value  value to store
1192:/home/oni/workspace/Naze32/lib/CMSIS/CM3/CoreSupport/core_cm3.h ****  * @param  *addr  address pointer
1193:/home/oni/workspace/Naze32/lib/CMSIS/CM3/CoreSupport/core_cm3.h ****  * @return        successful / failed
1194:/home/oni/workspace/Naze32/lib/CMSIS/CM3/CoreSupport/core_cm3.h ****  *
1195:/home/oni/workspace/Naze32/lib/CMSIS/CM3/CoreSupport/core_cm3.h ****  * Exclusive STR command for 32 bit values
1196:/home/oni/workspace/Naze32/lib/CMSIS/CM3/CoreSupport/core_cm3.h ****  */
1197:/home/oni/workspace/Naze32/lib/CMSIS/CM3/CoreSupport/core_cm3.h **** extern uint32_t __STREXW(uint32_t value, uint32_t *addr);
1198:/home/oni/workspace/Naze32/lib/CMSIS/CM3/CoreSupport/core_cm3.h **** 
1199:/home/oni/workspace/Naze32/lib/CMSIS/CM3/CoreSupport/core_cm3.h **** 
1200:/home/oni/workspace/Naze32/lib/CMSIS/CM3/CoreSupport/core_cm3.h **** 
1201:/home/oni/workspace/Naze32/lib/CMSIS/CM3/CoreSupport/core_cm3.h **** #elif (defined (__GNUC__)) /*------------------ GNU Compiler ---------------------*/
1202:/home/oni/workspace/Naze32/lib/CMSIS/CM3/CoreSupport/core_cm3.h **** /* GNU gcc specific functions */
1203:/home/oni/workspace/Naze32/lib/CMSIS/CM3/CoreSupport/core_cm3.h **** 
1204:/home/oni/workspace/Naze32/lib/CMSIS/CM3/CoreSupport/core_cm3.h **** static __INLINE void __enable_irq()               { __ASM volatile ("cpsie i"); }
1205:/home/oni/workspace/Naze32/lib/CMSIS/CM3/CoreSupport/core_cm3.h **** static __INLINE void __disable_irq()              { __ASM volatile ("cpsid i"); }
1206:/home/oni/workspace/Naze32/lib/CMSIS/CM3/CoreSupport/core_cm3.h **** 
1207:/home/oni/workspace/Naze32/lib/CMSIS/CM3/CoreSupport/core_cm3.h **** static __INLINE void __enable_fault_irq()         { __ASM volatile ("cpsie f"); }
1208:/home/oni/workspace/Naze32/lib/CMSIS/CM3/CoreSupport/core_cm3.h **** static __INLINE void __disable_fault_irq()        { __ASM volatile ("cpsid f"); }
1209:/home/oni/workspace/Naze32/lib/CMSIS/CM3/CoreSupport/core_cm3.h **** 
1210:/home/oni/workspace/Naze32/lib/CMSIS/CM3/CoreSupport/core_cm3.h **** static __INLINE void __NOP()                      { __ASM volatile ("nop"); }
1211:/home/oni/workspace/Naze32/lib/CMSIS/CM3/CoreSupport/core_cm3.h **** static __INLINE void __WFI()                      { __ASM volatile ("wfi"); }
1212:/home/oni/workspace/Naze32/lib/CMSIS/CM3/CoreSupport/core_cm3.h **** static __INLINE void __WFE()                      { __ASM volatile ("wfe"); }
1213:/home/oni/workspace/Naze32/lib/CMSIS/CM3/CoreSupport/core_cm3.h **** static __INLINE void __SEV()                      { __ASM volatile ("sev"); }
1214:/home/oni/workspace/Naze32/lib/CMSIS/CM3/CoreSupport/core_cm3.h **** static __INLINE void __ISB()                      { __ASM volatile ("isb"); }
1215:/home/oni/workspace/Naze32/lib/CMSIS/CM3/CoreSupport/core_cm3.h **** static __INLINE void __DSB()                      { __ASM volatile ("dsb"); }
1216:/home/oni/workspace/Naze32/lib/CMSIS/CM3/CoreSupport/core_cm3.h **** static __INLINE void __DMB()                      { __ASM volatile ("dmb"); }
1217:/home/oni/workspace/Naze32/lib/CMSIS/CM3/CoreSupport/core_cm3.h **** static __INLINE void __CLREX()                    { __ASM volatile ("clrex"); }
1218:/home/oni/workspace/Naze32/lib/CMSIS/CM3/CoreSupport/core_cm3.h **** 
1219:/home/oni/workspace/Naze32/lib/CMSIS/CM3/CoreSupport/core_cm3.h **** 
1220:/home/oni/workspace/Naze32/lib/CMSIS/CM3/CoreSupport/core_cm3.h **** /**
1221:/home/oni/workspace/Naze32/lib/CMSIS/CM3/CoreSupport/core_cm3.h ****  * @brief  Return the Process Stack Pointer
1222:/home/oni/workspace/Naze32/lib/CMSIS/CM3/CoreSupport/core_cm3.h ****  *
1223:/home/oni/workspace/Naze32/lib/CMSIS/CM3/CoreSupport/core_cm3.h ****  * @return ProcessStackPointer
1224:/home/oni/workspace/Naze32/lib/CMSIS/CM3/CoreSupport/core_cm3.h ****  *
1225:/home/oni/workspace/Naze32/lib/CMSIS/CM3/CoreSupport/core_cm3.h ****  * Return the actual process stack pointer
1226:/home/oni/workspace/Naze32/lib/CMSIS/CM3/CoreSupport/core_cm3.h ****  */
1227:/home/oni/workspace/Naze32/lib/CMSIS/CM3/CoreSupport/core_cm3.h **** extern uint32_t __get_PSP(void);
1228:/home/oni/workspace/Naze32/lib/CMSIS/CM3/CoreSupport/core_cm3.h **** 
1229:/home/oni/workspace/Naze32/lib/CMSIS/CM3/CoreSupport/core_cm3.h **** /**
1230:/home/oni/workspace/Naze32/lib/CMSIS/CM3/CoreSupport/core_cm3.h ****  * @brief  Set the Process Stack Pointer
1231:/home/oni/workspace/Naze32/lib/CMSIS/CM3/CoreSupport/core_cm3.h ****  *
1232:/home/oni/workspace/Naze32/lib/CMSIS/CM3/CoreSupport/core_cm3.h ****  * @param  topOfProcStack  Process Stack Pointer
1233:/home/oni/workspace/Naze32/lib/CMSIS/CM3/CoreSupport/core_cm3.h ****  *
1234:/home/oni/workspace/Naze32/lib/CMSIS/CM3/CoreSupport/core_cm3.h ****  * Assign the value ProcessStackPointer to the MSP 
1235:/home/oni/workspace/Naze32/lib/CMSIS/CM3/CoreSupport/core_cm3.h ****  * (process stack pointer) Cortex processor register
1236:/home/oni/workspace/Naze32/lib/CMSIS/CM3/CoreSupport/core_cm3.h ****  */
1237:/home/oni/workspace/Naze32/lib/CMSIS/CM3/CoreSupport/core_cm3.h **** extern void __set_PSP(uint32_t topOfProcStack);
1238:/home/oni/workspace/Naze32/lib/CMSIS/CM3/CoreSupport/core_cm3.h **** 
1239:/home/oni/workspace/Naze32/lib/CMSIS/CM3/CoreSupport/core_cm3.h **** /**
1240:/home/oni/workspace/Naze32/lib/CMSIS/CM3/CoreSupport/core_cm3.h ****  * @brief  Return the Main Stack Pointer
1241:/home/oni/workspace/Naze32/lib/CMSIS/CM3/CoreSupport/core_cm3.h ****  *
1242:/home/oni/workspace/Naze32/lib/CMSIS/CM3/CoreSupport/core_cm3.h ****  * @return Main Stack Pointer
1243:/home/oni/workspace/Naze32/lib/CMSIS/CM3/CoreSupport/core_cm3.h ****  *
1244:/home/oni/workspace/Naze32/lib/CMSIS/CM3/CoreSupport/core_cm3.h ****  * Return the current value of the MSP (main stack pointer)
1245:/home/oni/workspace/Naze32/lib/CMSIS/CM3/CoreSupport/core_cm3.h ****  * Cortex processor register
1246:/home/oni/workspace/Naze32/lib/CMSIS/CM3/CoreSupport/core_cm3.h ****  */
1247:/home/oni/workspace/Naze32/lib/CMSIS/CM3/CoreSupport/core_cm3.h **** extern uint32_t __get_MSP(void);
1248:/home/oni/workspace/Naze32/lib/CMSIS/CM3/CoreSupport/core_cm3.h **** 
1249:/home/oni/workspace/Naze32/lib/CMSIS/CM3/CoreSupport/core_cm3.h **** /**
1250:/home/oni/workspace/Naze32/lib/CMSIS/CM3/CoreSupport/core_cm3.h ****  * @brief  Set the Main Stack Pointer
1251:/home/oni/workspace/Naze32/lib/CMSIS/CM3/CoreSupport/core_cm3.h ****  *
1252:/home/oni/workspace/Naze32/lib/CMSIS/CM3/CoreSupport/core_cm3.h ****  * @param  topOfMainStack  Main Stack Pointer
1253:/home/oni/workspace/Naze32/lib/CMSIS/CM3/CoreSupport/core_cm3.h ****  *
1254:/home/oni/workspace/Naze32/lib/CMSIS/CM3/CoreSupport/core_cm3.h ****  * Assign the value mainStackPointer to the MSP 
1255:/home/oni/workspace/Naze32/lib/CMSIS/CM3/CoreSupport/core_cm3.h ****  * (main stack pointer) Cortex processor register
1256:/home/oni/workspace/Naze32/lib/CMSIS/CM3/CoreSupport/core_cm3.h ****  */
1257:/home/oni/workspace/Naze32/lib/CMSIS/CM3/CoreSupport/core_cm3.h **** extern void __set_MSP(uint32_t topOfMainStack);
1258:/home/oni/workspace/Naze32/lib/CMSIS/CM3/CoreSupport/core_cm3.h **** 
1259:/home/oni/workspace/Naze32/lib/CMSIS/CM3/CoreSupport/core_cm3.h **** /**
1260:/home/oni/workspace/Naze32/lib/CMSIS/CM3/CoreSupport/core_cm3.h ****  * @brief  Return the Base Priority value
1261:/home/oni/workspace/Naze32/lib/CMSIS/CM3/CoreSupport/core_cm3.h ****  *
1262:/home/oni/workspace/Naze32/lib/CMSIS/CM3/CoreSupport/core_cm3.h ****  * @return BasePriority
1263:/home/oni/workspace/Naze32/lib/CMSIS/CM3/CoreSupport/core_cm3.h ****  *
1264:/home/oni/workspace/Naze32/lib/CMSIS/CM3/CoreSupport/core_cm3.h ****  * Return the content of the base priority register
1265:/home/oni/workspace/Naze32/lib/CMSIS/CM3/CoreSupport/core_cm3.h ****  */
1266:/home/oni/workspace/Naze32/lib/CMSIS/CM3/CoreSupport/core_cm3.h **** extern uint32_t __get_BASEPRI(void);
1267:/home/oni/workspace/Naze32/lib/CMSIS/CM3/CoreSupport/core_cm3.h **** 
1268:/home/oni/workspace/Naze32/lib/CMSIS/CM3/CoreSupport/core_cm3.h **** /**
1269:/home/oni/workspace/Naze32/lib/CMSIS/CM3/CoreSupport/core_cm3.h ****  * @brief  Set the Base Priority value
1270:/home/oni/workspace/Naze32/lib/CMSIS/CM3/CoreSupport/core_cm3.h ****  *
1271:/home/oni/workspace/Naze32/lib/CMSIS/CM3/CoreSupport/core_cm3.h ****  * @param  basePri  BasePriority
1272:/home/oni/workspace/Naze32/lib/CMSIS/CM3/CoreSupport/core_cm3.h ****  *
1273:/home/oni/workspace/Naze32/lib/CMSIS/CM3/CoreSupport/core_cm3.h ****  * Set the base priority register
1274:/home/oni/workspace/Naze32/lib/CMSIS/CM3/CoreSupport/core_cm3.h ****  */
1275:/home/oni/workspace/Naze32/lib/CMSIS/CM3/CoreSupport/core_cm3.h **** extern void __set_BASEPRI(uint32_t basePri);
1276:/home/oni/workspace/Naze32/lib/CMSIS/CM3/CoreSupport/core_cm3.h **** 
1277:/home/oni/workspace/Naze32/lib/CMSIS/CM3/CoreSupport/core_cm3.h **** /**
1278:/home/oni/workspace/Naze32/lib/CMSIS/CM3/CoreSupport/core_cm3.h ****  * @brief  Return the Priority Mask value
1279:/home/oni/workspace/Naze32/lib/CMSIS/CM3/CoreSupport/core_cm3.h ****  *
1280:/home/oni/workspace/Naze32/lib/CMSIS/CM3/CoreSupport/core_cm3.h ****  * @return PriMask
1281:/home/oni/workspace/Naze32/lib/CMSIS/CM3/CoreSupport/core_cm3.h ****  *
1282:/home/oni/workspace/Naze32/lib/CMSIS/CM3/CoreSupport/core_cm3.h ****  * Return state of the priority mask bit from the priority mask register
1283:/home/oni/workspace/Naze32/lib/CMSIS/CM3/CoreSupport/core_cm3.h ****  */
1284:/home/oni/workspace/Naze32/lib/CMSIS/CM3/CoreSupport/core_cm3.h **** extern uint32_t  __get_PRIMASK(void);
1285:/home/oni/workspace/Naze32/lib/CMSIS/CM3/CoreSupport/core_cm3.h **** 
1286:/home/oni/workspace/Naze32/lib/CMSIS/CM3/CoreSupport/core_cm3.h **** /**
1287:/home/oni/workspace/Naze32/lib/CMSIS/CM3/CoreSupport/core_cm3.h ****  * @brief  Set the Priority Mask value
1288:/home/oni/workspace/Naze32/lib/CMSIS/CM3/CoreSupport/core_cm3.h ****  *
1289:/home/oni/workspace/Naze32/lib/CMSIS/CM3/CoreSupport/core_cm3.h ****  * @param  priMask  PriMask
1290:/home/oni/workspace/Naze32/lib/CMSIS/CM3/CoreSupport/core_cm3.h ****  *
1291:/home/oni/workspace/Naze32/lib/CMSIS/CM3/CoreSupport/core_cm3.h ****  * Set the priority mask bit in the priority mask register
1292:/home/oni/workspace/Naze32/lib/CMSIS/CM3/CoreSupport/core_cm3.h ****  */
1293:/home/oni/workspace/Naze32/lib/CMSIS/CM3/CoreSupport/core_cm3.h **** extern void __set_PRIMASK(uint32_t priMask);
1294:/home/oni/workspace/Naze32/lib/CMSIS/CM3/CoreSupport/core_cm3.h **** 
1295:/home/oni/workspace/Naze32/lib/CMSIS/CM3/CoreSupport/core_cm3.h **** /**
1296:/home/oni/workspace/Naze32/lib/CMSIS/CM3/CoreSupport/core_cm3.h ****  * @brief  Return the Fault Mask value
1297:/home/oni/workspace/Naze32/lib/CMSIS/CM3/CoreSupport/core_cm3.h ****  *
1298:/home/oni/workspace/Naze32/lib/CMSIS/CM3/CoreSupport/core_cm3.h ****  * @return FaultMask
1299:/home/oni/workspace/Naze32/lib/CMSIS/CM3/CoreSupport/core_cm3.h ****  *
1300:/home/oni/workspace/Naze32/lib/CMSIS/CM3/CoreSupport/core_cm3.h ****  * Return the content of the fault mask register
1301:/home/oni/workspace/Naze32/lib/CMSIS/CM3/CoreSupport/core_cm3.h ****  */
1302:/home/oni/workspace/Naze32/lib/CMSIS/CM3/CoreSupport/core_cm3.h **** extern uint32_t __get_FAULTMASK(void);
1303:/home/oni/workspace/Naze32/lib/CMSIS/CM3/CoreSupport/core_cm3.h **** 
1304:/home/oni/workspace/Naze32/lib/CMSIS/CM3/CoreSupport/core_cm3.h **** /**
1305:/home/oni/workspace/Naze32/lib/CMSIS/CM3/CoreSupport/core_cm3.h ****  * @brief  Set the Fault Mask value
1306:/home/oni/workspace/Naze32/lib/CMSIS/CM3/CoreSupport/core_cm3.h ****  *
1307:/home/oni/workspace/Naze32/lib/CMSIS/CM3/CoreSupport/core_cm3.h ****  * @param  faultMask  faultMask value
1308:/home/oni/workspace/Naze32/lib/CMSIS/CM3/CoreSupport/core_cm3.h ****  *
1309:/home/oni/workspace/Naze32/lib/CMSIS/CM3/CoreSupport/core_cm3.h ****  * Set the fault mask register
1310:/home/oni/workspace/Naze32/lib/CMSIS/CM3/CoreSupport/core_cm3.h ****  */
1311:/home/oni/workspace/Naze32/lib/CMSIS/CM3/CoreSupport/core_cm3.h **** extern void __set_FAULTMASK(uint32_t faultMask);
1312:/home/oni/workspace/Naze32/lib/CMSIS/CM3/CoreSupport/core_cm3.h **** 
1313:/home/oni/workspace/Naze32/lib/CMSIS/CM3/CoreSupport/core_cm3.h **** /**
1314:/home/oni/workspace/Naze32/lib/CMSIS/CM3/CoreSupport/core_cm3.h ****  * @brief  Return the Control Register value
1315:/home/oni/workspace/Naze32/lib/CMSIS/CM3/CoreSupport/core_cm3.h **** * 
1316:/home/oni/workspace/Naze32/lib/CMSIS/CM3/CoreSupport/core_cm3.h **** *  @return Control value
1317:/home/oni/workspace/Naze32/lib/CMSIS/CM3/CoreSupport/core_cm3.h ****  *
1318:/home/oni/workspace/Naze32/lib/CMSIS/CM3/CoreSupport/core_cm3.h ****  * Return the content of the control register
1319:/home/oni/workspace/Naze32/lib/CMSIS/CM3/CoreSupport/core_cm3.h ****  */
1320:/home/oni/workspace/Naze32/lib/CMSIS/CM3/CoreSupport/core_cm3.h **** extern uint32_t __get_CONTROL(void);
1321:/home/oni/workspace/Naze32/lib/CMSIS/CM3/CoreSupport/core_cm3.h **** 
1322:/home/oni/workspace/Naze32/lib/CMSIS/CM3/CoreSupport/core_cm3.h **** /**
1323:/home/oni/workspace/Naze32/lib/CMSIS/CM3/CoreSupport/core_cm3.h ****  * @brief  Set the Control Register value
1324:/home/oni/workspace/Naze32/lib/CMSIS/CM3/CoreSupport/core_cm3.h ****  *
1325:/home/oni/workspace/Naze32/lib/CMSIS/CM3/CoreSupport/core_cm3.h ****  * @param  control  Control value
1326:/home/oni/workspace/Naze32/lib/CMSIS/CM3/CoreSupport/core_cm3.h ****  *
1327:/home/oni/workspace/Naze32/lib/CMSIS/CM3/CoreSupport/core_cm3.h ****  * Set the control register
1328:/home/oni/workspace/Naze32/lib/CMSIS/CM3/CoreSupport/core_cm3.h ****  */
1329:/home/oni/workspace/Naze32/lib/CMSIS/CM3/CoreSupport/core_cm3.h **** extern void __set_CONTROL(uint32_t control);
1330:/home/oni/workspace/Naze32/lib/CMSIS/CM3/CoreSupport/core_cm3.h **** 
1331:/home/oni/workspace/Naze32/lib/CMSIS/CM3/CoreSupport/core_cm3.h **** /**
1332:/home/oni/workspace/Naze32/lib/CMSIS/CM3/CoreSupport/core_cm3.h ****  * @brief  Reverse byte order in integer value
1333:/home/oni/workspace/Naze32/lib/CMSIS/CM3/CoreSupport/core_cm3.h ****  *
1334:/home/oni/workspace/Naze32/lib/CMSIS/CM3/CoreSupport/core_cm3.h ****  * @param  value  value to reverse
1335:/home/oni/workspace/Naze32/lib/CMSIS/CM3/CoreSupport/core_cm3.h ****  * @return        reversed value
1336:/home/oni/workspace/Naze32/lib/CMSIS/CM3/CoreSupport/core_cm3.h ****  *
1337:/home/oni/workspace/Naze32/lib/CMSIS/CM3/CoreSupport/core_cm3.h ****  * Reverse byte order in integer value
1338:/home/oni/workspace/Naze32/lib/CMSIS/CM3/CoreSupport/core_cm3.h ****  */
1339:/home/oni/workspace/Naze32/lib/CMSIS/CM3/CoreSupport/core_cm3.h **** extern uint32_t __REV(uint32_t value);
1340:/home/oni/workspace/Naze32/lib/CMSIS/CM3/CoreSupport/core_cm3.h **** 
1341:/home/oni/workspace/Naze32/lib/CMSIS/CM3/CoreSupport/core_cm3.h **** /**
1342:/home/oni/workspace/Naze32/lib/CMSIS/CM3/CoreSupport/core_cm3.h ****  * @brief  Reverse byte order in unsigned short value
1343:/home/oni/workspace/Naze32/lib/CMSIS/CM3/CoreSupport/core_cm3.h ****  *
1344:/home/oni/workspace/Naze32/lib/CMSIS/CM3/CoreSupport/core_cm3.h ****  * @param  value  value to reverse
1345:/home/oni/workspace/Naze32/lib/CMSIS/CM3/CoreSupport/core_cm3.h ****  * @return        reversed value
1346:/home/oni/workspace/Naze32/lib/CMSIS/CM3/CoreSupport/core_cm3.h ****  *
1347:/home/oni/workspace/Naze32/lib/CMSIS/CM3/CoreSupport/core_cm3.h ****  * Reverse byte order in unsigned short value
1348:/home/oni/workspace/Naze32/lib/CMSIS/CM3/CoreSupport/core_cm3.h ****  */
1349:/home/oni/workspace/Naze32/lib/CMSIS/CM3/CoreSupport/core_cm3.h **** extern uint32_t __REV16(uint16_t value);
1350:/home/oni/workspace/Naze32/lib/CMSIS/CM3/CoreSupport/core_cm3.h **** 
1351:/home/oni/workspace/Naze32/lib/CMSIS/CM3/CoreSupport/core_cm3.h **** /**
1352:/home/oni/workspace/Naze32/lib/CMSIS/CM3/CoreSupport/core_cm3.h ****  * @brief  Reverse byte order in signed short value with sign extension to integer
1353:/home/oni/workspace/Naze32/lib/CMSIS/CM3/CoreSupport/core_cm3.h ****  *
1354:/home/oni/workspace/Naze32/lib/CMSIS/CM3/CoreSupport/core_cm3.h ****  * @param  value  value to reverse
1355:/home/oni/workspace/Naze32/lib/CMSIS/CM3/CoreSupport/core_cm3.h ****  * @return        reversed value
1356:/home/oni/workspace/Naze32/lib/CMSIS/CM3/CoreSupport/core_cm3.h ****  *
1357:/home/oni/workspace/Naze32/lib/CMSIS/CM3/CoreSupport/core_cm3.h ****  * Reverse byte order in signed short value with sign extension to integer
1358:/home/oni/workspace/Naze32/lib/CMSIS/CM3/CoreSupport/core_cm3.h ****  */
1359:/home/oni/workspace/Naze32/lib/CMSIS/CM3/CoreSupport/core_cm3.h **** extern int32_t __REVSH(int16_t value);
1360:/home/oni/workspace/Naze32/lib/CMSIS/CM3/CoreSupport/core_cm3.h **** 
1361:/home/oni/workspace/Naze32/lib/CMSIS/CM3/CoreSupport/core_cm3.h **** /**
1362:/home/oni/workspace/Naze32/lib/CMSIS/CM3/CoreSupport/core_cm3.h ****  * @brief  Reverse bit order of value
1363:/home/oni/workspace/Naze32/lib/CMSIS/CM3/CoreSupport/core_cm3.h ****  *
1364:/home/oni/workspace/Naze32/lib/CMSIS/CM3/CoreSupport/core_cm3.h ****  * @param  value  value to reverse
1365:/home/oni/workspace/Naze32/lib/CMSIS/CM3/CoreSupport/core_cm3.h ****  * @return        reversed value
1366:/home/oni/workspace/Naze32/lib/CMSIS/CM3/CoreSupport/core_cm3.h ****  *
1367:/home/oni/workspace/Naze32/lib/CMSIS/CM3/CoreSupport/core_cm3.h ****  * Reverse bit order of value
1368:/home/oni/workspace/Naze32/lib/CMSIS/CM3/CoreSupport/core_cm3.h ****  */
1369:/home/oni/workspace/Naze32/lib/CMSIS/CM3/CoreSupport/core_cm3.h **** extern uint32_t __RBIT(uint32_t value);
1370:/home/oni/workspace/Naze32/lib/CMSIS/CM3/CoreSupport/core_cm3.h **** 
1371:/home/oni/workspace/Naze32/lib/CMSIS/CM3/CoreSupport/core_cm3.h **** /**
1372:/home/oni/workspace/Naze32/lib/CMSIS/CM3/CoreSupport/core_cm3.h ****  * @brief  LDR Exclusive (8 bit)
1373:/home/oni/workspace/Naze32/lib/CMSIS/CM3/CoreSupport/core_cm3.h ****  *
1374:/home/oni/workspace/Naze32/lib/CMSIS/CM3/CoreSupport/core_cm3.h ****  * @param  *addr  address pointer
1375:/home/oni/workspace/Naze32/lib/CMSIS/CM3/CoreSupport/core_cm3.h ****  * @return        value of (*address)
1376:/home/oni/workspace/Naze32/lib/CMSIS/CM3/CoreSupport/core_cm3.h ****  *
1377:/home/oni/workspace/Naze32/lib/CMSIS/CM3/CoreSupport/core_cm3.h ****  * Exclusive LDR command for 8 bit value
1378:/home/oni/workspace/Naze32/lib/CMSIS/CM3/CoreSupport/core_cm3.h ****  */
1379:/home/oni/workspace/Naze32/lib/CMSIS/CM3/CoreSupport/core_cm3.h **** extern uint8_t __LDREXB(uint8_t *addr);
1380:/home/oni/workspace/Naze32/lib/CMSIS/CM3/CoreSupport/core_cm3.h **** 
1381:/home/oni/workspace/Naze32/lib/CMSIS/CM3/CoreSupport/core_cm3.h **** /**
1382:/home/oni/workspace/Naze32/lib/CMSIS/CM3/CoreSupport/core_cm3.h ****  * @brief  LDR Exclusive (16 bit)
1383:/home/oni/workspace/Naze32/lib/CMSIS/CM3/CoreSupport/core_cm3.h ****  *
1384:/home/oni/workspace/Naze32/lib/CMSIS/CM3/CoreSupport/core_cm3.h ****  * @param  *addr  address pointer
1385:/home/oni/workspace/Naze32/lib/CMSIS/CM3/CoreSupport/core_cm3.h ****  * @return        value of (*address)
1386:/home/oni/workspace/Naze32/lib/CMSIS/CM3/CoreSupport/core_cm3.h ****  *
1387:/home/oni/workspace/Naze32/lib/CMSIS/CM3/CoreSupport/core_cm3.h ****  * Exclusive LDR command for 16 bit values
1388:/home/oni/workspace/Naze32/lib/CMSIS/CM3/CoreSupport/core_cm3.h ****  */
1389:/home/oni/workspace/Naze32/lib/CMSIS/CM3/CoreSupport/core_cm3.h **** extern uint16_t __LDREXH(uint16_t *addr);
1390:/home/oni/workspace/Naze32/lib/CMSIS/CM3/CoreSupport/core_cm3.h **** 
1391:/home/oni/workspace/Naze32/lib/CMSIS/CM3/CoreSupport/core_cm3.h **** /**
1392:/home/oni/workspace/Naze32/lib/CMSIS/CM3/CoreSupport/core_cm3.h ****  * @brief  LDR Exclusive (32 bit)
1393:/home/oni/workspace/Naze32/lib/CMSIS/CM3/CoreSupport/core_cm3.h ****  *
1394:/home/oni/workspace/Naze32/lib/CMSIS/CM3/CoreSupport/core_cm3.h ****  * @param  *addr  address pointer
1395:/home/oni/workspace/Naze32/lib/CMSIS/CM3/CoreSupport/core_cm3.h ****  * @return        value of (*address)
1396:/home/oni/workspace/Naze32/lib/CMSIS/CM3/CoreSupport/core_cm3.h ****  *
1397:/home/oni/workspace/Naze32/lib/CMSIS/CM3/CoreSupport/core_cm3.h ****  * Exclusive LDR command for 32 bit values
1398:/home/oni/workspace/Naze32/lib/CMSIS/CM3/CoreSupport/core_cm3.h ****  */
1399:/home/oni/workspace/Naze32/lib/CMSIS/CM3/CoreSupport/core_cm3.h **** extern uint32_t __LDREXW(uint32_t *addr);
1400:/home/oni/workspace/Naze32/lib/CMSIS/CM3/CoreSupport/core_cm3.h **** 
1401:/home/oni/workspace/Naze32/lib/CMSIS/CM3/CoreSupport/core_cm3.h **** /**
1402:/home/oni/workspace/Naze32/lib/CMSIS/CM3/CoreSupport/core_cm3.h ****  * @brief  STR Exclusive (8 bit)
1403:/home/oni/workspace/Naze32/lib/CMSIS/CM3/CoreSupport/core_cm3.h ****  *
1404:/home/oni/workspace/Naze32/lib/CMSIS/CM3/CoreSupport/core_cm3.h ****  * @param  value  value to store
1405:/home/oni/workspace/Naze32/lib/CMSIS/CM3/CoreSupport/core_cm3.h ****  * @param  *addr  address pointer
1406:/home/oni/workspace/Naze32/lib/CMSIS/CM3/CoreSupport/core_cm3.h ****  * @return        successful / failed
1407:/home/oni/workspace/Naze32/lib/CMSIS/CM3/CoreSupport/core_cm3.h ****  *
1408:/home/oni/workspace/Naze32/lib/CMSIS/CM3/CoreSupport/core_cm3.h ****  * Exclusive STR command for 8 bit values
1409:/home/oni/workspace/Naze32/lib/CMSIS/CM3/CoreSupport/core_cm3.h ****  */
1410:/home/oni/workspace/Naze32/lib/CMSIS/CM3/CoreSupport/core_cm3.h **** extern uint32_t __STREXB(uint8_t value, uint8_t *addr);
1411:/home/oni/workspace/Naze32/lib/CMSIS/CM3/CoreSupport/core_cm3.h **** 
1412:/home/oni/workspace/Naze32/lib/CMSIS/CM3/CoreSupport/core_cm3.h **** /**
1413:/home/oni/workspace/Naze32/lib/CMSIS/CM3/CoreSupport/core_cm3.h ****  * @brief  STR Exclusive (16 bit)
1414:/home/oni/workspace/Naze32/lib/CMSIS/CM3/CoreSupport/core_cm3.h ****  *
1415:/home/oni/workspace/Naze32/lib/CMSIS/CM3/CoreSupport/core_cm3.h ****  * @param  value  value to store
1416:/home/oni/workspace/Naze32/lib/CMSIS/CM3/CoreSupport/core_cm3.h ****  * @param  *addr  address pointer
1417:/home/oni/workspace/Naze32/lib/CMSIS/CM3/CoreSupport/core_cm3.h ****  * @return        successful / failed
1418:/home/oni/workspace/Naze32/lib/CMSIS/CM3/CoreSupport/core_cm3.h ****  *
1419:/home/oni/workspace/Naze32/lib/CMSIS/CM3/CoreSupport/core_cm3.h ****  * Exclusive STR command for 16 bit values
1420:/home/oni/workspace/Naze32/lib/CMSIS/CM3/CoreSupport/core_cm3.h ****  */
1421:/home/oni/workspace/Naze32/lib/CMSIS/CM3/CoreSupport/core_cm3.h **** extern uint32_t __STREXH(uint16_t value, uint16_t *addr);
1422:/home/oni/workspace/Naze32/lib/CMSIS/CM3/CoreSupport/core_cm3.h **** 
1423:/home/oni/workspace/Naze32/lib/CMSIS/CM3/CoreSupport/core_cm3.h **** /**
1424:/home/oni/workspace/Naze32/lib/CMSIS/CM3/CoreSupport/core_cm3.h ****  * @brief  STR Exclusive (32 bit)
1425:/home/oni/workspace/Naze32/lib/CMSIS/CM3/CoreSupport/core_cm3.h ****  *
1426:/home/oni/workspace/Naze32/lib/CMSIS/CM3/CoreSupport/core_cm3.h ****  * @param  value  value to store
1427:/home/oni/workspace/Naze32/lib/CMSIS/CM3/CoreSupport/core_cm3.h ****  * @param  *addr  address pointer
1428:/home/oni/workspace/Naze32/lib/CMSIS/CM3/CoreSupport/core_cm3.h ****  * @return        successful / failed
1429:/home/oni/workspace/Naze32/lib/CMSIS/CM3/CoreSupport/core_cm3.h ****  *
1430:/home/oni/workspace/Naze32/lib/CMSIS/CM3/CoreSupport/core_cm3.h ****  * Exclusive STR command for 32 bit values
1431:/home/oni/workspace/Naze32/lib/CMSIS/CM3/CoreSupport/core_cm3.h ****  */
1432:/home/oni/workspace/Naze32/lib/CMSIS/CM3/CoreSupport/core_cm3.h **** extern uint32_t __STREXW(uint32_t value, uint32_t *addr);
1433:/home/oni/workspace/Naze32/lib/CMSIS/CM3/CoreSupport/core_cm3.h **** 
1434:/home/oni/workspace/Naze32/lib/CMSIS/CM3/CoreSupport/core_cm3.h **** 
1435:/home/oni/workspace/Naze32/lib/CMSIS/CM3/CoreSupport/core_cm3.h **** #elif (defined (__TASKING__)) /*------------------ TASKING Compiler ---------------------*/
1436:/home/oni/workspace/Naze32/lib/CMSIS/CM3/CoreSupport/core_cm3.h **** /* TASKING carm specific functions */
1437:/home/oni/workspace/Naze32/lib/CMSIS/CM3/CoreSupport/core_cm3.h **** 
1438:/home/oni/workspace/Naze32/lib/CMSIS/CM3/CoreSupport/core_cm3.h **** /*
1439:/home/oni/workspace/Naze32/lib/CMSIS/CM3/CoreSupport/core_cm3.h ****  * The CMSIS functions have been implemented as intrinsics in the compiler.
1440:/home/oni/workspace/Naze32/lib/CMSIS/CM3/CoreSupport/core_cm3.h ****  * Please use "carm -?i" to get an up to date list of all instrinsics,
1441:/home/oni/workspace/Naze32/lib/CMSIS/CM3/CoreSupport/core_cm3.h ****  * Including the CMSIS ones.
1442:/home/oni/workspace/Naze32/lib/CMSIS/CM3/CoreSupport/core_cm3.h ****  */
1443:/home/oni/workspace/Naze32/lib/CMSIS/CM3/CoreSupport/core_cm3.h **** 
1444:/home/oni/workspace/Naze32/lib/CMSIS/CM3/CoreSupport/core_cm3.h **** #endif
1445:/home/oni/workspace/Naze32/lib/CMSIS/CM3/CoreSupport/core_cm3.h **** 
1446:/home/oni/workspace/Naze32/lib/CMSIS/CM3/CoreSupport/core_cm3.h **** 
1447:/home/oni/workspace/Naze32/lib/CMSIS/CM3/CoreSupport/core_cm3.h **** /** @addtogroup CMSIS_CM3_Core_FunctionInterface CMSIS CM3 Core Function Interface
1448:/home/oni/workspace/Naze32/lib/CMSIS/CM3/CoreSupport/core_cm3.h ****   Core  Function Interface containing:
1449:/home/oni/workspace/Naze32/lib/CMSIS/CM3/CoreSupport/core_cm3.h ****   - Core NVIC Functions
1450:/home/oni/workspace/Naze32/lib/CMSIS/CM3/CoreSupport/core_cm3.h ****   - Core SysTick Functions
1451:/home/oni/workspace/Naze32/lib/CMSIS/CM3/CoreSupport/core_cm3.h ****   - Core Reset Functions
1452:/home/oni/workspace/Naze32/lib/CMSIS/CM3/CoreSupport/core_cm3.h **** */
1453:/home/oni/workspace/Naze32/lib/CMSIS/CM3/CoreSupport/core_cm3.h **** /*@{*/
1454:/home/oni/workspace/Naze32/lib/CMSIS/CM3/CoreSupport/core_cm3.h **** 
1455:/home/oni/workspace/Naze32/lib/CMSIS/CM3/CoreSupport/core_cm3.h **** /* ##########################   NVIC functions  #################################### */
1456:/home/oni/workspace/Naze32/lib/CMSIS/CM3/CoreSupport/core_cm3.h **** 
1457:/home/oni/workspace/Naze32/lib/CMSIS/CM3/CoreSupport/core_cm3.h **** /**
1458:/home/oni/workspace/Naze32/lib/CMSIS/CM3/CoreSupport/core_cm3.h ****  * @brief  Set the Priority Grouping in NVIC Interrupt Controller
1459:/home/oni/workspace/Naze32/lib/CMSIS/CM3/CoreSupport/core_cm3.h ****  *
1460:/home/oni/workspace/Naze32/lib/CMSIS/CM3/CoreSupport/core_cm3.h ****  * @param  PriorityGroup is priority grouping field
1461:/home/oni/workspace/Naze32/lib/CMSIS/CM3/CoreSupport/core_cm3.h ****  *
1462:/home/oni/workspace/Naze32/lib/CMSIS/CM3/CoreSupport/core_cm3.h ****  * Set the priority grouping field using the required unlock sequence.
1463:/home/oni/workspace/Naze32/lib/CMSIS/CM3/CoreSupport/core_cm3.h ****  * The parameter priority_grouping is assigned to the field 
1464:/home/oni/workspace/Naze32/lib/CMSIS/CM3/CoreSupport/core_cm3.h ****  * SCB->AIRCR [10:8] PRIGROUP field. Only values from 0..7 are used.
1465:/home/oni/workspace/Naze32/lib/CMSIS/CM3/CoreSupport/core_cm3.h ****  * In case of a conflict between priority grouping and available
1466:/home/oni/workspace/Naze32/lib/CMSIS/CM3/CoreSupport/core_cm3.h ****  * priority bits (__NVIC_PRIO_BITS) the smallest possible priority group is set.
1467:/home/oni/workspace/Naze32/lib/CMSIS/CM3/CoreSupport/core_cm3.h ****  */
1468:/home/oni/workspace/Naze32/lib/CMSIS/CM3/CoreSupport/core_cm3.h **** static __INLINE void NVIC_SetPriorityGrouping(uint32_t PriorityGroup)
1469:/home/oni/workspace/Naze32/lib/CMSIS/CM3/CoreSupport/core_cm3.h **** {
1470:/home/oni/workspace/Naze32/lib/CMSIS/CM3/CoreSupport/core_cm3.h ****   uint32_t reg_value;
1471:/home/oni/workspace/Naze32/lib/CMSIS/CM3/CoreSupport/core_cm3.h ****   uint32_t PriorityGroupTmp = (PriorityGroup & 0x07);                         /* only values 0..7 a
1472:/home/oni/workspace/Naze32/lib/CMSIS/CM3/CoreSupport/core_cm3.h ****   
1473:/home/oni/workspace/Naze32/lib/CMSIS/CM3/CoreSupport/core_cm3.h ****   reg_value  =  SCB->AIRCR;                                                   /* read old register 
1474:/home/oni/workspace/Naze32/lib/CMSIS/CM3/CoreSupport/core_cm3.h ****   reg_value &= ~(SCB_AIRCR_VECTKEY_Msk | SCB_AIRCR_PRIGROUP_Msk);             /* clear bits to chan
1475:/home/oni/workspace/Naze32/lib/CMSIS/CM3/CoreSupport/core_cm3.h ****   reg_value  =  (reg_value                       |
1476:/home/oni/workspace/Naze32/lib/CMSIS/CM3/CoreSupport/core_cm3.h ****                 (0x5FA << SCB_AIRCR_VECTKEY_Pos) | 
1477:/home/oni/workspace/Naze32/lib/CMSIS/CM3/CoreSupport/core_cm3.h ****                 (PriorityGroupTmp << 8));                                     /* Insert write key a
1478:/home/oni/workspace/Naze32/lib/CMSIS/CM3/CoreSupport/core_cm3.h ****   SCB->AIRCR =  reg_value;
1479:/home/oni/workspace/Naze32/lib/CMSIS/CM3/CoreSupport/core_cm3.h **** }
1480:/home/oni/workspace/Naze32/lib/CMSIS/CM3/CoreSupport/core_cm3.h **** 
1481:/home/oni/workspace/Naze32/lib/CMSIS/CM3/CoreSupport/core_cm3.h **** /**
1482:/home/oni/workspace/Naze32/lib/CMSIS/CM3/CoreSupport/core_cm3.h ****  * @brief  Get the Priority Grouping from NVIC Interrupt Controller
1483:/home/oni/workspace/Naze32/lib/CMSIS/CM3/CoreSupport/core_cm3.h ****  *
1484:/home/oni/workspace/Naze32/lib/CMSIS/CM3/CoreSupport/core_cm3.h ****  * @return priority grouping field 
1485:/home/oni/workspace/Naze32/lib/CMSIS/CM3/CoreSupport/core_cm3.h ****  *
1486:/home/oni/workspace/Naze32/lib/CMSIS/CM3/CoreSupport/core_cm3.h ****  * Get the priority grouping from NVIC Interrupt Controller.
1487:/home/oni/workspace/Naze32/lib/CMSIS/CM3/CoreSupport/core_cm3.h ****  * priority grouping is SCB->AIRCR [10:8] PRIGROUP field.
1488:/home/oni/workspace/Naze32/lib/CMSIS/CM3/CoreSupport/core_cm3.h ****  */
1489:/home/oni/workspace/Naze32/lib/CMSIS/CM3/CoreSupport/core_cm3.h **** static __INLINE uint32_t NVIC_GetPriorityGrouping(void)
1490:/home/oni/workspace/Naze32/lib/CMSIS/CM3/CoreSupport/core_cm3.h **** {
1491:/home/oni/workspace/Naze32/lib/CMSIS/CM3/CoreSupport/core_cm3.h ****   return ((SCB->AIRCR & SCB_AIRCR_PRIGROUP_Msk) >> SCB_AIRCR_PRIGROUP_Pos);   /* read priority grou
1492:/home/oni/workspace/Naze32/lib/CMSIS/CM3/CoreSupport/core_cm3.h **** }
1493:/home/oni/workspace/Naze32/lib/CMSIS/CM3/CoreSupport/core_cm3.h **** 
1494:/home/oni/workspace/Naze32/lib/CMSIS/CM3/CoreSupport/core_cm3.h **** /**
1495:/home/oni/workspace/Naze32/lib/CMSIS/CM3/CoreSupport/core_cm3.h ****  * @brief  Enable Interrupt in NVIC Interrupt Controller
1496:/home/oni/workspace/Naze32/lib/CMSIS/CM3/CoreSupport/core_cm3.h ****  *
1497:/home/oni/workspace/Naze32/lib/CMSIS/CM3/CoreSupport/core_cm3.h ****  * @param  IRQn   The positive number of the external interrupt to enable
1498:/home/oni/workspace/Naze32/lib/CMSIS/CM3/CoreSupport/core_cm3.h ****  *
1499:/home/oni/workspace/Naze32/lib/CMSIS/CM3/CoreSupport/core_cm3.h ****  * Enable a device specific interupt in the NVIC interrupt controller.
1500:/home/oni/workspace/Naze32/lib/CMSIS/CM3/CoreSupport/core_cm3.h ****  * The interrupt number cannot be a negative value.
1501:/home/oni/workspace/Naze32/lib/CMSIS/CM3/CoreSupport/core_cm3.h ****  */
1502:/home/oni/workspace/Naze32/lib/CMSIS/CM3/CoreSupport/core_cm3.h **** static __INLINE void NVIC_EnableIRQ(IRQn_Type IRQn)
1503:/home/oni/workspace/Naze32/lib/CMSIS/CM3/CoreSupport/core_cm3.h **** {
  25              		.loc 1 1503 0
  26              		.cfi_startproc
  27              		@ args = 0, pretend = 0, frame = 8
  28              		@ frame_needed = 1, uses_anonymous_args = 0
  29              		@ link register save eliminated.
  30 0000 80B4     		push	{r7}
  31              	.LCFI0:
  32              		.cfi_def_cfa_offset 4
  33              		.cfi_offset 7, -4
  34 0002 83B0     		sub	sp, sp, #12
  35              	.LCFI1:
  36              		.cfi_def_cfa_offset 16
  37 0004 00AF     		add	r7, sp, #0
  38              	.LCFI2:
  39              		.cfi_def_cfa_register 7
  40 0006 0346     		mov	r3, r0
  41 0008 FB71     		strb	r3, [r7, #7]
1504:/home/oni/workspace/Naze32/lib/CMSIS/CM3/CoreSupport/core_cm3.h ****   NVIC->ISER[((uint32_t)(IRQn) >> 5)] = (1 << ((uint32_t)(IRQn) & 0x1F)); /* enable interrupt */
  42              		.loc 1 1504 0
  43 000a 094B     		ldr	r3, .L2
  44 000c 97F90720 		ldrsb	r2, [r7, #7]
  45 0010 4FEA5212 		lsr	r2, r2, #5
  46 0014 F979     		ldrb	r1, [r7, #7]	@ zero_extendqisi2
  47 0016 01F01F01 		and	r1, r1, #31
  48 001a 4FF00100 		mov	r0, #1
  49 001e 00FA01F1 		lsl	r1, r0, r1
  50 0022 43F82210 		str	r1, [r3, r2, lsl #2]
1505:/home/oni/workspace/Naze32/lib/CMSIS/CM3/CoreSupport/core_cm3.h **** }
  51              		.loc 1 1505 0
  52 0026 07F10C07 		add	r7, r7, #12
  53 002a BD46     		mov	sp, r7
  54 002c 80BC     		pop	{r7}
  55 002e 7047     		bx	lr
  56              	.L3:
  57              		.align	2
  58              	.L2:
  59 0030 00E100E0 		.word	-536813312
  60              		.cfi_endproc
  61              	.LFE14:
  63              		.bss
  64              		.align	1
  65              	trigger_pin:
  66 0000 0000     		.space	2
  67              		.align	1
  68              	echo_pin:
  69 0002 0000     		.space	2
  70              		.align	2
  71              	exti_line:
  72 0004 00000000 		.space	4
  73              	exti_pin_source:
  74 0008 00       		.space	1
  75              	exti_irqn:
  76 0009 00       		.space	1
  77 000a 0000     		.align	2
  78              	last_measurement:
  79 000c 00000000 		.space	4
  80              		.align	2
  81              	distance_ptr:
  82 0010 00000000 		.space	4
  83              		.text
  84              		.align	2
  85              		.global	ECHO_EXTI_IRQHandler
  86              		.thumb
  87              		.thumb_func
  89              	ECHO_EXTI_IRQHandler:
  90              	.LFB29:
  91              		.file 2 "../src/drv_hcsr04.c"
   1:../src/drv_hcsr04.c **** #include "board.h"
   2:../src/drv_hcsr04.c **** #include "mw.h"
   3:../src/drv_hcsr04.c **** 
   4:../src/drv_hcsr04.c **** #ifdef SONAR
   5:../src/drv_hcsr04.c **** 
   6:../src/drv_hcsr04.c **** /* HC-SR04 consists of ultrasonic transmitter, receiver, and control circuits.
   7:../src/drv_hcsr04.c ****  * When trigged it sends out a series of 40KHz ultrasonic pulses and receives
   8:../src/drv_hcsr04.c ****  * echo froman object. The distance between the unit and the object is calculated
   9:../src/drv_hcsr04.c ****  * by measuring the traveling time of sound and output it as the width of a TTL pulse.
  10:../src/drv_hcsr04.c ****  *
  11:../src/drv_hcsr04.c ****  * *** Warning: HC-SR04 operates at +5V ***
  12:../src/drv_hcsr04.c ****  *
  13:../src/drv_hcsr04.c ****  */
  14:../src/drv_hcsr04.c **** 
  15:../src/drv_hcsr04.c **** static uint16_t trigger_pin;
  16:../src/drv_hcsr04.c **** static uint16_t echo_pin;
  17:../src/drv_hcsr04.c **** static uint32_t exti_line;
  18:../src/drv_hcsr04.c **** static uint8_t exti_pin_source;
  19:../src/drv_hcsr04.c **** static IRQn_Type exti_irqn;
  20:../src/drv_hcsr04.c **** 
  21:../src/drv_hcsr04.c **** static uint32_t last_measurement;
  22:../src/drv_hcsr04.c **** static volatile int16_t* distance_ptr;
  23:../src/drv_hcsr04.c **** 
  24:../src/drv_hcsr04.c **** void ECHO_EXTI_IRQHandler(void)
  25:../src/drv_hcsr04.c **** {
  92              		.loc 2 25 0
  93              		.cfi_startproc
  94              		@ args = 0, pretend = 0, frame = 8
  95              		@ frame_needed = 1, uses_anonymous_args = 0
  96 0034 80B5     		push	{r7, lr}
  97              	.LCFI3:
  98              		.cfi_def_cfa_offset 8
  99              		.cfi_offset 7, -8
 100              		.cfi_offset 14, -4
 101 0036 82B0     		sub	sp, sp, #8
 102              	.LCFI4:
 103              		.cfi_def_cfa_offset 16
 104 0038 00AF     		add	r7, sp, #0
 105              	.LCFI5:
 106              		.cfi_def_cfa_register 7
  26:../src/drv_hcsr04.c ****     static uint32_t timing_start;
  27:../src/drv_hcsr04.c ****     uint32_t timing_stop;
  28:../src/drv_hcsr04.c ****     if(GPIO_ReadInputDataBit(GPIOB, echo_pin) != 0)
 107              		.loc 2 28 0
 108 003a 194B     		ldr	r3, .L7
 109 003c 1B88     		ldrh	r3, [r3, #0]
 110 003e 1948     		ldr	r0, .L7+4
 111 0040 1946     		mov	r1, r3
 112 0042 FFF7FEFF 		bl	GPIO_ReadInputDataBit
 113 0046 0346     		mov	r3, r0
 114 0048 002B     		cmp	r3, #0
 115 004a 05D0     		beq	.L5
  29:../src/drv_hcsr04.c ****         timing_start = micros();
 116              		.loc 2 29 0
 117 004c FFF7FEFF 		bl	micros
 118 0050 0246     		mov	r2, r0
 119 0052 154B     		ldr	r3, .L7+8
 120 0054 1A60     		str	r2, [r3, #0]
 121 0056 19E0     		b	.L6
 122              	.L5:
  30:../src/drv_hcsr04.c ****     else 
  31:../src/drv_hcsr04.c ****     {
  32:../src/drv_hcsr04.c ****         timing_stop = micros();
 123              		.loc 2 32 0
 124 0058 FFF7FEFF 		bl	micros
 125 005c 7860     		str	r0, [r7, #4]
  33:../src/drv_hcsr04.c ****         if(timing_stop > timing_start) 
 126              		.loc 2 33 0
 127 005e 124B     		ldr	r3, .L7+8
 128 0060 1B68     		ldr	r3, [r3, #0]
 129 0062 7A68     		ldr	r2, [r7, #4]
 130 0064 9A42     		cmp	r2, r3
 131 0066 11D9     		bls	.L6
 132              	.LBB2:
  34:../src/drv_hcsr04.c ****         {
  35:../src/drv_hcsr04.c ****             // The speed of sound is 340 m/s or approx. 29 microseconds per centimeter.
  36:../src/drv_hcsr04.c ****             // The ping travels out and back, so to find the distance of the
  37:../src/drv_hcsr04.c ****             // object we take half of the distance traveled.
  38:../src/drv_hcsr04.c ****             //
  39:../src/drv_hcsr04.c ****             // 340 m/s = 0.034 cm/microsecond = 29.41176471 *2 = 58.82352941 rounded to 59
  40:../src/drv_hcsr04.c ****             int32_t pulse_duration = timing_stop - timing_start;          
 133              		.loc 2 40 0
 134 0068 0F4B     		ldr	r3, .L7+8
 135 006a 1B68     		ldr	r3, [r3, #0]
 136 006c 7A68     		ldr	r2, [r7, #4]
 137 006e D31A     		subs	r3, r2, r3
 138 0070 3B60     		str	r3, [r7, #0]
  41:../src/drv_hcsr04.c ****             *distance_ptr = pulse_duration / 59 ;
 139              		.loc 2 41 0
 140 0072 0E4B     		ldr	r3, .L7+12
 141 0074 1A68     		ldr	r2, [r3, #0]
 142 0076 3B68     		ldr	r3, [r7, #0]
 143 0078 0D49     		ldr	r1, .L7+16
 144 007a 81FB0301 		smull	r0, r1, r1, r3
 145 007e 4FEAE101 		asr	r1, r1, #3
 146 0082 4FEAE373 		asr	r3, r3, #31
 147 0086 CB1A     		subs	r3, r1, r3
 148 0088 9BB2     		uxth	r3, r3
 149 008a 1380     		strh	r3, [r2, #0]	@ movhi
 150              	.L6:
 151              	.LBE2:
  42:../src/drv_hcsr04.c ****         }
  43:../src/drv_hcsr04.c ****     }
  44:../src/drv_hcsr04.c **** 
  45:../src/drv_hcsr04.c ****     EXTI_ClearITPendingBit(exti_line);   
 152              		.loc 2 45 0
 153 008c 094B     		ldr	r3, .L7+20
 154 008e 1B68     		ldr	r3, [r3, #0]
 155 0090 1846     		mov	r0, r3
 156 0092 FFF7FEFF 		bl	EXTI_ClearITPendingBit
  46:../src/drv_hcsr04.c **** }
 157              		.loc 2 46 0
 158 0096 07F10807 		add	r7, r7, #8
 159 009a BD46     		mov	sp, r7
 160 009c 80BD     		pop	{r7, pc}
 161              	.L8:
 162 009e 00BF     		.align	2
 163              	.L7:
 164 00a0 02000000 		.word	echo_pin
 165 00a4 000C0140 		.word	1073810432
 166 00a8 14000000 		.word	timing_start.9037
 167 00ac 10000000 		.word	distance_ptr
 168 00b0 BF3CB622 		.word	582368447
 169 00b4 04000000 		.word	exti_line
 170              		.cfi_endproc
 171              	.LFE29:
 173              		.align	2
 174              		.global	EXTI1_IRQHandler
 175              		.thumb
 176              		.thumb_func
 178              	EXTI1_IRQHandler:
 179              	.LFB30:
  47:../src/drv_hcsr04.c **** 
  48:../src/drv_hcsr04.c **** void EXTI1_IRQHandler(void)
  49:../src/drv_hcsr04.c **** {
 180              		.loc 2 49 0
 181              		.cfi_startproc
 182              		@ args = 0, pretend = 0, frame = 0
 183              		@ frame_needed = 1, uses_anonymous_args = 0
 184 00b8 80B5     		push	{r7, lr}
 185              	.LCFI6:
 186              		.cfi_def_cfa_offset 8
 187              		.cfi_offset 7, -8
 188              		.cfi_offset 14, -4
 189 00ba 00AF     		add	r7, sp, #0
 190              	.LCFI7:
 191              		.cfi_def_cfa_register 7
  50:../src/drv_hcsr04.c ****     ECHO_EXTI_IRQHandler();
 192              		.loc 2 50 0
 193 00bc FFF7FEFF 		bl	ECHO_EXTI_IRQHandler
  51:../src/drv_hcsr04.c **** }
 194              		.loc 2 51 0
 195 00c0 80BD     		pop	{r7, pc}
 196              		.cfi_endproc
 197              	.LFE30:
 199 00c2 00BF     		.align	2
 200              		.global	EXTI9_5_IRQHandler
 201              		.thumb
 202              		.thumb_func
 204              	EXTI9_5_IRQHandler:
 205              	.LFB31:
  52:../src/drv_hcsr04.c **** 
  53:../src/drv_hcsr04.c **** void EXTI9_5_IRQHandler(void)
  54:../src/drv_hcsr04.c **** {
 206              		.loc 2 54 0
 207              		.cfi_startproc
 208              		@ args = 0, pretend = 0, frame = 0
 209              		@ frame_needed = 1, uses_anonymous_args = 0
 210 00c4 80B5     		push	{r7, lr}
 211              	.LCFI8:
 212              		.cfi_def_cfa_offset 8
 213              		.cfi_offset 7, -8
 214              		.cfi_offset 14, -4
 215 00c6 00AF     		add	r7, sp, #0
 216              	.LCFI9:
 217              		.cfi_def_cfa_register 7
  55:../src/drv_hcsr04.c ****     ECHO_EXTI_IRQHandler();
 218              		.loc 2 55 0
 219 00c8 FFF7FEFF 		bl	ECHO_EXTI_IRQHandler
  56:../src/drv_hcsr04.c **** }
 220              		.loc 2 56 0
 221 00cc 80BD     		pop	{r7, pc}
 222              		.cfi_endproc
 223              	.LFE31:
 225 00ce 00BF     		.align	2
 226              		.global	hcsr04_init
 227              		.thumb
 228              		.thumb_func
 230              	hcsr04_init:
 231              	.LFB32:
  57:../src/drv_hcsr04.c **** 
  58:../src/drv_hcsr04.c **** void hcsr04_init(sonar_config_t config)
  59:../src/drv_hcsr04.c **** {
 232              		.loc 2 59 0
 233              		.cfi_startproc
 234              		@ args = 0, pretend = 0, frame = 24
 235              		@ frame_needed = 1, uses_anonymous_args = 0
 236 00d0 80B5     		push	{r7, lr}
 237              	.LCFI10:
 238              		.cfi_def_cfa_offset 8
 239              		.cfi_offset 7, -8
 240              		.cfi_offset 14, -4
 241 00d2 86B0     		sub	sp, sp, #24
 242              	.LCFI11:
 243              		.cfi_def_cfa_offset 32
 244 00d4 00AF     		add	r7, sp, #0
 245              	.LCFI12:
 246              		.cfi_def_cfa_register 7
 247 00d6 0346     		mov	r3, r0
 248 00d8 FB71     		strb	r3, [r7, #7]
  60:../src/drv_hcsr04.c ****     GPIO_InitTypeDef GPIO_InitStructure;
  61:../src/drv_hcsr04.c ****     EXTI_InitTypeDef EXTIInit;
  62:../src/drv_hcsr04.c **** 
  63:../src/drv_hcsr04.c ****     //enable AFIO for EXTI support - already done is drv_system.c
  64:../src/drv_hcsr04.c ****     //RCC_APB2PeriphClockCmd(RCC_APB2Periph_AFIO | RCC_APB2Periph, ENABLE); 
  65:../src/drv_hcsr04.c **** 
  66:../src/drv_hcsr04.c ****     switch(config)
 249              		.loc 2 66 0
 250 00da FB79     		ldrb	r3, [r7, #7]	@ zero_extendqisi2
 251 00dc 002B     		cmp	r3, #0
 252 00de 02D0     		beq	.L13
 253 00e0 012B     		cmp	r3, #1
 254 00e2 15D0     		beq	.L14
 255 00e4 29E0     		b	.L12
 256              	.L13:
  67:../src/drv_hcsr04.c ****     {
  68:../src/drv_hcsr04.c ****     case sonar_pwm56:
  69:../src/drv_hcsr04.c ****         trigger_pin = GPIO_Pin_8;   // PWM5 (PB8) - 5v tolerant
 257              		.loc 2 69 0
 258 00e6 394B     		ldr	r3, .L15
 259 00e8 4FF48072 		mov	r2, #256
 260 00ec 1A80     		strh	r2, [r3, #0]	@ movhi
  70:../src/drv_hcsr04.c ****         echo_pin = GPIO_Pin_9;      // PWM6 (PB9) - 5v tolerant
 261              		.loc 2 70 0
 262 00ee 384B     		ldr	r3, .L15+4
 263 00f0 4FF40072 		mov	r2, #512
 264 00f4 1A80     		strh	r2, [r3, #0]	@ movhi
  71:../src/drv_hcsr04.c ****         exti_line = EXTI_Line9;
 265              		.loc 2 71 0
 266 00f6 374B     		ldr	r3, .L15+8
 267 00f8 4FF40072 		mov	r2, #512
 268 00fc 1A60     		str	r2, [r3, #0]
  72:../src/drv_hcsr04.c ****         exti_pin_source = GPIO_PinSource9;
 269              		.loc 2 72 0
 270 00fe 364B     		ldr	r3, .L15+12
 271 0100 4FF00902 		mov	r2, #9
 272 0104 1A70     		strb	r2, [r3, #0]
  73:../src/drv_hcsr04.c ****         exti_irqn = EXTI9_5_IRQn;
 273              		.loc 2 73 0
 274 0106 354B     		ldr	r3, .L15+16
 275 0108 4FF01702 		mov	r2, #23
 276 010c 1A70     		strb	r2, [r3, #0]
  74:../src/drv_hcsr04.c ****         break;
 277              		.loc 2 74 0
 278 010e 14E0     		b	.L12
 279              	.L14:
  75:../src/drv_hcsr04.c ****     case sonar_rc78:    
  76:../src/drv_hcsr04.c ****         trigger_pin = GPIO_Pin_0;   // RX7 (PB0) - only 3.3v ( add a 1K Ohms resistor )
 280              		.loc 2 76 0
 281 0110 2E4B     		ldr	r3, .L15
 282 0112 4FF00102 		mov	r2, #1
 283 0116 1A80     		strh	r2, [r3, #0]	@ movhi
  77:../src/drv_hcsr04.c ****         echo_pin = GPIO_Pin_1;      // RX8 (PB1) - only 3.3v ( add a 1K Ohms resistor )
 284              		.loc 2 77 0
 285 0118 2D4B     		ldr	r3, .L15+4
 286 011a 4FF00202 		mov	r2, #2
 287 011e 1A80     		strh	r2, [r3, #0]	@ movhi
  78:../src/drv_hcsr04.c ****         exti_line = EXTI_Line1;
 288              		.loc 2 78 0
 289 0120 2C4B     		ldr	r3, .L15+8
 290 0122 4FF00202 		mov	r2, #2
 291 0126 1A60     		str	r2, [r3, #0]
  79:../src/drv_hcsr04.c ****         exti_pin_source = GPIO_PinSource1;
 292              		.loc 2 79 0
 293 0128 2B4B     		ldr	r3, .L15+12
 294 012a 4FF00102 		mov	r2, #1
 295 012e 1A70     		strb	r2, [r3, #0]
  80:../src/drv_hcsr04.c ****         exti_irqn = EXTI1_IRQn;
 296              		.loc 2 80 0
 297 0130 2A4B     		ldr	r3, .L15+16
 298 0132 4FF00702 		mov	r2, #7
 299 0136 1A70     		strb	r2, [r3, #0]
  81:../src/drv_hcsr04.c ****         break;
 300              		.loc 2 81 0
 301 0138 00BF     		nop
 302              	.L12:
  82:../src/drv_hcsr04.c ****     }
  83:../src/drv_hcsr04.c ****     
  84:../src/drv_hcsr04.c ****     // tp - trigger pin 
  85:../src/drv_hcsr04.c ****     GPIO_InitStructure.GPIO_Pin = trigger_pin;
 303              		.loc 2 85 0
 304 013a 244B     		ldr	r3, .L15
 305 013c 1B88     		ldrh	r3, [r3, #0]
 306 013e BB82     		strh	r3, [r7, #20]	@ movhi
  86:../src/drv_hcsr04.c ****     GPIO_InitStructure.GPIO_Mode = GPIO_Mode_Out_PP;
 307              		.loc 2 86 0
 308 0140 4FF01003 		mov	r3, #16
 309 0144 FB75     		strb	r3, [r7, #23]
  87:../src/drv_hcsr04.c ****     GPIO_InitStructure.GPIO_Speed = GPIO_Speed_2MHz;
 310              		.loc 2 87 0
 311 0146 4FF00203 		mov	r3, #2
 312 014a BB75     		strb	r3, [r7, #22]
  88:../src/drv_hcsr04.c ****     GPIO_Init(GPIOB, &GPIO_InitStructure);
 313              		.loc 2 88 0
 314 014c 07F11403 		add	r3, r7, #20
 315 0150 2348     		ldr	r0, .L15+20
 316 0152 1946     		mov	r1, r3
 317 0154 FFF7FEFF 		bl	GPIO_Init
  89:../src/drv_hcsr04.c **** 
  90:../src/drv_hcsr04.c ****     // ep - echo pin
  91:../src/drv_hcsr04.c ****     GPIO_InitStructure.GPIO_Pin = echo_pin;
 318              		.loc 2 91 0
 319 0158 1D4B     		ldr	r3, .L15+4
 320 015a 1B88     		ldrh	r3, [r3, #0]
 321 015c BB82     		strh	r3, [r7, #20]	@ movhi
  92:../src/drv_hcsr04.c ****     GPIO_InitStructure.GPIO_Mode = GPIO_Mode_IN_FLOATING;
 322              		.loc 2 92 0
 323 015e 4FF00403 		mov	r3, #4
 324 0162 FB75     		strb	r3, [r7, #23]
  93:../src/drv_hcsr04.c ****     GPIO_Init(GPIOB, &GPIO_InitStructure);
 325              		.loc 2 93 0
 326 0164 07F11403 		add	r3, r7, #20
 327 0168 1D48     		ldr	r0, .L15+20
 328 016a 1946     		mov	r1, r3
 329 016c FFF7FEFF 		bl	GPIO_Init
  94:../src/drv_hcsr04.c **** 
  95:../src/drv_hcsr04.c ****     // setup external interrupt on echo pin
  96:../src/drv_hcsr04.c ****     GPIO_EXTILineConfig(GPIO_PortSourceGPIOB, exti_pin_source);
 330              		.loc 2 96 0
 331 0170 194B     		ldr	r3, .L15+12
 332 0172 1B78     		ldrb	r3, [r3, #0]	@ zero_extendqisi2
 333 0174 4FF00100 		mov	r0, #1
 334 0178 1946     		mov	r1, r3
 335 017a FFF7FEFF 		bl	GPIO_EXTILineConfig
  97:../src/drv_hcsr04.c **** 
  98:../src/drv_hcsr04.c ****     EXTI_ClearITPendingBit(exti_line);
 336              		.loc 2 98 0
 337 017e 154B     		ldr	r3, .L15+8
 338 0180 1B68     		ldr	r3, [r3, #0]
 339 0182 1846     		mov	r0, r3
 340 0184 FFF7FEFF 		bl	EXTI_ClearITPendingBit
  99:../src/drv_hcsr04.c ****        
 100:../src/drv_hcsr04.c ****     EXTIInit.EXTI_Line = exti_line;
 341              		.loc 2 100 0
 342 0188 124B     		ldr	r3, .L15+8
 343 018a 1B68     		ldr	r3, [r3, #0]
 344 018c FB60     		str	r3, [r7, #12]
 101:../src/drv_hcsr04.c ****     EXTIInit.EXTI_Mode = EXTI_Mode_Interrupt;
 345              		.loc 2 101 0
 346 018e 4FF00003 		mov	r3, #0
 347 0192 3B74     		strb	r3, [r7, #16]
 102:../src/drv_hcsr04.c ****     EXTIInit.EXTI_Trigger = EXTI_Trigger_Rising_Falling;
 348              		.loc 2 102 0
 349 0194 4FF01003 		mov	r3, #16
 350 0198 7B74     		strb	r3, [r7, #17]
 103:../src/drv_hcsr04.c ****     EXTIInit.EXTI_LineCmd = ENABLE;    
 351              		.loc 2 103 0
 352 019a 4FF00103 		mov	r3, #1
 353 019e BB74     		strb	r3, [r7, #18]
 104:../src/drv_hcsr04.c ****     EXTI_Init(&EXTIInit);    
 354              		.loc 2 104 0
 355 01a0 07F10C03 		add	r3, r7, #12
 356 01a4 1846     		mov	r0, r3
 357 01a6 FFF7FEFF 		bl	EXTI_Init
 105:../src/drv_hcsr04.c **** 
 106:../src/drv_hcsr04.c ****     NVIC_EnableIRQ(exti_irqn);
 358              		.loc 2 106 0
 359 01aa 0C4B     		ldr	r3, .L15+16
 360 01ac 1B78     		ldrb	r3, [r3, #0]	@ zero_extendqisi2
 361 01ae 5BB2     		sxtb	r3, r3
 362 01b0 1846     		mov	r0, r3
 363 01b2 FFF725FF 		bl	NVIC_EnableIRQ
 107:../src/drv_hcsr04.c **** 
 108:../src/drv_hcsr04.c ****     last_measurement = millis() - 60; // force 1st measurement in hcsr04_get_distance()
 364              		.loc 2 108 0
 365 01b6 FFF7FEFF 		bl	millis
 366 01ba 0346     		mov	r3, r0
 367 01bc A3F13C02 		sub	r2, r3, #60
 368 01c0 084B     		ldr	r3, .L15+24
 369 01c2 1A60     		str	r2, [r3, #0]
 109:../src/drv_hcsr04.c **** }
 370              		.loc 2 109 0
 371 01c4 07F11807 		add	r7, r7, #24
 372 01c8 BD46     		mov	sp, r7
 373 01ca 80BD     		pop	{r7, pc}
 374              	.L16:
 375              		.align	2
 376              	.L15:
 377 01cc 00000000 		.word	trigger_pin
 378 01d0 02000000 		.word	echo_pin
 379 01d4 04000000 		.word	exti_line
 380 01d8 08000000 		.word	exti_pin_source
 381 01dc 09000000 		.word	exti_irqn
 382 01e0 000C0140 		.word	1073810432
 383 01e4 0C000000 		.word	last_measurement
 384              		.cfi_endproc
 385              	.LFE32:
 387              		.align	2
 388              		.global	hcsr04_get_distance
 389              		.thumb
 390              		.thumb_func
 392              	hcsr04_get_distance:
 393              	.LFB33:
 110:../src/drv_hcsr04.c **** 
 111:../src/drv_hcsr04.c **** // distance calculation is done asynchronously, using interrupt
 112:../src/drv_hcsr04.c **** void hcsr04_get_distance(volatile int16_t* distance)
 113:../src/drv_hcsr04.c **** {   
 394              		.loc 2 113 0
 395              		.cfi_startproc
 396              		@ args = 0, pretend = 0, frame = 16
 397              		@ frame_needed = 1, uses_anonymous_args = 0
 398 01e8 80B5     		push	{r7, lr}
 399              	.LCFI13:
 400              		.cfi_def_cfa_offset 8
 401              		.cfi_offset 7, -8
 402              		.cfi_offset 14, -4
 403 01ea 84B0     		sub	sp, sp, #16
 404              	.LCFI14:
 405              		.cfi_def_cfa_offset 24
 406 01ec 00AF     		add	r7, sp, #0
 407              	.LCFI15:
 408              		.cfi_def_cfa_register 7
 409 01ee 7860     		str	r0, [r7, #4]
 114:../src/drv_hcsr04.c ****     uint32_t current_time = millis();
 410              		.loc 2 114 0
 411 01f0 FFF7FEFF 		bl	millis
 412 01f4 F860     		str	r0, [r7, #12]
 115:../src/drv_hcsr04.c **** 
 116:../src/drv_hcsr04.c ****     if( current_time < (last_measurement + 60) )
 413              		.loc 2 116 0
 414 01f6 114B     		ldr	r3, .L21
 415 01f8 1B68     		ldr	r3, [r3, #0]
 416 01fa 03F13C02 		add	r2, r3, #60
 417 01fe FB68     		ldr	r3, [r7, #12]
 418 0200 9A42     		cmp	r2, r3
 419 0202 16D8     		bhi	.L20
 420              	.L18:
 117:../src/drv_hcsr04.c ****     {
 118:../src/drv_hcsr04.c ****         // the repeat interval of trig signal should be greater than 60ms
 119:../src/drv_hcsr04.c ****         // to avoid interference between connective measurements.
 120:../src/drv_hcsr04.c ****         return;
 121:../src/drv_hcsr04.c ****     }
 122:../src/drv_hcsr04.c ****         
 123:../src/drv_hcsr04.c ****     last_measurement = current_time;
 421              		.loc 2 123 0
 422 0204 0D4B     		ldr	r3, .L21
 423 0206 FA68     		ldr	r2, [r7, #12]
 424 0208 1A60     		str	r2, [r3, #0]
 124:../src/drv_hcsr04.c ****     distance_ptr = distance;
 425              		.loc 2 124 0
 426 020a 0D4B     		ldr	r3, .L21+4
 427 020c 7A68     		ldr	r2, [r7, #4]
 428 020e 1A60     		str	r2, [r3, #0]
 125:../src/drv_hcsr04.c **** 
 126:../src/drv_hcsr04.c ****     GPIO_SetBits(GPIOB, trigger_pin);
 429              		.loc 2 126 0
 430 0210 0C4B     		ldr	r3, .L21+8
 431 0212 1B88     		ldrh	r3, [r3, #0]
 432 0214 0C48     		ldr	r0, .L21+12
 433 0216 1946     		mov	r1, r3
 434 0218 FFF7FEFF 		bl	GPIO_SetBits
 127:../src/drv_hcsr04.c ****     //  The width of trig signal must be greater than 10us
 128:../src/drv_hcsr04.c ****     delayMicroseconds(11);
 435              		.loc 2 128 0
 436 021c 4FF00B00 		mov	r0, #11
 437 0220 FFF7FEFF 		bl	delayMicroseconds
 129:../src/drv_hcsr04.c ****     GPIO_ResetBits(GPIOB, trigger_pin);
 438              		.loc 2 129 0
 439 0224 074B     		ldr	r3, .L21+8
 440 0226 1B88     		ldrh	r3, [r3, #0]
 441 0228 0748     		ldr	r0, .L21+12
 442 022a 1946     		mov	r1, r3
 443 022c FFF7FEFF 		bl	GPIO_ResetBits
 444 0230 00E0     		b	.L17
 445              	.L20:
 120:../src/drv_hcsr04.c ****         return;
 446              		.loc 2 120 0
 447 0232 00BF     		nop
 448              	.L17:
 130:../src/drv_hcsr04.c **** }
 449              		.loc 2 130 0
 450 0234 07F11007 		add	r7, r7, #16
 451 0238 BD46     		mov	sp, r7
 452 023a 80BD     		pop	{r7, pc}
 453              	.L22:
 454              		.align	2
 455              	.L21:
 456 023c 0C000000 		.word	last_measurement
 457 0240 10000000 		.word	distance_ptr
 458 0244 00000000 		.word	trigger_pin
 459 0248 000C0140 		.word	1073810432
 460              		.cfi_endproc
 461              	.LFE33:
 463              		.bss
 464              		.align	2
 465              	timing_start.9037:
 466 0014 00000000 		.space	4
 467              		.text
 468              	.Letext0:
 469              		.file 3 "/home/oni/ARM_EABI/bin/../lib/gcc/arm-none-eabi/4.7.2/../../../../arm-none-eabi/include/s
 470              		.file 4 "/home/oni/workspace/Naze32/lib/CMSIS/CM3/DeviceSupport/ST/STM32F10x/stm32f10x.h"
 471              		.file 5 "/home/oni/workspace/Naze32/lib/STM32F10x_StdPeriph_Driver/inc/stm32f10x_exti.h"
 472              		.file 6 "/home/oni/workspace/Naze32/lib/STM32F10x_StdPeriph_Driver/inc/stm32f10x_gpio.h"
 473              		.file 7 "../src/drv_hcsr04.h"
 474              		.file 8 "../src/mw.h"
DEFINED SYMBOLS
                            *ABS*:00000000 drv_hcsr04.c
     /tmp/ccN7NGDc.s:18     .text:00000000 $t
     /tmp/ccN7NGDc.s:22     .text:00000000 NVIC_EnableIRQ
     /tmp/ccN7NGDc.s:59     .text:00000030 $d
     /tmp/ccN7NGDc.s:64     .bss:00000000 $d
     /tmp/ccN7NGDc.s:65     .bss:00000000 trigger_pin
     /tmp/ccN7NGDc.s:68     .bss:00000002 echo_pin
     /tmp/ccN7NGDc.s:71     .bss:00000004 exti_line
     /tmp/ccN7NGDc.s:73     .bss:00000008 exti_pin_source
     /tmp/ccN7NGDc.s:75     .bss:00000009 exti_irqn
     /tmp/ccN7NGDc.s:78     .bss:0000000c last_measurement
     /tmp/ccN7NGDc.s:81     .bss:00000010 distance_ptr
     /tmp/ccN7NGDc.s:84     .text:00000034 $t
     /tmp/ccN7NGDc.s:89     .text:00000034 ECHO_EXTI_IRQHandler
     /tmp/ccN7NGDc.s:164    .text:000000a0 $d
     /tmp/ccN7NGDc.s:465    .bss:00000014 timing_start.9037
     /tmp/ccN7NGDc.s:173    .text:000000b8 $t
     /tmp/ccN7NGDc.s:178    .text:000000b8 EXTI1_IRQHandler
     /tmp/ccN7NGDc.s:204    .text:000000c4 EXTI9_5_IRQHandler
     /tmp/ccN7NGDc.s:230    .text:000000d0 hcsr04_init
     /tmp/ccN7NGDc.s:377    .text:000001cc $d
     /tmp/ccN7NGDc.s:387    .text:000001e8 $t
     /tmp/ccN7NGDc.s:392    .text:000001e8 hcsr04_get_distance
     /tmp/ccN7NGDc.s:456    .text:0000023c $d
                     .debug_frame:00000010 $d
                           .group:00000000 wm4.1.809c0ff785d6d6219236c5d51f444c16
                           .group:00000000 wm4.stdbool.h.29.1c9ee6859ce8145f7838a4f2549ccec2
                           .group:00000000 wm4.newlib.h.8.e1d498e57c12962fc6d7be5061a6981a
                           .group:00000000 wm4.config.h.148.52fe83653334d06815a0c57b59a3e584
                           .group:00000000 wm4._ansi.h.23.95dee4059009fe3ab635a191bb73dc66
                           .group:00000000 wm4.stdlib.h.18.6f6153fd5cb89acd58c0f0ab1f77e147
                           .group:00000000 wm4.stddef.h.187.40b3a084f9bc2c020a9e00b9eabe9c14
                           .group:00000000 wm4._default_types.h.6.1dbd2e581fd590860c7c17f21d147e91
                           .group:00000000 wm4.lock.h.2.9bc98482741e5e2a9450b12934a684ea
                           .group:00000000 wm4.stddef.h.349.31f4c5baff3fa2689010b32028da9c47
                           .group:00000000 wm4.reent.h.16.58b23a9f0faf0e7f2dfe7e2d33154afd
                           .group:00000000 wm4.alloca.h.8.dfc0c703c47ec3e69746825b17d9e66d
                           .group:00000000 wm4.stdlib.h.55.22eafe60f8565d898cbb44515781114b
                           .group:00000000 wm4.stdint.h.10.90b695f550ca6cc3fb08fa83baf01e05
                           .group:00000000 wm4.math.h.49.5da716593b937b9fb02bef6ed6537c13
                           .group:00000000 wm4.ctype.h.2.fecd14bb6f4e162ef31748cc97760e21
                           .group:00000000 wm4.string.h.8.ef946ad0bc9ad5c970c365dcd1fc4b0a
                           .group:00000000 wm4.stddef.h.235.d9f4f80b8c4429535175712282cda6a6
                           .group:00000000 wm4.string.h.86.d5c872ff52e2712c985b588a0ef39f3c
                           .group:00000000 wm4.stdio.h.27.f2ac352bab34f31f9f478442827b2ba6
                           .group:00000000 wm4.stdarg.h.34.3a23a216c0c293b3d2ea2e89281481e6
                           .group:00000000 wm4.types.h.23.0d949686bbcadd1621462d4fa1f884f9
                           .group:00000000 wm4.stddef.h.40.b60a1c1ee3f272eef5327a730cbabca6
                           .group:00000000 wm4.types.h.2.e9cec8c90ab35f77d9f499e06ae02400
                           .group:00000000 wm4.types.h.80.f2bfdfeee9f340633702c07fad9b5e01
                           .group:00000000 wm4.stdio.h.2.4aa87247282eca6c8f36f9de33d8df1a
                           .group:00000000 wm4.stdio.h.63.1f4bc553faa62c5c69dd9cb47f9f1417
                           .group:00000000 wm4.stm32f10x.h.51.b859cb68ed44ee02c916b41cb8c68f1c
                           .group:00000000 wm4.core_cm3.h.25.119fe996be41b62fbd915b59177e39d1
                           .group:00000000 wm4.stm32f10x.h.522.9a9f642c8c562acb4a63ad5d933b7c01
                           .group:00000000 wm4.stm32f10x.h.8304.f7d8ad90959e99679b3257267c3aadfe
                           .group:00000000 wm4.stm32f10x_adc.h.83.4d35a50d598070ecea6f33bcef02c922
                           .group:00000000 wm4.stm32f10x_bkp.h.25.4622919f1e30efdad5eb44e12edd5513
                           .group:00000000 wm4.stm32f10x_can.h.25.48aab46fcce6d08400bf960b028e4698
                           .group:00000000 wm4.stm32f10x_cec.h.25.8f03450e7bbb704d96e7bc73ec0f66a7
                           .group:00000000 wm4.stm32f10x_dac.h.25.6e7f2924f39c60c10815105b99b8b446
                           .group:00000000 wm4.stm32f10x_dbgmcu.h.25.d3351200fc7f9c8615d1ae81d40db08a
                           .group:00000000 wm4.stm32f10x_dma.h.25.94e36204daa98cae5dcc70a10a9694d5
                           .group:00000000 wm4.stm32f10x_exti.h.25.b9064155c5c006b5154b39788c79001a
                           .group:00000000 wm4.stm32f10x_flash.h.25.4be61fcb02863962a1e006449d310650
                           .group:00000000 wm4.stm32f10x_fsmc.h.25.bca154da2699cdb6024c0c6c4fc5aa89
                           .group:00000000 wm4.stm32f10x_gpio.h.25.80c981af0e637567395034c576cfb3ce
                           .group:00000000 wm4.stm32f10x_i2c.h.25.7b6cbaea24c6f25f538f8516d1814cb2
                           .group:00000000 wm4.stm32f10x_iwdg.h.25.da9374ab9856795610487f312ccf3122
                           .group:00000000 wm4.stm32f10x_pwr.h.25.37ef75009f751ef5fe27910e0bf00a62
                           .group:00000000 wm4.stm32f10x_rcc.h.25.968bcf08d813e68e57c280a4da69fa5a
                           .group:00000000 wm4.stm32f10x_rtc.h.25.361142606ba98ddcd10369f321f6e636
                           .group:00000000 wm4.stm32f10x_sdio.h.25.1fb5280a7690ef99070096bf8c866b3a
                           .group:00000000 wm4.stm32f10x_spi.h.25.68b3d5ccfcf895f9fe505ce20c0c300f
                           .group:00000000 wm4.stm32f10x_tim.h.25.21c6ec062f1e74898cb96a57da276fec
                           .group:00000000 wm4.stm32f10x_usart.h.25.29629c699b65db3f3efd3561f66b0bf6
                           .group:00000000 wm4.stm32f10x_wwdg.h.25.dde12201d86b5aa9ecaafb5eccdc6549
                           .group:00000000 wm4.misc.h.25.068e106f368fa5369a681ef57c106f4b
                           .group:00000000 wm4.stdarg.h.31.fa591a4b1df9e413e9f5b8097f9ae89d
                           .group:00000000 wm4.printf.h.118.ab3672ee221610a07496c11f46394049
                           .group:00000000 wm4.board.h.22.3e17243136ce51e89ad1cec38a12dc6f
                           .group:00000000 wm4.drv_adc.h.3.0c1a2a90f0739aca31cc38e66ffab3f5
                           .group:00000000 wm4.drv_pwm.h.3.1f878ba1925c00079825df97e09db15d
                           .group:00000000 wm4.mw.h.4.b0e233e0e6ae9c4c07b142ad41413d4c

UNDEFINED SYMBOLS
GPIO_ReadInputDataBit
micros
EXTI_ClearITPendingBit
GPIO_Init
GPIO_EXTILineConfig
EXTI_Init
millis
GPIO_SetBits
delayMicroseconds
GPIO_ResetBits
